ARM GAS  C:\Users\LOCALA~1\AppData\Local\Temp\cczriwEO.s 			page 1


   1              		.syntax unified
   2              		.cpu cortex-m3
   3              		.fpu softvfp
   4              		.eabi_attribute 20, 1
   5              		.eabi_attribute 21, 1
   6              		.eabi_attribute 23, 3
   7              		.eabi_attribute 24, 1
   8              		.eabi_attribute 25, 1
   9              		.eabi_attribute 26, 1
  10              		.eabi_attribute 30, 6
  11              		.eabi_attribute 34, 1
  12              		.eabi_attribute 18, 4
  13              		.thumb
  14              		.syntax unified
  15              		.file	"main.c"
  16              		.text
  17              	.Ltext0:
  18              		.cfi_sections	.debug_frame
  19              		.comm	g_PC_InterruptSignal,1,1
  20              		.comm	g_Nextion_InterruptSignal,1,1
  21              		.global	g_ActivePage
  22              		.data
  23              		.type	g_ActivePage, %object
  24              		.size	g_ActivePage, 1
  25              	g_ActivePage:
  26 0000 48       		.byte	72
  27              		.global	t_timer_LaserSwitch
  28              		.bss
  29              		.align	2
  30              		.type	t_timer_LaserSwitch, %object
  31              		.size	t_timer_LaserSwitch, 4
  32              	t_timer_LaserSwitch:
  33 0000 00000000 		.space	4
  34              		.global	f_timer_LaserSwitch
  35              		.type	f_timer_LaserSwitch, %object
  36              		.size	f_timer_LaserSwitch, 1
  37              	f_timer_LaserSwitch:
  38 0004 00       		.space	1
  39              		.global	p_LaserSwitchPeriod
  40              		.data
  41 0001 000000   		.align	2
  42              		.type	p_LaserSwitchPeriod, %object
  43              		.size	p_LaserSwitchPeriod, 4
  44              	p_LaserSwitchPeriod:
  45 0004 64000000 		.word	100
  46              		.global	t_timer_LamellaLifetime
  47              		.bss
  48 0005 000000   		.align	2
  49              		.type	t_timer_LamellaLifetime, %object
  50              		.size	t_timer_LamellaLifetime, 4
  51              	t_timer_LamellaLifetime:
  52 0008 00000000 		.space	4
  53              		.global	f_timer_LamellaLifetime_Measuring
  54              		.align	2
  55              		.type	f_timer_LamellaLifetime_Measuring, %object
  56              		.size	f_timer_LamellaLifetime_Measuring, 4
  57              	f_timer_LamellaLifetime_Measuring:
ARM GAS  C:\Users\LOCALA~1\AppData\Local\Temp\cczriwEO.s 			page 2


  58 000c 00000000 		.space	4
  59              		.global	Protect_PCInterrupt
  60              		.type	Protect_PCInterrupt, %object
  61              		.size	Protect_PCInterrupt, 1
  62              	Protect_PCInterrupt:
  63 0010 00       		.space	1
  64              		.section	.text.Switch_PCInterrupt,"ax",%progbits
  65              		.align	2
  66              		.global	Switch_PCInterrupt
  67              		.thumb
  68              		.thumb_func
  69              		.type	Switch_PCInterrupt, %function
  70              	Switch_PCInterrupt:
  71              	.LFB64:
  72              		.file 1 "./SwitchInterruptVariables.h"
   1:./SwitchInterruptVariables.h **** /* ========================================
   2:./SwitchInterruptVariables.h ****  *
   3:./SwitchInterruptVariables.h ****  * Copyright YOUR COMPANY, THE YEAR
   4:./SwitchInterruptVariables.h ****  * All Rights Reserved
   5:./SwitchInterruptVariables.h ****  * UNPUBLISHED, LICENSED SOFTWARE.
   6:./SwitchInterruptVariables.h ****  *
   7:./SwitchInterruptVariables.h ****  * CONFIDENTIAL AND PROPRIETARY INFORMATION
   8:./SwitchInterruptVariables.h ****  * WHICH IS THE PROPERTY OF your company.
   9:./SwitchInterruptVariables.h ****  *
  10:./SwitchInterruptVariables.h ****  * ========================================
  11:./SwitchInterruptVariables.h **** */
  12:./SwitchInterruptVariables.h **** #ifndef SWITCHINTERRUPTVARIABLES_H
  13:./SwitchInterruptVariables.h ****     #define SWITCHINTERRUPTVARIABLES_H
  14:./SwitchInterruptVariables.h **** 
  15:./SwitchInterruptVariables.h ****     #include <Includes.h>
  16:./SwitchInterruptVariables.h ****     
  17:./SwitchInterruptVariables.h ****     char Protect_PCInterrupt = 0;
  18:./SwitchInterruptVariables.h ****     
  19:./SwitchInterruptVariables.h ****     void Switch_PCInterrupt(char New){
  73              		.loc 1 19 0
  74              		.cfi_startproc
  75              		@ args = 0, pretend = 0, frame = 8
  76              		@ frame_needed = 1, uses_anonymous_args = 0
  77              		@ link register save eliminated.
  78 0000 80B4     		push	{r7}
  79              		.cfi_def_cfa_offset 4
  80              		.cfi_offset 7, -4
  81 0002 83B0     		sub	sp, sp, #12
  82              		.cfi_def_cfa_offset 16
  83 0004 00AF     		add	r7, sp, #0
  84              		.cfi_def_cfa_register 7
  85 0006 0346     		mov	r3, r0
  86 0008 FB71     		strb	r3, [r7, #7]
  20:./SwitchInterruptVariables.h ****         if (Protect_PCInterrupt == 0){
  87              		.loc 1 20 0
  88 000a 094B     		ldr	r3, .L4
  89 000c 1B78     		ldrb	r3, [r3]	@ zero_extendqisi2
  90 000e 002B     		cmp	r3, #0
  91 0010 08D1     		bne	.L3
  21:./SwitchInterruptVariables.h ****             Protect_PCInterrupt = 1;
  92              		.loc 1 21 0
  93 0012 074B     		ldr	r3, .L4
ARM GAS  C:\Users\LOCALA~1\AppData\Local\Temp\cczriwEO.s 			page 3


  94 0014 0122     		movs	r2, #1
  95 0016 1A70     		strb	r2, [r3]
  22:./SwitchInterruptVariables.h ****             g_PC_InterruptSignal = New;
  96              		.loc 1 22 0
  97 0018 064A     		ldr	r2, .L4+4
  98 001a FB79     		ldrb	r3, [r7, #7]
  99 001c 1370     		strb	r3, [r2]
  23:./SwitchInterruptVariables.h ****             Protect_PCInterrupt = 0;
 100              		.loc 1 23 0
 101 001e 044B     		ldr	r3, .L4
 102 0020 0022     		movs	r2, #0
 103 0022 1A70     		strb	r2, [r3]
 104              	.L3:
  24:./SwitchInterruptVariables.h ****         }
  25:./SwitchInterruptVariables.h ****         
  26:./SwitchInterruptVariables.h ****     }
 105              		.loc 1 26 0
 106 0024 00BF     		nop
 107 0026 0C37     		adds	r7, r7, #12
 108              		.cfi_def_cfa_offset 4
 109 0028 BD46     		mov	sp, r7
 110              		.cfi_def_cfa_register 13
 111              		@ sp needed
 112 002a 80BC     		pop	{r7}
 113              		.cfi_restore 7
 114              		.cfi_def_cfa_offset 0
 115 002c 7047     		bx	lr
 116              	.L5:
 117 002e 00BF     		.align	2
 118              	.L4:
 119 0030 00000000 		.word	Protect_PCInterrupt
 120 0034 00000000 		.word	g_PC_InterruptSignal
 121              		.cfi_endproc
 122              	.LFE64:
 123              		.size	Switch_PCInterrupt, .-Switch_PCInterrupt
 124              		.global	Protect_NextionInterrupt
 125              		.bss
 126              		.type	Protect_NextionInterrupt, %object
 127              		.size	Protect_NextionInterrupt, 1
 128              	Protect_NextionInterrupt:
 129 0011 00       		.space	1
 130              		.section	.text.Switch_NextionInterrupt,"ax",%progbits
 131              		.align	2
 132              		.global	Switch_NextionInterrupt
 133              		.thumb
 134              		.thumb_func
 135              		.type	Switch_NextionInterrupt, %function
 136              	Switch_NextionInterrupt:
 137              	.LFB65:
  27:./SwitchInterruptVariables.h ****     
  28:./SwitchInterruptVariables.h ****     char Protect_NextionInterrupt = 0;
  29:./SwitchInterruptVariables.h ****     void Switch_NextionInterrupt(char New){
 138              		.loc 1 29 0
 139              		.cfi_startproc
 140              		@ args = 0, pretend = 0, frame = 8
 141              		@ frame_needed = 1, uses_anonymous_args = 0
 142              		@ link register save eliminated.
ARM GAS  C:\Users\LOCALA~1\AppData\Local\Temp\cczriwEO.s 			page 4


 143 0000 80B4     		push	{r7}
 144              		.cfi_def_cfa_offset 4
 145              		.cfi_offset 7, -4
 146 0002 83B0     		sub	sp, sp, #12
 147              		.cfi_def_cfa_offset 16
 148 0004 00AF     		add	r7, sp, #0
 149              		.cfi_def_cfa_register 7
 150 0006 0346     		mov	r3, r0
 151 0008 FB71     		strb	r3, [r7, #7]
  30:./SwitchInterruptVariables.h ****         if (Protect_NextionInterrupt == 0){
 152              		.loc 1 30 0
 153 000a 094B     		ldr	r3, .L9
 154 000c 1B78     		ldrb	r3, [r3]	@ zero_extendqisi2
 155 000e 002B     		cmp	r3, #0
 156 0010 08D1     		bne	.L8
  31:./SwitchInterruptVariables.h ****             Protect_NextionInterrupt = 1;
 157              		.loc 1 31 0
 158 0012 074B     		ldr	r3, .L9
 159 0014 0122     		movs	r2, #1
 160 0016 1A70     		strb	r2, [r3]
  32:./SwitchInterruptVariables.h ****             g_Nextion_InterruptSignal = New;
 161              		.loc 1 32 0
 162 0018 064A     		ldr	r2, .L9+4
 163 001a FB79     		ldrb	r3, [r7, #7]
 164 001c 1370     		strb	r3, [r2]
  33:./SwitchInterruptVariables.h ****             Protect_NextionInterrupt = 0;
 165              		.loc 1 33 0
 166 001e 044B     		ldr	r3, .L9
 167 0020 0022     		movs	r2, #0
 168 0022 1A70     		strb	r2, [r3]
 169              	.L8:
  34:./SwitchInterruptVariables.h ****         }
  35:./SwitchInterruptVariables.h ****     }
 170              		.loc 1 35 0
 171 0024 00BF     		nop
 172 0026 0C37     		adds	r7, r7, #12
 173              		.cfi_def_cfa_offset 4
 174 0028 BD46     		mov	sp, r7
 175              		.cfi_def_cfa_register 13
 176              		@ sp needed
 177 002a 80BC     		pop	{r7}
 178              		.cfi_restore 7
 179              		.cfi_def_cfa_offset 0
 180 002c 7047     		bx	lr
 181              	.L10:
 182 002e 00BF     		.align	2
 183              	.L9:
 184 0030 00000000 		.word	Protect_NextionInterrupt
 185 0034 00000000 		.word	g_Nextion_InterruptSignal
 186              		.cfi_endproc
 187              	.LFE65:
 188              		.size	Switch_NextionInterrupt, .-Switch_NextionInterrupt
 189              		.global	Protect_ActivePage
 190              		.bss
 191              		.type	Protect_ActivePage, %object
 192              		.size	Protect_ActivePage, 1
 193              	Protect_ActivePage:
ARM GAS  C:\Users\LOCALA~1\AppData\Local\Temp\cczriwEO.s 			page 5


 194 0012 00       		.space	1
 195              		.section	.text.Switch_ActivePage,"ax",%progbits
 196              		.align	2
 197              		.global	Switch_ActivePage
 198              		.thumb
 199              		.thumb_func
 200              		.type	Switch_ActivePage, %function
 201              	Switch_ActivePage:
 202              	.LFB66:
 203              		.file 2 "./SwitchActivePage.h"
   1:./SwitchActivePage.h **** /* ========================================
   2:./SwitchActivePage.h ****  *
   3:./SwitchActivePage.h ****  * Copyright YOUR COMPANY, THE YEAR
   4:./SwitchActivePage.h ****  * All Rights Reserved
   5:./SwitchActivePage.h ****  * UNPUBLISHED, LICENSED SOFTWARE.
   6:./SwitchActivePage.h ****  *
   7:./SwitchActivePage.h ****  * CONFIDENTIAL AND PROPRIETARY INFORMATION
   8:./SwitchActivePage.h ****  * WHICH IS THE PROPERTY OF your company.
   9:./SwitchActivePage.h ****  *
  10:./SwitchActivePage.h ****  * ========================================
  11:./SwitchActivePage.h **** */
  12:./SwitchActivePage.h **** #ifndef SWITCHACTIVEPAGE_H
  13:./SwitchActivePage.h ****     #define SWITCHACTIVEPAGE_H
  14:./SwitchActivePage.h **** 
  15:./SwitchActivePage.h ****     #include <Includes.h>
  16:./SwitchActivePage.h ****     
  17:./SwitchActivePage.h ****     char Protect_ActivePage = 0;
  18:./SwitchActivePage.h ****     
  19:./SwitchActivePage.h ****     void Switch_ActivePage(char New){
 204              		.loc 2 19 0
 205              		.cfi_startproc
 206              		@ args = 0, pretend = 0, frame = 8
 207              		@ frame_needed = 1, uses_anonymous_args = 0
 208              		@ link register save eliminated.
 209 0000 80B4     		push	{r7}
 210              		.cfi_def_cfa_offset 4
 211              		.cfi_offset 7, -4
 212 0002 83B0     		sub	sp, sp, #12
 213              		.cfi_def_cfa_offset 16
 214 0004 00AF     		add	r7, sp, #0
 215              		.cfi_def_cfa_register 7
 216 0006 0346     		mov	r3, r0
 217 0008 FB71     		strb	r3, [r7, #7]
  20:./SwitchActivePage.h ****         if (Protect_ActivePage == 0){
 218              		.loc 2 20 0
 219 000a 094B     		ldr	r3, .L14
 220 000c 1B78     		ldrb	r3, [r3]	@ zero_extendqisi2
 221 000e 002B     		cmp	r3, #0
 222 0010 08D1     		bne	.L13
  21:./SwitchActivePage.h ****             Protect_ActivePage = 1;
 223              		.loc 2 21 0
 224 0012 074B     		ldr	r3, .L14
 225 0014 0122     		movs	r2, #1
 226 0016 1A70     		strb	r2, [r3]
  22:./SwitchActivePage.h ****             g_ActivePage = New;
 227              		.loc 2 22 0
 228 0018 064A     		ldr	r2, .L14+4
ARM GAS  C:\Users\LOCALA~1\AppData\Local\Temp\cczriwEO.s 			page 6


 229 001a FB79     		ldrb	r3, [r7, #7]
 230 001c 1370     		strb	r3, [r2]
  23:./SwitchActivePage.h ****             Protect_ActivePage = 0;
 231              		.loc 2 23 0
 232 001e 044B     		ldr	r3, .L14
 233 0020 0022     		movs	r2, #0
 234 0022 1A70     		strb	r2, [r3]
 235              	.L13:
  24:./SwitchActivePage.h ****         }
  25:./SwitchActivePage.h ****         
  26:./SwitchActivePage.h ****     }
 236              		.loc 2 26 0
 237 0024 00BF     		nop
 238 0026 0C37     		adds	r7, r7, #12
 239              		.cfi_def_cfa_offset 4
 240 0028 BD46     		mov	sp, r7
 241              		.cfi_def_cfa_register 13
 242              		@ sp needed
 243 002a 80BC     		pop	{r7}
 244              		.cfi_restore 7
 245              		.cfi_def_cfa_offset 0
 246 002c 7047     		bx	lr
 247              	.L15:
 248 002e 00BF     		.align	2
 249              	.L14:
 250 0030 00000000 		.word	Protect_ActivePage
 251 0034 00000000 		.word	g_ActivePage
 252              		.cfi_endproc
 253              	.LFE66:
 254              		.size	Switch_ActivePage, .-Switch_ActivePage
 255              		.section	.text.Nextion_EndOfCommunication,"ax",%progbits
 256              		.align	2
 257              		.global	Nextion_EndOfCommunication
 258              		.thumb
 259              		.thumb_func
 260              		.type	Nextion_EndOfCommunication, %function
 261              	Nextion_EndOfCommunication:
 262              	.LFB67:
 263              		.file 3 "./Nextion.h"
   1:./Nextion.h   **** /* ========================================
   2:./Nextion.h   ****  *
   3:./Nextion.h   ****  * Copyright YOUR COMPANY, THE YEAR
   4:./Nextion.h   ****  * All Rights Reserved
   5:./Nextion.h   ****  * UNPUBLISHED, LICENSED SOFTWARE.
   6:./Nextion.h   ****  *
   7:./Nextion.h   ****  * CONFIDENTIAL AND PROPRIETARY INFORMATION
   8:./Nextion.h   ****  * WHICH IS THE PROPERTY OF your company.
   9:./Nextion.h   ****  *
  10:./Nextion.h   ****  * ========================================
  11:./Nextion.h   **** */
  12:./Nextion.h   **** #ifndef NEXTION_H
  13:./Nextion.h   ****     #define NEXTION_H
  14:./Nextion.h   ****     
  15:./Nextion.h   ****     #include <Includes.h>
  16:./Nextion.h   ****     
  17:./Nextion.h   ****     void Nextion_EndOfCommunication(){
 264              		.loc 3 17 0
ARM GAS  C:\Users\LOCALA~1\AppData\Local\Temp\cczriwEO.s 			page 7


 265              		.cfi_startproc
 266              		@ args = 0, pretend = 0, frame = 0
 267              		@ frame_needed = 1, uses_anonymous_args = 0
 268 0000 80B5     		push	{r7, lr}
 269              		.cfi_def_cfa_offset 8
 270              		.cfi_offset 7, -8
 271              		.cfi_offset 14, -4
 272 0002 00AF     		add	r7, sp, #0
 273              		.cfi_def_cfa_register 7
  18:./Nextion.h   ****         UART_TFT_PutChar(0xFF);
 274              		.loc 3 18 0
 275 0004 FF20     		movs	r0, #255
 276 0006 FFF7FEFF 		bl	UART_TFT_PutChar
  19:./Nextion.h   ****         UART_TFT_PutChar(0xFF);
 277              		.loc 3 19 0
 278 000a FF20     		movs	r0, #255
 279 000c FFF7FEFF 		bl	UART_TFT_PutChar
  20:./Nextion.h   ****         UART_TFT_PutChar(0xFF);
 280              		.loc 3 20 0
 281 0010 FF20     		movs	r0, #255
 282 0012 FFF7FEFF 		bl	UART_TFT_PutChar
  21:./Nextion.h   ****     }
 283              		.loc 3 21 0
 284 0016 00BF     		nop
 285 0018 80BD     		pop	{r7, pc}
 286              		.cfi_endproc
 287              	.LFE67:
 288              		.size	Nextion_EndOfCommunication, .-Nextion_EndOfCommunication
 289 001a 00BF     		.section	.rodata
 290              		.align	2
 291              	.LC0:
 292 0000 234E6578 		.ascii	"#Nextion: \000"
 292      74696F6E 
 292      3A2000
 293 000b 00       		.align	2
 294              	.LC1:
 295 000c 0A00     		.ascii	"\012\000"
 296              		.section	.text.Nextion_SendString,"ax",%progbits
 297              		.align	2
 298              		.global	Nextion_SendString
 299              		.thumb
 300              		.thumb_func
 301              		.type	Nextion_SendString, %function
 302              	Nextion_SendString:
 303              	.LFB68:
  22:./Nextion.h   ****     
  23:./Nextion.h   ****     void Nextion_SendString(char *string){   
 304              		.loc 3 23 0
 305              		.cfi_startproc
 306              		@ args = 0, pretend = 0, frame = 8
 307              		@ frame_needed = 1, uses_anonymous_args = 0
 308 0000 80B5     		push	{r7, lr}
 309              		.cfi_def_cfa_offset 8
 310              		.cfi_offset 7, -8
 311              		.cfi_offset 14, -4
 312 0002 82B0     		sub	sp, sp, #8
 313              		.cfi_def_cfa_offset 16
ARM GAS  C:\Users\LOCALA~1\AppData\Local\Temp\cczriwEO.s 			page 8


 314 0004 00AF     		add	r7, sp, #0
 315              		.cfi_def_cfa_register 7
 316 0006 7860     		str	r0, [r7, #4]
  24:./Nextion.h   ****         #ifdef DEBUG_NEXTION
  25:./Nextion.h   ****             UART_PC_PutString("#Nextion: ");
 317              		.loc 3 25 0
 318 0008 0848     		ldr	r0, .L18
 319 000a FFF7FEFF 		bl	UART_PC_PutString
  26:./Nextion.h   ****             UART_PC_PutString(string);
 320              		.loc 3 26 0
 321 000e 7868     		ldr	r0, [r7, #4]
 322 0010 FFF7FEFF 		bl	UART_PC_PutString
  27:./Nextion.h   ****             UART_PC_PutString("\n");
 323              		.loc 3 27 0
 324 0014 0648     		ldr	r0, .L18+4
 325 0016 FFF7FEFF 		bl	UART_PC_PutString
  28:./Nextion.h   ****         #endif
  29:./Nextion.h   ****         UART_TFT_PutString(string);
 326              		.loc 3 29 0
 327 001a 7868     		ldr	r0, [r7, #4]
 328 001c FFF7FEFF 		bl	UART_TFT_PutString
  30:./Nextion.h   ****         Nextion_EndOfCommunication();
 329              		.loc 3 30 0
 330 0020 FFF7FEFF 		bl	Nextion_EndOfCommunication
  31:./Nextion.h   ****     }
 331              		.loc 3 31 0
 332 0024 00BF     		nop
 333 0026 0837     		adds	r7, r7, #8
 334              		.cfi_def_cfa_offset 8
 335 0028 BD46     		mov	sp, r7
 336              		.cfi_def_cfa_register 13
 337              		@ sp needed
 338 002a 80BD     		pop	{r7, pc}
 339              	.L19:
 340              		.align	2
 341              	.L18:
 342 002c 00000000 		.word	.LC0
 343 0030 0C000000 		.word	.LC1
 344              		.cfi_endproc
 345              	.LFE68:
 346              		.size	Nextion_SendString, .-Nextion_SendString
 347              		.section	.rodata
 348 000e 0000     		.align	2
 349              	.LC2:
 350 0010 70616765 		.ascii	"page Home\000"
 350      20486F6D 
 350      6500
 351              		.section	.text.InitNextion,"ax",%progbits
 352              		.align	2
 353              		.global	InitNextion
 354              		.thumb
 355              		.thumb_func
 356              		.type	InitNextion, %function
 357              	InitNextion:
 358              	.LFB69:
  32:./Nextion.h   ****     
  33:./Nextion.h   ****     void InitNextion(){                     
ARM GAS  C:\Users\LOCALA~1\AppData\Local\Temp\cczriwEO.s 			page 9


 359              		.loc 3 33 0
 360              		.cfi_startproc
 361              		@ args = 0, pretend = 0, frame = 0
 362              		@ frame_needed = 1, uses_anonymous_args = 0
 363 0000 80B5     		push	{r7, lr}
 364              		.cfi_def_cfa_offset 8
 365              		.cfi_offset 7, -8
 366              		.cfi_offset 14, -4
 367 0002 00AF     		add	r7, sp, #0
 368              		.cfi_def_cfa_register 7
  34:./Nextion.h   ****         UART_TFT_Start();
 369              		.loc 3 34 0
 370 0004 FFF7FEFF 		bl	UART_TFT_Start
  35:./Nextion.h   ****         CyDelay(1000);
 371              		.loc 3 35 0
 372 0008 4FF47A70 		mov	r0, #1000
 373 000c FFF7FEFF 		bl	CyDelay
  36:./Nextion.h   ****         Nextion_SendString("page Home");
 374              		.loc 3 36 0
 375 0010 0348     		ldr	r0, .L21
 376 0012 FFF7FEFF 		bl	Nextion_SendString
  37:./Nextion.h   ****         CyDelay(100);
 377              		.loc 3 37 0
 378 0016 6420     		movs	r0, #100
 379 0018 FFF7FEFF 		bl	CyDelay
  38:./Nextion.h   ****     }
 380              		.loc 3 38 0
 381 001c 00BF     		nop
 382 001e 80BD     		pop	{r7, pc}
 383              	.L22:
 384              		.align	2
 385              	.L21:
 386 0020 10000000 		.word	.LC2
 387              		.cfi_endproc
 388              	.LFE69:
 389              		.size	InitNextion, .-InitNextion
 390              		.section	.text.Nextion_Interrupt,"ax",%progbits
 391              		.align	2
 392              		.global	Nextion_Interrupt
 393              		.thumb
 394              		.thumb_func
 395              		.type	Nextion_Interrupt, %function
 396              	Nextion_Interrupt:
 397              	.LFB70:
 398              		.file 4 "./CY_ISR_Nextion.h"
   1:./CY_ISR_Nextion.h **** /* ========================================
   2:./CY_ISR_Nextion.h ****  *
   3:./CY_ISR_Nextion.h ****  * Copyright YOUR COMPANY, THE YEAR
   4:./CY_ISR_Nextion.h ****  * All Rights Reserved
   5:./CY_ISR_Nextion.h ****  * UNPUBLISHED, LICENSED SOFTWARE.
   6:./CY_ISR_Nextion.h ****  *
   7:./CY_ISR_Nextion.h ****  * CONFIDENTIAL AND PROPRIETARY INFORMATION
   8:./CY_ISR_Nextion.h ****  * WHICH IS THE PROPERTY OF your company.
   9:./CY_ISR_Nextion.h ****  *
  10:./CY_ISR_Nextion.h ****  * ========================================
  11:./CY_ISR_Nextion.h **** */
  12:./CY_ISR_Nextion.h **** #ifndef CY_ISR_NEXTION_H
ARM GAS  C:\Users\LOCALA~1\AppData\Local\Temp\cczriwEO.s 			page 10


  13:./CY_ISR_Nextion.h ****     #define CY_ISR_NEXTION_H
  14:./CY_ISR_Nextion.h ****     
  15:./CY_ISR_Nextion.h ****     #include <Includes.h>
  16:./CY_ISR_Nextion.h ****     
  17:./CY_ISR_Nextion.h ****     CY_ISR(Nextion_Interrupt){
 399              		.loc 4 17 0
 400              		.cfi_startproc
 401              		@ args = 0, pretend = 0, frame = 8
 402              		@ frame_needed = 1, uses_anonymous_args = 0
 403 0000 80B5     		push	{r7, lr}
 404              		.cfi_def_cfa_offset 8
 405              		.cfi_offset 7, -8
 406              		.cfi_offset 14, -4
 407 0002 82B0     		sub	sp, sp, #8
 408              		.cfi_def_cfa_offset 16
 409 0004 00AF     		add	r7, sp, #0
 410              		.cfi_def_cfa_register 7
  18:./CY_ISR_Nextion.h ****         char last_byte = UART_TFT_GetByte();
 411              		.loc 4 18 0
 412 0006 FFF7FEFF 		bl	UART_TFT_GetByte
 413 000a 0346     		mov	r3, r0
 414 000c FB71     		strb	r3, [r7, #7]
  19:./CY_ISR_Nextion.h ****         #ifdef DEBUG_Nextion_INTERRUPT
  20:./CY_ISR_Nextion.h ****             UART_PC_PutString("#Interrupt (Nextion): ");
  21:./CY_ISR_Nextion.h ****             UART_PC_PutChar(last_byte);
  22:./CY_ISR_Nextion.h ****             UART_PC_PutString("\n");
  23:./CY_ISR_Nextion.h ****         #endif
  24:./CY_ISR_Nextion.h ****         if (last_byte == 0xFF){
 415              		.loc 4 24 0
 416 000e FB79     		ldrb	r3, [r7, #7]	@ zero_extendqisi2
 417 0010 FF2B     		cmp	r3, #255
 418 0012 11D0     		beq	.L27
  25:./CY_ISR_Nextion.h ****             // Ignore, because only signal for End of Communication
  26:./CY_ISR_Nextion.h ****         }
  27:./CY_ISR_Nextion.h ****         else
  28:./CY_ISR_Nextion.h ****         {
  29:./CY_ISR_Nextion.h ****             if (last_byte == 'H')
 419              		.loc 4 29 0
 420 0014 FB79     		ldrb	r3, [r7, #7]	@ zero_extendqisi2
 421 0016 482B     		cmp	r3, #72
 422 0018 03D1     		bne	.L25
  30:./CY_ISR_Nextion.h ****             {
  31:./CY_ISR_Nextion.h ****                 g_ActivePage = 'H';
 423              		.loc 4 31 0
 424 001a 094B     		ldr	r3, .L28
 425 001c 4822     		movs	r2, #72
 426 001e 1A70     		strb	r2, [r3]
  32:./CY_ISR_Nextion.h ****             }
  33:./CY_ISR_Nextion.h ****             else if (last_byte == 'Z')
  34:./CY_ISR_Nextion.h ****             {
  35:./CY_ISR_Nextion.h ****                Switch_PCInterrupt('Z');
  36:./CY_ISR_Nextion.h ****             }
  37:./CY_ISR_Nextion.h ****             else
  38:./CY_ISR_Nextion.h ****             {
  39:./CY_ISR_Nextion.h ****                 Switch_NextionInterrupt(last_byte);
  40:./CY_ISR_Nextion.h ****             }
  41:./CY_ISR_Nextion.h ****         }
ARM GAS  C:\Users\LOCALA~1\AppData\Local\Temp\cczriwEO.s 			page 11


  42:./CY_ISR_Nextion.h ****     }
 427              		.loc 4 42 0
 428 0020 0AE0     		b	.L27
 429              	.L25:
  33:./CY_ISR_Nextion.h ****             {
 430              		.loc 4 33 0
 431 0022 FB79     		ldrb	r3, [r7, #7]	@ zero_extendqisi2
 432 0024 5A2B     		cmp	r3, #90
 433 0026 03D1     		bne	.L26
  35:./CY_ISR_Nextion.h ****             }
 434              		.loc 4 35 0
 435 0028 5A20     		movs	r0, #90
 436 002a FFF7FEFF 		bl	Switch_PCInterrupt
 437              		.loc 4 42 0
 438 002e 03E0     		b	.L27
 439              	.L26:
  39:./CY_ISR_Nextion.h ****             }
 440              		.loc 4 39 0
 441 0030 FB79     		ldrb	r3, [r7, #7]	@ zero_extendqisi2
 442 0032 1846     		mov	r0, r3
 443 0034 FFF7FEFF 		bl	Switch_NextionInterrupt
 444              	.L27:
 445              		.loc 4 42 0
 446 0038 00BF     		nop
 447 003a 0837     		adds	r7, r7, #8
 448              		.cfi_def_cfa_offset 8
 449 003c BD46     		mov	sp, r7
 450              		.cfi_def_cfa_register 13
 451              		@ sp needed
 452 003e 80BD     		pop	{r7, pc}
 453              	.L29:
 454              		.align	2
 455              	.L28:
 456 0040 00000000 		.word	g_ActivePage
 457              		.cfi_endproc
 458              	.LFE70:
 459              		.size	Nextion_Interrupt, .-Nextion_Interrupt
 460              		.section	.rodata
 461 001a 0000     		.align	2
 462              	.LC3:
 463 001c 23496E74 		.ascii	"#Interrupt (PC): \000"
 463      65727275 
 463      70742028 
 463      5043293A 
 463      2000
 464              		.section	.text.PCUART_Interrupt,"ax",%progbits
 465              		.align	2
 466              		.global	PCUART_Interrupt
 467              		.thumb
 468              		.thumb_func
 469              		.type	PCUART_Interrupt, %function
 470              	PCUART_Interrupt:
 471              	.LFB71:
 472              		.file 5 "./CY_ISR_PCUART.h"
   1:./CY_ISR_PCUART.h **** /* ========================================
   2:./CY_ISR_PCUART.h ****  *
   3:./CY_ISR_PCUART.h ****  * Copyright YOUR COMPANY, THE YEAR
ARM GAS  C:\Users\LOCALA~1\AppData\Local\Temp\cczriwEO.s 			page 12


   4:./CY_ISR_PCUART.h ****  * All Rights Reserved
   5:./CY_ISR_PCUART.h ****  * UNPUBLISHED, LICENSED SOFTWARE.
   6:./CY_ISR_PCUART.h ****  *
   7:./CY_ISR_PCUART.h ****  * CONFIDENTIAL AND PROPRIETARY INFORMATION
   8:./CY_ISR_PCUART.h ****  * WHICH IS THE PROPERTY OF your company.
   9:./CY_ISR_PCUART.h ****  *
  10:./CY_ISR_PCUART.h ****  * ========================================
  11:./CY_ISR_PCUART.h **** */
  12:./CY_ISR_PCUART.h **** #ifndef CY_ISR_PCUART_H
  13:./CY_ISR_PCUART.h ****     #define CY_ISR_PCUART_H
  14:./CY_ISR_PCUART.h ****     
  15:./CY_ISR_PCUART.h ****     #include <Includes.h>
  16:./CY_ISR_PCUART.h ****     
  17:./CY_ISR_PCUART.h ****     CY_ISR(PCUART_Interrupt){
 473              		.loc 5 17 0
 474              		.cfi_startproc
 475              		@ args = 0, pretend = 0, frame = 8
 476              		@ frame_needed = 1, uses_anonymous_args = 0
 477 0000 80B5     		push	{r7, lr}
 478              		.cfi_def_cfa_offset 8
 479              		.cfi_offset 7, -8
 480              		.cfi_offset 14, -4
 481 0002 82B0     		sub	sp, sp, #8
 482              		.cfi_def_cfa_offset 16
 483 0004 00AF     		add	r7, sp, #0
 484              		.cfi_def_cfa_register 7
  18:./CY_ISR_PCUART.h ****         char last_byte = UART_PC_GetByte();
 485              		.loc 5 18 0
 486 0006 FFF7FEFF 		bl	UART_PC_GetByte
 487 000a 0346     		mov	r3, r0
 488 000c FB71     		strb	r3, [r7, #7]
  19:./CY_ISR_PCUART.h ****         #ifdef DEBUG_PCControl_INTERRUPT
  20:./CY_ISR_PCUART.h ****             UART_PC_PutString("#Interrupt (PC): ");
 489              		.loc 5 20 0
 490 000e 0948     		ldr	r0, .L31
 491 0010 FFF7FEFF 		bl	UART_PC_PutString
  21:./CY_ISR_PCUART.h ****             UART_PC_PutChar(last_byte);
 492              		.loc 5 21 0
 493 0014 FB79     		ldrb	r3, [r7, #7]	@ zero_extendqisi2
 494 0016 1846     		mov	r0, r3
 495 0018 FFF7FEFF 		bl	UART_PC_PutChar
  22:./CY_ISR_PCUART.h ****             UART_PC_PutString("\n");
 496              		.loc 5 22 0
 497 001c 0648     		ldr	r0, .L31+4
 498 001e FFF7FEFF 		bl	UART_PC_PutString
  23:./CY_ISR_PCUART.h ****         #endif
  24:./CY_ISR_PCUART.h ****        
  25:./CY_ISR_PCUART.h ****         Switch_PCInterrupt(last_byte);
 499              		.loc 5 25 0
 500 0022 FB79     		ldrb	r3, [r7, #7]	@ zero_extendqisi2
 501 0024 1846     		mov	r0, r3
 502 0026 FFF7FEFF 		bl	Switch_PCInterrupt
  26:./CY_ISR_PCUART.h ****         
  27:./CY_ISR_PCUART.h ****     }
 503              		.loc 5 27 0
 504 002a 00BF     		nop
 505 002c 0837     		adds	r7, r7, #8
ARM GAS  C:\Users\LOCALA~1\AppData\Local\Temp\cczriwEO.s 			page 13


 506              		.cfi_def_cfa_offset 8
 507 002e BD46     		mov	sp, r7
 508              		.cfi_def_cfa_register 13
 509              		@ sp needed
 510 0030 80BD     		pop	{r7, pc}
 511              	.L32:
 512 0032 00BF     		.align	2
 513              	.L31:
 514 0034 1C000000 		.word	.LC3
 515 0038 0C000000 		.word	.LC1
 516              		.cfi_endproc
 517              	.LFE71:
 518              		.size	PCUART_Interrupt, .-PCUART_Interrupt
 519              		.section	.rodata
 520 002e 0000     		.align	2
 521              	.LC4:
 522 0030 23496E74 		.ascii	"#Interrupt (Timer): \012\000"
 522      65727275 
 522      70742028 
 522      54696D65 
 522      72293A20 
 523 0046 0000     		.align	2
 524              	.LC5:
 525 0048 234C6173 		.ascii	"#LaserSwitch\012\000"
 525      65725377 
 525      69746368 
 525      0A00
 526              		.section	.text.Timer_Interrupt,"ax",%progbits
 527              		.align	2
 528              		.global	Timer_Interrupt
 529              		.thumb
 530              		.thumb_func
 531              		.type	Timer_Interrupt, %function
 532              	Timer_Interrupt:
 533              	.LFB72:
 534              		.file 6 "./CY_ISR_Timer.h"
   1:./CY_ISR_Timer.h **** /* ========================================
   2:./CY_ISR_Timer.h ****  *
   3:./CY_ISR_Timer.h ****  * Copyright YOUR COMPANY, THE YEAR
   4:./CY_ISR_Timer.h ****  * All Rights Reserved
   5:./CY_ISR_Timer.h ****  * UNPUBLISHED, LICENSED SOFTWARE.
   6:./CY_ISR_Timer.h ****  *
   7:./CY_ISR_Timer.h ****  * CONFIDENTIAL AND PROPRIETARY INFORMATION
   8:./CY_ISR_Timer.h ****  * WHICH IS THE PROPERTY OF your company.
   9:./CY_ISR_Timer.h ****  *
  10:./CY_ISR_Timer.h ****  * ========================================
  11:./CY_ISR_Timer.h **** */
  12:./CY_ISR_Timer.h **** #ifndef CY_ISR_TIMER_H
  13:./CY_ISR_Timer.h ****     #define CY_ISR_TIMER_H
  14:./CY_ISR_Timer.h ****     #include <Includes.h>
  15:./CY_ISR_Timer.h ****     
  16:./CY_ISR_Timer.h ****     CY_ISR(Timer_Interrupt){
 535              		.loc 6 16 0
 536              		.cfi_startproc
 537              		@ args = 0, pretend = 0, frame = 0
 538              		@ frame_needed = 1, uses_anonymous_args = 0
 539 0000 80B5     		push	{r7, lr}
ARM GAS  C:\Users\LOCALA~1\AppData\Local\Temp\cczriwEO.s 			page 14


 540              		.cfi_def_cfa_offset 8
 541              		.cfi_offset 7, -8
 542              		.cfi_offset 14, -4
 543 0002 00AF     		add	r7, sp, #0
 544              		.cfi_def_cfa_register 7
  17:./CY_ISR_Timer.h ****         #ifdef DEBUG_Timer_Interrupt
  18:./CY_ISR_Timer.h ****             UART_PC_PutString("#Interrupt (Timer): \n");    
 545              		.loc 6 18 0
 546 0004 1048     		ldr	r0, .L37
 547 0006 FFF7FEFF 		bl	UART_PC_PutString
  19:./CY_ISR_Timer.h ****         #endif
  20:./CY_ISR_Timer.h **** 
  21:./CY_ISR_Timer.h ****         t_timer_LaserSwitch++;
 548              		.loc 6 21 0
 549 000a 104B     		ldr	r3, .L37+4
 550 000c 1B68     		ldr	r3, [r3]
 551 000e 0133     		adds	r3, r3, #1
 552 0010 0E4A     		ldr	r2, .L37+4
 553 0012 1360     		str	r3, [r2]
  22:./CY_ISR_Timer.h ****         if (t_timer_LaserSwitch >= p_LaserSwitchPeriod){
 554              		.loc 6 22 0
 555 0014 0D4B     		ldr	r3, .L37+4
 556 0016 1A68     		ldr	r2, [r3]
 557 0018 0D4B     		ldr	r3, .L37+8
 558 001a 1B68     		ldr	r3, [r3]
 559 001c 9A42     		cmp	r2, r3
 560 001e 08DB     		blt	.L34
  23:./CY_ISR_Timer.h ****             f_timer_LaserSwitch = 1;
 561              		.loc 6 23 0
 562 0020 0C4B     		ldr	r3, .L37+12
 563 0022 0122     		movs	r2, #1
 564 0024 1A70     		strb	r2, [r3]
  24:./CY_ISR_Timer.h ****             t_timer_LaserSwitch = 0;
 565              		.loc 6 24 0
 566 0026 094B     		ldr	r3, .L37+4
 567 0028 0022     		movs	r2, #0
 568 002a 1A60     		str	r2, [r3]
  25:./CY_ISR_Timer.h ****             #ifdef DEBUG_Timer_Interrupt
  26:./CY_ISR_Timer.h ****                 UART_PC_PutString("#LaserSwitch\n");
 569              		.loc 6 26 0
 570 002c 0A48     		ldr	r0, .L37+16
 571 002e FFF7FEFF 		bl	UART_PC_PutString
 572              	.L34:
  27:./CY_ISR_Timer.h ****             #endif
  28:./CY_ISR_Timer.h ****         }
  29:./CY_ISR_Timer.h ****         
  30:./CY_ISR_Timer.h ****         if (f_timer_LamellaLifetime_Measuring == 1){
 573              		.loc 6 30 0
 574 0032 0A4B     		ldr	r3, .L37+20
 575 0034 1B68     		ldr	r3, [r3]
 576 0036 012B     		cmp	r3, #1
 577 0038 04D1     		bne	.L36
  31:./CY_ISR_Timer.h ****             t_timer_LamellaLifetime++;
 578              		.loc 6 31 0
 579 003a 094B     		ldr	r3, .L37+24
 580 003c 1B68     		ldr	r3, [r3]
 581 003e 0133     		adds	r3, r3, #1
ARM GAS  C:\Users\LOCALA~1\AppData\Local\Temp\cczriwEO.s 			page 15


 582 0040 074A     		ldr	r2, .L37+24
 583 0042 1360     		str	r3, [r2]
 584              	.L36:
  32:./CY_ISR_Timer.h ****         }
  33:./CY_ISR_Timer.h ****     }
 585              		.loc 6 33 0
 586 0044 00BF     		nop
 587 0046 80BD     		pop	{r7, pc}
 588              	.L38:
 589              		.align	2
 590              	.L37:
 591 0048 30000000 		.word	.LC4
 592 004c 00000000 		.word	t_timer_LaserSwitch
 593 0050 00000000 		.word	p_LaserSwitchPeriod
 594 0054 00000000 		.word	f_timer_LaserSwitch
 595 0058 48000000 		.word	.LC5
 596 005c 00000000 		.word	f_timer_LamellaLifetime_Measuring
 597 0060 00000000 		.word	t_timer_LamellaLifetime
 598              		.cfi_endproc
 599              	.LFE72:
 600              		.size	Timer_Interrupt, .-Timer_Interrupt
 601              		.section	.text.InitADC,"ax",%progbits
 602              		.align	2
 603              		.global	InitADC
 604              		.thumb
 605              		.thumb_func
 606              		.type	InitADC, %function
 607              	InitADC:
 608              	.LFB73:
 609              		.file 7 "./ADC.h"
   1:./ADC.h       **** /* ========================================
   2:./ADC.h       ****  *
   3:./ADC.h       ****  * Copyright YOUR COMPANY, THE YEAR
   4:./ADC.h       ****  * All Rights Reserved
   5:./ADC.h       ****  * UNPUBLISHED, LICENSED SOFTWARE.
   6:./ADC.h       ****  *
   7:./ADC.h       ****  * CONFIDENTIAL AND PROPRIETARY INFORMATION
   8:./ADC.h       ****  * WHICH IS THE PROPERTY OF your company.
   9:./ADC.h       ****  *
  10:./ADC.h       ****  * ========================================
  11:./ADC.h       **** */
  12:./ADC.h       **** #ifndef ADC_H
  13:./ADC.h       ****     #define ADC_H
  14:./ADC.h       ****     
  15:./ADC.h       ****     #include <Includes.h>
  16:./ADC.h       ****     
  17:./ADC.h       ****     void InitADC(){                 // confliting types error message can be ignored
 610              		.loc 7 17 0
 611              		.cfi_startproc
 612              		@ args = 0, pretend = 0, frame = 0
 613              		@ frame_needed = 1, uses_anonymous_args = 0
 614 0000 80B5     		push	{r7, lr}
 615              		.cfi_def_cfa_offset 8
 616              		.cfi_offset 7, -8
 617              		.cfi_offset 14, -4
 618 0002 00AF     		add	r7, sp, #0
 619              		.cfi_def_cfa_register 7
ARM GAS  C:\Users\LOCALA~1\AppData\Local\Temp\cczriwEO.s 			page 16


  18:./ADC.h       ****         TIA_1_Start();
 620              		.loc 7 18 0
 621 0004 FFF7FEFF 		bl	TIA_1_Start
  19:./ADC.h       ****         PGA_Photo_Start();
 622              		.loc 7 19 0
 623 0008 FFF7FEFF 		bl	PGA_Photo_Start
  20:./ADC.h       ****         
  21:./ADC.h       ****         Analog_Digital_Converter_Start();
 624              		.loc 7 21 0
 625 000c FFF7FEFF 		bl	Analog_Digital_Converter_Start
  22:./ADC.h       ****         Analog_Digital_Converter_StartConvert();
 626              		.loc 7 22 0
 627 0010 FFF7FEFF 		bl	Analog_Digital_Converter_StartConvert
  23:./ADC.h       ****     }
 628              		.loc 7 23 0
 629 0014 00BF     		nop
 630 0016 80BD     		pop	{r7, pc}
 631              		.cfi_endproc
 632              	.LFE73:
 633              		.size	InitADC, .-InitADC
 634              		.section	.rodata
 635 0056 0000     		.align	2
 636              	.LC6:
 637 0058 23414443 		.ascii	"#ADC Value: \000"
 637      2056616C 
 637      75653A20 
 637      00
 638              		.section	.text.getADCValue,"ax",%progbits
 639              		.align	2
 640              		.global	getADCValue
 641              		.thumb
 642              		.thumb_func
 643              		.type	getADCValue, %function
 644              	getADCValue:
 645              	.LFB74:
  24:./ADC.h       ****     
  25:./ADC.h       ****     #ifndef TEST_ADC
  26:./ADC.h       ****         int getADCValue(){
 646              		.loc 7 26 0
 647              		.cfi_startproc
 648              		@ args = 0, pretend = 0, frame = 16
 649              		@ frame_needed = 1, uses_anonymous_args = 0
 650 0000 80B5     		push	{r7, lr}
 651              		.cfi_def_cfa_offset 8
 652              		.cfi_offset 7, -8
 653              		.cfi_offset 14, -4
 654 0002 84B0     		sub	sp, sp, #16
 655              		.cfi_def_cfa_offset 24
 656 0004 00AF     		add	r7, sp, #0
 657              		.cfi_def_cfa_register 7
  27:./ADC.h       ****             Analog_Digital_Converter_IsEndConversion(Analog_Digital_Converter_WAIT_FOR_RESULT);
 658              		.loc 7 27 0
 659 0006 0020     		movs	r0, #0
 660 0008 FFF7FEFF 		bl	Analog_Digital_Converter_IsEndConversion
  28:./ADC.h       ****             int tmp = Analog_Digital_Converter_GetResult16();
 661              		.loc 7 28 0
 662 000c FFF7FEFF 		bl	Analog_Digital_Converter_GetResult16
ARM GAS  C:\Users\LOCALA~1\AppData\Local\Temp\cczriwEO.s 			page 17


 663 0010 0346     		mov	r3, r0
 664 0012 FB60     		str	r3, [r7, #12]
  29:./ADC.h       ****             #ifdef DEBUG_ADC
  30:./ADC.h       ****                 char Meldung[10];
  31:./ADC.h       ****                 UART_PC_PutString("#ADC Value: ");
 665              		.loc 7 31 0
 666 0014 0A48     		ldr	r0, .L42
 667 0016 FFF7FEFF 		bl	UART_PC_PutString
  32:./ADC.h       ****                 itoa(tmp, Meldung, 10);
 668              		.loc 7 32 0
 669 001a 3B46     		mov	r3, r7
 670 001c 0A22     		movs	r2, #10
 671 001e 1946     		mov	r1, r3
 672 0020 F868     		ldr	r0, [r7, #12]
 673 0022 FFF7FEFF 		bl	itoa
  33:./ADC.h       ****                 UART_PC_PutString(Meldung);
 674              		.loc 7 33 0
 675 0026 3B46     		mov	r3, r7
 676 0028 1846     		mov	r0, r3
 677 002a FFF7FEFF 		bl	UART_PC_PutString
  34:./ADC.h       ****                 UART_PC_PutString("\n");
 678              		.loc 7 34 0
 679 002e 0548     		ldr	r0, .L42+4
 680 0030 FFF7FEFF 		bl	UART_PC_PutString
  35:./ADC.h       ****             #endif
  36:./ADC.h       ****             return tmp;
 681              		.loc 7 36 0
 682 0034 FB68     		ldr	r3, [r7, #12]
  37:./ADC.h       ****         }
 683              		.loc 7 37 0
 684 0036 1846     		mov	r0, r3
 685 0038 1037     		adds	r7, r7, #16
 686              		.cfi_def_cfa_offset 8
 687 003a BD46     		mov	sp, r7
 688              		.cfi_def_cfa_register 13
 689              		@ sp needed
 690 003c 80BD     		pop	{r7, pc}
 691              	.L43:
 692 003e 00BF     		.align	2
 693              	.L42:
 694 0040 58000000 		.word	.LC6
 695 0044 0C000000 		.word	.LC1
 696              		.cfi_endproc
 697              	.LFE74:
 698              		.size	getADCValue, .-getADCValue
 699              		.section	.text.InitStepper,"ax",%progbits
 700              		.align	2
 701              		.global	InitStepper
 702              		.thumb
 703              		.thumb_func
 704              		.type	InitStepper, %function
 705              	InitStepper:
 706              	.LFB75:
 707              		.file 8 "./Stepper.h"
   1:./Stepper.h   **** /* ========================================
   2:./Stepper.h   ****  *
   3:./Stepper.h   ****  * Copyright YOUR COMPANY, THE YEAR
ARM GAS  C:\Users\LOCALA~1\AppData\Local\Temp\cczriwEO.s 			page 18


   4:./Stepper.h   ****  * All Rights Reserved
   5:./Stepper.h   ****  * UNPUBLISHED, LICENSED SOFTWARE.
   6:./Stepper.h   ****  *
   7:./Stepper.h   ****  * CONFIDENTIAL AND PROPRIETARY INFORMATION
   8:./Stepper.h   ****  * WHICH IS THE PROPERTY OF your company.
   9:./Stepper.h   ****  *
  10:./Stepper.h   ****  * ========================================
  11:./Stepper.h   **** */
  12:./Stepper.h   **** #ifndef STEPPER_H
  13:./Stepper.h   ****     #define STEPPER_H
  14:./Stepper.h   ****         
  15:./Stepper.h   ****     #include <Includes.h>
  16:./Stepper.h   ****     
  17:./Stepper.h   ****     #define RIGHT 1
  18:./Stepper.h   ****     #define LEFT -1
  19:./Stepper.h   ****     
  20:./Stepper.h   ****     #define c_StepsDifferenceHomeSampling 800
  21:./Stepper.h   ****     #define c_StepsOneStepSettings 4
  22:./Stepper.h   ****     
  23:./Stepper.h   ****     
  24:./Stepper.h   ****     #define c_MaxStepperFrequenz 700        // Maximale Frequenz
  25:./Stepper.h   ****     #define c_SigShiftStepper -100          // Verschiebung des Sigmoids
  26:./Stepper.h   ****     #define c_SigRaiseStepper 10            // Anstieg des Sigmoids
  27:./Stepper.h   ****     
  28:./Stepper.h   ****     
  29:./Stepper.h   ****     void InitStepper(){                         // conflicting types error message can be ignored
 708              		.loc 8 29 0
 709              		.cfi_startproc
 710              		@ args = 0, pretend = 0, frame = 0
 711              		@ frame_needed = 1, uses_anonymous_args = 0
 712 0000 80B5     		push	{r7, lr}
 713              		.cfi_def_cfa_offset 8
 714              		.cfi_offset 7, -8
 715              		.cfi_offset 14, -4
 716 0002 00AF     		add	r7, sp, #0
 717              		.cfi_def_cfa_register 7
  30:./Stepper.h   ****         
  31:./Stepper.h   ****         // Betriesart des Steppers festlegen
  32:./Stepper.h   ****         Pin_StepperMS1_Write(0);
 718              		.loc 8 32 0
 719 0004 0020     		movs	r0, #0
 720 0006 FFF7FEFF 		bl	Pin_StepperMS1_Write
  33:./Stepper.h   ****         Pin_StepperMS2_Write(0);
 721              		.loc 8 33 0
 722 000a 0020     		movs	r0, #0
 723 000c FFF7FEFF 		bl	Pin_StepperMS2_Write
  34:./Stepper.h   ****         Pin_StepperMS3_Write(1);
 724              		.loc 8 34 0
 725 0010 0120     		movs	r0, #1
 726 0012 FFF7FEFF 		bl	Pin_StepperMS3_Write
  35:./Stepper.h   ****         //   MODE0 	MODE1 	MODE2 	Microstepping
  36:./Stepper.h   ****         //   0 	    0 	    0 	    Vollschritt
  37:./Stepper.h   ****         //   1 	    0 	    0 	    Halbschritt
  38:./Stepper.h   ****         //   0 	    1 	    1 	    1/4 Schritt
  39:./Stepper.h   ****         //   1 	    1 	    0 	    1/8 Schritt
  40:./Stepper.h   ****         //   0 	    0 	    1 	    1/16 Schritt        x => momentan ausgewählt 
  41:./Stepper.h   ****         //   1 	    0 	    1 	    1/32 Schritt
ARM GAS  C:\Users\LOCALA~1\AppData\Local\Temp\cczriwEO.s 			page 19


  42:./Stepper.h   ****         //   0 	    1 	    1 	    1/32 Schritt
  43:./Stepper.h   ****         //   1 	    1 	    1 	    1/32 Schritt  
  44:./Stepper.h   ****         
  45:./Stepper.h   ****         
  46:./Stepper.h   ****         Pin_StepperEN_Write(0);
 727              		.loc 8 46 0
 728 0016 0020     		movs	r0, #0
 729 0018 FFF7FEFF 		bl	Pin_StepperEN_Write
  47:./Stepper.h   ****         Pin_StepperSLEEP_Write(1);  // Let Stepper activated, otherwise it won't hold the position!
 730              		.loc 8 47 0
 731 001c 0120     		movs	r0, #1
 732 001e FFF7FEFF 		bl	Pin_StepperSLEEP_Write
  48:./Stepper.h   ****         Pin_StepperRES_Write(1);
 733              		.loc 8 48 0
 734 0022 0120     		movs	r0, #1
 735 0024 FFF7FEFF 		bl	Pin_StepperRES_Write
  49:./Stepper.h   ****     }    
 736              		.loc 8 49 0
 737 0028 00BF     		nop
 738 002a 80BD     		pop	{r7, pc}
 739              		.cfi_endproc
 740              	.LFE75:
 741              		.size	InitStepper, .-InitStepper
 742              		.global	__aeabi_dcmpeq
 743              		.section	.text.SetDirection,"ax",%progbits
 744              		.align	2
 745              		.global	SetDirection
 746              		.thumb
 747              		.thumb_func
 748              		.type	SetDirection, %function
 749              	SetDirection:
 750              	.LFB76:
  50:./Stepper.h   ****     
  51:./Stepper.h   ****     void SetDirection(double dir)
  52:./Stepper.h   ****     {
 751              		.loc 8 52 0
 752              		.cfi_startproc
 753              		@ args = 0, pretend = 0, frame = 8
 754              		@ frame_needed = 1, uses_anonymous_args = 0
 755 0000 80B5     		push	{r7, lr}
 756              		.cfi_def_cfa_offset 8
 757              		.cfi_offset 7, -8
 758              		.cfi_offset 14, -4
 759 0002 82B0     		sub	sp, sp, #8
 760              		.cfi_def_cfa_offset 16
 761 0004 00AF     		add	r7, sp, #0
 762              		.cfi_def_cfa_register 7
 763 0006 C7E90001 		strd	r0, [r7]
  53:./Stepper.h   ****         if (dir == RIGHT)
 764              		.loc 8 53 0
 765 000a 4FF00002 		mov	r2, #0
 766 000e 094B     		ldr	r3, .L52
 767 0010 D7E90001 		ldrd	r0, [r7]
 768 0014 FFF7FEFF 		bl	__aeabi_dcmpeq
 769 0018 0346     		mov	r3, r0
 770 001a 002B     		cmp	r3, #0
 771 001c 03D0     		beq	.L50
ARM GAS  C:\Users\LOCALA~1\AppData\Local\Temp\cczriwEO.s 			page 20


  54:./Stepper.h   ****         {
  55:./Stepper.h   ****             Pin_StepperDIR_Write(0);
 772              		.loc 8 55 0
 773 001e 0020     		movs	r0, #0
 774 0020 FFF7FEFF 		bl	Pin_StepperDIR_Write
  56:./Stepper.h   ****         }   
  57:./Stepper.h   ****         else
  58:./Stepper.h   ****         {
  59:./Stepper.h   ****             Pin_StepperDIR_Write(1);
  60:./Stepper.h   ****         }   
  61:./Stepper.h   ****     }
 775              		.loc 8 61 0
 776 0024 02E0     		b	.L51
 777              	.L50:
  59:./Stepper.h   ****         }   
 778              		.loc 8 59 0
 779 0026 0120     		movs	r0, #1
 780 0028 FFF7FEFF 		bl	Pin_StepperDIR_Write
 781              	.L51:
 782              		.loc 8 61 0
 783 002c 00BF     		nop
 784 002e 0837     		adds	r7, r7, #8
 785              		.cfi_def_cfa_offset 8
 786 0030 BD46     		mov	sp, r7
 787              		.cfi_def_cfa_register 13
 788              		@ sp needed
 789 0032 80BD     		pop	{r7, pc}
 790              	.L53:
 791              		.align	2
 792              	.L52:
 793 0034 0000F03F 		.word	1072693248
 794              		.cfi_endproc
 795              	.LFE76:
 796              		.size	SetDirection, .-SetDirection
 797              		.section	.rodata
 798 0065 000000   		.align	2
 799              	.LC7:
 800 0068 234D6F76 		.ascii	"#Move To\012\000"
 800      6520546F 
 800      0A00
 801              		.global	__aeabi_dadd
 802 0072 0000     		.align	2
 803              	.LC8:
 804 0074 53746570 		.ascii	"Step: \000"
 804      3A2000
 805              		.global	__aeabi_i2d
 806              		.global	__aeabi_ddiv
 807              		.global	__aeabi_dcmplt
 808              		.global	__aeabi_dmul
 809              		.global	__aeabi_d2uiz
 810              		.global	__aeabi_dsub
 811              		.section	.text.MoveTo,"ax",%progbits
 812              		.align	2
 813              		.global	MoveTo
 814              		.thumb
 815              		.thumb_func
 816              		.type	MoveTo, %function
ARM GAS  C:\Users\LOCALA~1\AppData\Local\Temp\cczriwEO.s 			page 21


 817              	MoveTo:
 818              	.LFB77:
  62:./Stepper.h   ****     
  63:./Stepper.h   ****     int MoveTo (double steps, double dir)
  64:./Stepper.h   ****     {
 819              		.loc 8 64 0
 820              		.cfi_startproc
 821              		@ args = 0, pretend = 0, frame = 56
 822              		@ frame_needed = 1, uses_anonymous_args = 0
 823 0000 2DE9B043 		push	{r4, r5, r7, r8, r9, lr}
 824              		.cfi_def_cfa_offset 24
 825              		.cfi_offset 4, -24
 826              		.cfi_offset 5, -20
 827              		.cfi_offset 7, -16
 828              		.cfi_offset 8, -12
 829              		.cfi_offset 9, -8
 830              		.cfi_offset 14, -4
 831 0004 8EB0     		sub	sp, sp, #56
 832              		.cfi_def_cfa_offset 80
 833 0006 00AF     		add	r7, sp, #0
 834              		.cfi_def_cfa_register 7
 835 0008 C7E90201 		strd	r0, [r7, #8]
 836 000c C7E90023 		strd	r2, [r7]
  65:./Stepper.h   ****         #ifdef DEBUG_STEPPER
  66:./Stepper.h   ****             UART_PC_PutString("#Move To\n");
 837              		.loc 8 66 0
 838 0010 A548     		ldr	r0, .L64+8
 839 0012 FFF7FEFF 		bl	UART_PC_PutString
  67:./Stepper.h   ****         #endif
  68:./Stepper.h   ****         double f_rel;
  69:./Stepper.h   ****         double t_StepperCLK;
  70:./Stepper.h   ****         steps = steps * 2;
 840              		.loc 8 70 0
 841 0016 D7E90201 		ldrd	r0, [r7, #8]
 842 001a 0246     		mov	r2, r0
 843 001c 0B46     		mov	r3, r1
 844 001e FFF7FEFF 		bl	__aeabi_dadd
 845 0022 0346     		mov	r3, r0
 846 0024 0C46     		mov	r4, r1
 847 0026 C7E90234 		strd	r3, [r7, #8]
  71:./Stepper.h   ****                                    
  72:./Stepper.h   ****         SetDirection(dir);
 848              		.loc 8 72 0
 849 002a D7E90001 		ldrd	r0, [r7]
 850 002e FFF7FEFF 		bl	SetDirection
 851              	.LBB2:
  73:./Stepper.h   ****         
  74:./Stepper.h   ****         for (int i = 0; i < steps; i++)
 852              		.loc 8 74 0
 853 0032 0023     		movs	r3, #0
 854 0034 7B63     		str	r3, [r7, #52]
 855 0036 20E1     		b	.L55
 856              	.L60:
  75:./Stepper.h   ****         {
  76:./Stepper.h   ****             #ifdef DEBUG_STEPPER
  77:./Stepper.h   ****                 if (i%10 == 0)
 857              		.loc 8 77 0
ARM GAS  C:\Users\LOCALA~1\AppData\Local\Temp\cczriwEO.s 			page 22


 858 0038 796B     		ldr	r1, [r7, #52]
 859 003a 9C4B     		ldr	r3, .L64+12
 860 003c 83FB0123 		smull	r2, r3, r3, r1
 861 0040 9A10     		asrs	r2, r3, #2
 862 0042 CB17     		asrs	r3, r1, #31
 863 0044 D21A     		subs	r2, r2, r3
 864 0046 1346     		mov	r3, r2
 865 0048 9B00     		lsls	r3, r3, #2
 866 004a 1344     		add	r3, r3, r2
 867 004c 5B00     		lsls	r3, r3, #1
 868 004e CA1A     		subs	r2, r1, r3
 869 0050 002A     		cmp	r2, #0
 870 0052 11D1     		bne	.L56
 871              	.LBB3:
  78:./Stepper.h   ****                 {
  79:./Stepper.h   ****                     char Meldung[10];
  80:./Stepper.h   ****                     UART_PC_PutString("Step: ");
 872              		.loc 8 80 0
 873 0054 9648     		ldr	r0, .L64+16
 874 0056 FFF7FEFF 		bl	UART_PC_PutString
  81:./Stepper.h   ****                     itoa(i, Meldung, 10);
 875              		.loc 8 81 0
 876 005a 07F11403 		add	r3, r7, #20
 877 005e 0A22     		movs	r2, #10
 878 0060 1946     		mov	r1, r3
 879 0062 786B     		ldr	r0, [r7, #52]
 880 0064 FFF7FEFF 		bl	itoa
  82:./Stepper.h   ****                     UART_PC_PutString(Meldung);
 881              		.loc 8 82 0
 882 0068 07F11403 		add	r3, r7, #20
 883 006c 1846     		mov	r0, r3
 884 006e FFF7FEFF 		bl	UART_PC_PutString
  83:./Stepper.h   ****                     UART_PC_PutString("\n");
 885              		.loc 8 83 0
 886 0072 9048     		ldr	r0, .L64+20
 887 0074 FFF7FEFF 		bl	UART_PC_PutString
 888              	.L56:
 889              	.LBE3:
  84:./Stepper.h   ****                 }
  85:./Stepper.h   ****             #endif
  86:./Stepper.h   ****             // Beschleunigung
  87:./Stepper.h   ****             if (i < steps/2)
 890              		.loc 8 87 0
 891 0078 786B     		ldr	r0, [r7, #52]
 892 007a FFF7FEFF 		bl	__aeabi_i2d
 893 007e 0446     		mov	r4, r0
 894 0080 0D46     		mov	r5, r1
 895 0082 4FF00002 		mov	r2, #0
 896 0086 4FF08043 		mov	r3, #1073741824
 897 008a D7E90201 		ldrd	r0, [r7, #8]
 898 008e FFF7FEFF 		bl	__aeabi_ddiv
 899 0092 0246     		mov	r2, r0
 900 0094 0B46     		mov	r3, r1
 901 0096 2046     		mov	r0, r4
 902 0098 2946     		mov	r1, r5
 903 009a FFF7FEFF 		bl	__aeabi_dcmplt
 904 009e 0346     		mov	r3, r0
ARM GAS  C:\Users\LOCALA~1\AppData\Local\Temp\cczriwEO.s 			page 23


 905 00a0 002B     		cmp	r3, #0
 906 00a2 6CD0     		beq	.L63
  88:./Stepper.h   ****             {
  89:./Stepper.h   ****                 f_rel = (1/(1+exp(-1/(steps/c_SigRaiseStepper)*(i-steps/c_SigShiftStepper)))); 
 907              		.loc 8 89 0
 908 00a4 4FF00002 		mov	r2, #0
 909 00a8 834B     		ldr	r3, .L64+24
 910 00aa D7E90201 		ldrd	r0, [r7, #8]
 911 00ae FFF7FEFF 		bl	__aeabi_ddiv
 912 00b2 0346     		mov	r3, r0
 913 00b4 0C46     		mov	r4, r1
 914 00b6 1A46     		mov	r2, r3
 915 00b8 2346     		mov	r3, r4
 916 00ba 4FF00000 		mov	r0, #0
 917 00be 7F49     		ldr	r1, .L64+28
 918 00c0 FFF7FEFF 		bl	__aeabi_ddiv
 919 00c4 0346     		mov	r3, r0
 920 00c6 0C46     		mov	r4, r1
 921 00c8 2546     		mov	r5, r4
 922 00ca 1C46     		mov	r4, r3
 923 00cc 786B     		ldr	r0, [r7, #52]
 924 00ce FFF7FEFF 		bl	__aeabi_i2d
 925 00d2 8046     		mov	r8, r0
 926 00d4 8946     		mov	r9, r1
 927 00d6 4FF00002 		mov	r2, #0
 928 00da 794B     		ldr	r3, .L64+32
 929 00dc D7E90201 		ldrd	r0, [r7, #8]
 930 00e0 FFF7FEFF 		bl	__aeabi_ddiv
 931 00e4 0246     		mov	r2, r0
 932 00e6 0B46     		mov	r3, r1
 933 00e8 4046     		mov	r0, r8
 934 00ea 4946     		mov	r1, r9
 935 00ec FFF7FEFF 		bl	__aeabi_dadd
 936 00f0 0246     		mov	r2, r0
 937 00f2 0B46     		mov	r3, r1
 938 00f4 2046     		mov	r0, r4
 939 00f6 2946     		mov	r1, r5
 940 00f8 FFF7FEFF 		bl	__aeabi_dmul
 941 00fc 0346     		mov	r3, r0
 942 00fe 0C46     		mov	r4, r1
 943 0100 1846     		mov	r0, r3
 944 0102 2146     		mov	r1, r4
 945 0104 FFF7FEFF 		bl	exp
 946 0108 4FF00002 		mov	r2, #0
 947 010c 6D4B     		ldr	r3, .L64+36
 948 010e FFF7FEFF 		bl	__aeabi_dadd
 949 0112 0346     		mov	r3, r0
 950 0114 0C46     		mov	r4, r1
 951 0116 1A46     		mov	r2, r3
 952 0118 2346     		mov	r3, r4
 953 011a 4FF00000 		mov	r0, #0
 954 011e 6949     		ldr	r1, .L64+36
 955 0120 FFF7FEFF 		bl	__aeabi_ddiv
 956 0124 0346     		mov	r3, r0
 957 0126 0C46     		mov	r4, r1
 958 0128 C7E90A34 		strd	r3, [r7, #40]
  90:./Stepper.h   ****                 Pin_StepperCLK_Write(!Pin_StepperCLK_Read());
ARM GAS  C:\Users\LOCALA~1\AppData\Local\Temp\cczriwEO.s 			page 24


 959              		.loc 8 90 0
 960 012c FFF7FEFF 		bl	Pin_StepperCLK_Read
 961 0130 0346     		mov	r3, r0
 962 0132 002B     		cmp	r3, #0
 963 0134 0CBF     		ite	eq
 964 0136 0123     		moveq	r3, #1
 965 0138 0023     		movne	r3, #0
 966 013a DBB2     		uxtb	r3, r3
 967 013c 1846     		mov	r0, r3
 968 013e FFF7FEFF 		bl	Pin_StepperCLK_Write
  91:./Stepper.h   ****                 t_StepperCLK = 1000000.0/(c_MaxStepperFrequenz*f_rel);            
 969              		.loc 8 91 0
 970 0142 4FF00002 		mov	r2, #0
 971 0146 604B     		ldr	r3, .L64+40
 972 0148 D7E90A01 		ldrd	r0, [r7, #40]
 973 014c FFF7FEFF 		bl	__aeabi_dmul
 974 0150 0346     		mov	r3, r0
 975 0152 0C46     		mov	r4, r1
 976 0154 1A46     		mov	r2, r3
 977 0156 2346     		mov	r3, r4
 978 0158 51A1     		adr	r1, .L64
 979 015a D1E90001 		ldrd	r0, [r1]
 980 015e FFF7FEFF 		bl	__aeabi_ddiv
 981 0162 0346     		mov	r3, r0
 982 0164 0C46     		mov	r4, r1
 983 0166 C7E90834 		strd	r3, [r7, #32]
  92:./Stepper.h   ****                 CyDelayUs((uint16)(t_StepperCLK));     
 984              		.loc 8 92 0
 985 016a D7E90801 		ldrd	r0, [r7, #32]
 986 016e FFF7FEFF 		bl	__aeabi_d2uiz
 987 0172 0346     		mov	r3, r0
 988 0174 9BB2     		uxth	r3, r3
 989 0176 1846     		mov	r0, r3
 990 0178 FFF7FEFF 		bl	CyDelayUs
 991 017c 7AE0     		b	.L59
 992              	.L63:
  93:./Stepper.h   ****             }
  94:./Stepper.h   ****             // Bremsung
  95:./Stepper.h   ****             else
  96:./Stepper.h   ****             {
  97:./Stepper.h   ****                 f_rel = (1.0 - 1/(1+exp(-1/(steps/c_SigRaiseStepper)*(i-steps+steps/c_SigShiftStepp
 993              		.loc 8 97 0
 994 017e 4FF00002 		mov	r2, #0
 995 0182 4D4B     		ldr	r3, .L64+24
 996 0184 D7E90201 		ldrd	r0, [r7, #8]
 997 0188 FFF7FEFF 		bl	__aeabi_ddiv
 998 018c 0346     		mov	r3, r0
 999 018e 0C46     		mov	r4, r1
 1000 0190 1A46     		mov	r2, r3
 1001 0192 2346     		mov	r3, r4
 1002 0194 4FF00000 		mov	r0, #0
 1003 0198 4849     		ldr	r1, .L64+28
 1004 019a FFF7FEFF 		bl	__aeabi_ddiv
 1005 019e 0346     		mov	r3, r0
 1006 01a0 0C46     		mov	r4, r1
 1007 01a2 2546     		mov	r5, r4
 1008 01a4 1C46     		mov	r4, r3
ARM GAS  C:\Users\LOCALA~1\AppData\Local\Temp\cczriwEO.s 			page 25


 1009 01a6 786B     		ldr	r0, [r7, #52]
 1010 01a8 FFF7FEFF 		bl	__aeabi_i2d
 1011 01ac D7E90223 		ldrd	r2, [r7, #8]
 1012 01b0 FFF7FEFF 		bl	__aeabi_dsub
 1013 01b4 0246     		mov	r2, r0
 1014 01b6 0B46     		mov	r3, r1
 1015 01b8 9046     		mov	r8, r2
 1016 01ba 9946     		mov	r9, r3
 1017 01bc 4FF00002 		mov	r2, #0
 1018 01c0 424B     		ldr	r3, .L64+44
 1019 01c2 D7E90201 		ldrd	r0, [r7, #8]
 1020 01c6 FFF7FEFF 		bl	__aeabi_ddiv
 1021 01ca 0246     		mov	r2, r0
 1022 01cc 0B46     		mov	r3, r1
 1023 01ce 4046     		mov	r0, r8
 1024 01d0 4946     		mov	r1, r9
 1025 01d2 FFF7FEFF 		bl	__aeabi_dadd
 1026 01d6 0246     		mov	r2, r0
 1027 01d8 0B46     		mov	r3, r1
 1028 01da 2046     		mov	r0, r4
 1029 01dc 2946     		mov	r1, r5
 1030 01de FFF7FEFF 		bl	__aeabi_dmul
 1031 01e2 0346     		mov	r3, r0
 1032 01e4 0C46     		mov	r4, r1
 1033 01e6 1846     		mov	r0, r3
 1034 01e8 2146     		mov	r1, r4
 1035 01ea FFF7FEFF 		bl	exp
 1036 01ee 4FF00002 		mov	r2, #0
 1037 01f2 344B     		ldr	r3, .L64+36
 1038 01f4 FFF7FEFF 		bl	__aeabi_dadd
 1039 01f8 0346     		mov	r3, r0
 1040 01fa 0C46     		mov	r4, r1
 1041 01fc 1A46     		mov	r2, r3
 1042 01fe 2346     		mov	r3, r4
 1043 0200 4FF00000 		mov	r0, #0
 1044 0204 2F49     		ldr	r1, .L64+36
 1045 0206 FFF7FEFF 		bl	__aeabi_ddiv
 1046 020a 0346     		mov	r3, r0
 1047 020c 0C46     		mov	r4, r1
 1048 020e 1A46     		mov	r2, r3
 1049 0210 2346     		mov	r3, r4
 1050 0212 4FF00000 		mov	r0, #0
 1051 0216 2B49     		ldr	r1, .L64+36
 1052 0218 FFF7FEFF 		bl	__aeabi_dsub
 1053 021c 0346     		mov	r3, r0
 1054 021e 0C46     		mov	r4, r1
 1055 0220 C7E90A34 		strd	r3, [r7, #40]
  98:./Stepper.h   ****                 Pin_StepperCLK_Write(!Pin_StepperCLK_Read());
 1056              		.loc 8 98 0
 1057 0224 FFF7FEFF 		bl	Pin_StepperCLK_Read
 1058 0228 0346     		mov	r3, r0
 1059 022a 002B     		cmp	r3, #0
 1060 022c 0CBF     		ite	eq
 1061 022e 0123     		moveq	r3, #1
 1062 0230 0023     		movne	r3, #0
 1063 0232 DBB2     		uxtb	r3, r3
 1064 0234 1846     		mov	r0, r3
ARM GAS  C:\Users\LOCALA~1\AppData\Local\Temp\cczriwEO.s 			page 26


 1065 0236 FFF7FEFF 		bl	Pin_StepperCLK_Write
  99:./Stepper.h   ****                 t_StepperCLK = 1000000.0/(c_MaxStepperFrequenz*f_rel);            
 1066              		.loc 8 99 0
 1067 023a 4FF00002 		mov	r2, #0
 1068 023e 224B     		ldr	r3, .L64+40
 1069 0240 D7E90A01 		ldrd	r0, [r7, #40]
 1070 0244 FFF7FEFF 		bl	__aeabi_dmul
 1071 0248 0346     		mov	r3, r0
 1072 024a 0C46     		mov	r4, r1
 1073 024c 1A46     		mov	r2, r3
 1074 024e 2346     		mov	r3, r4
 1075 0250 13A1     		adr	r1, .L64
 1076 0252 D1E90001 		ldrd	r0, [r1]
 1077 0256 FFF7FEFF 		bl	__aeabi_ddiv
 1078 025a 0346     		mov	r3, r0
 1079 025c 0C46     		mov	r4, r1
 1080 025e C7E90834 		strd	r3, [r7, #32]
 100:./Stepper.h   ****                 CyDelayUs((uint16)(t_StepperCLK));        
 1081              		.loc 8 100 0
 1082 0262 D7E90801 		ldrd	r0, [r7, #32]
 1083 0266 FFF7FEFF 		bl	__aeabi_d2uiz
 1084 026a 0346     		mov	r3, r0
 1085 026c 9BB2     		uxth	r3, r3
 1086 026e 1846     		mov	r0, r3
 1087 0270 FFF7FEFF 		bl	CyDelayUs
 1088              	.L59:
  74:./Stepper.h   ****         {
 1089              		.loc 8 74 0 discriminator 2
 1090 0274 7B6B     		ldr	r3, [r7, #52]
 1091 0276 0133     		adds	r3, r3, #1
 1092 0278 7B63     		str	r3, [r7, #52]
 1093              	.L55:
  74:./Stepper.h   ****         {
 1094              		.loc 8 74 0 is_stmt 0 discriminator 1
 1095 027a 786B     		ldr	r0, [r7, #52]
 1096 027c FFF7FEFF 		bl	__aeabi_i2d
 1097 0280 D7E90223 		ldrd	r2, [r7, #8]
 1098 0284 FFF7FEFF 		bl	__aeabi_dcmplt
 1099 0288 0346     		mov	r3, r0
 1100 028a 002B     		cmp	r3, #0
 1101 028c 7FF4D4AE 		bne	.L60
 1102              	.LBE2:
 101:./Stepper.h   ****             }
 102:./Stepper.h   ****             
 103:./Stepper.h   ****         }
 104:./Stepper.h   ****         return 0;   
 1103              		.loc 8 104 0 is_stmt 1
 1104 0290 0023     		movs	r3, #0
 105:./Stepper.h   ****     }
 1105              		.loc 8 105 0
 1106 0292 1846     		mov	r0, r3
 1107 0294 3837     		adds	r7, r7, #56
 1108              		.cfi_def_cfa_offset 24
 1109 0296 BD46     		mov	sp, r7
 1110              		.cfi_def_cfa_register 13
 1111              		@ sp needed
 1112 0298 BDE8B083 		pop	{r4, r5, r7, r8, r9, pc}
ARM GAS  C:\Users\LOCALA~1\AppData\Local\Temp\cczriwEO.s 			page 27


 1113              	.L65:
 1114 029c AFF30080 		.align	3
 1115              	.L64:
 1116 02a0 00000000 		.word	0
 1117 02a4 80842E41 		.word	1093567616
 1118 02a8 68000000 		.word	.LC7
 1119 02ac 67666666 		.word	1717986919
 1120 02b0 74000000 		.word	.LC8
 1121 02b4 0C000000 		.word	.LC1
 1122 02b8 00002440 		.word	1076101120
 1123 02bc 0000F0BF 		.word	-1074790400
 1124 02c0 00005940 		.word	1079574528
 1125 02c4 0000F03F 		.word	1072693248
 1126 02c8 00E08540 		.word	1082515456
 1127 02cc 000059C0 		.word	-1067909120
 1128              		.cfi_endproc
 1129              	.LFE77:
 1130              		.size	MoveTo, .-MoveTo
 1131              		.section	.rodata
 1132 007b 00       		.align	2
 1133              	.LC9:
 1134 007c 234D6F76 		.ascii	"#Move To With Constant Speed\012\000"
 1134      6520546F 
 1134      20576974 
 1134      6820436F 
 1134      6E737461 
 1135              		.section	.text.MoveToWithConstantSpeed,"ax",%progbits
 1136              		.align	2
 1137              		.global	MoveToWithConstantSpeed
 1138              		.thumb
 1139              		.thumb_func
 1140              		.type	MoveToWithConstantSpeed, %function
 1141              	MoveToWithConstantSpeed:
 1142              	.LFB78:
 106:./Stepper.h   ****     
 107:./Stepper.h   ****     
 108:./Stepper.h   ****     int MoveToWithConstantSpeed (double steps, double dir)
 109:./Stepper.h   ****     {
 1143              		.loc 8 109 0
 1144              		.cfi_startproc
 1145              		@ args = 0, pretend = 0, frame = 32
 1146              		@ frame_needed = 1, uses_anonymous_args = 0
 1147 0000 90B5     		push	{r4, r7, lr}
 1148              		.cfi_def_cfa_offset 12
 1149              		.cfi_offset 4, -12
 1150              		.cfi_offset 7, -8
 1151              		.cfi_offset 14, -4
 1152 0002 89B0     		sub	sp, sp, #36
 1153              		.cfi_def_cfa_offset 48
 1154 0004 00AF     		add	r7, sp, #0
 1155              		.cfi_def_cfa_register 7
 1156 0006 C7E90201 		strd	r0, [r7, #8]
 1157 000a C7E90023 		strd	r2, [r7]
 110:./Stepper.h   ****         Pin_StepperSLEEP_Write(1);
 1158              		.loc 8 110 0
 1159 000e 0120     		movs	r0, #1
 1160 0010 FFF7FEFF 		bl	Pin_StepperSLEEP_Write
ARM GAS  C:\Users\LOCALA~1\AppData\Local\Temp\cczriwEO.s 			page 28


 111:./Stepper.h   ****         #ifdef DEBUG_STEPPER
 112:./Stepper.h   ****             UART_PC_PutString("#Move To With Constant Speed\n");
 1161              		.loc 8 112 0
 1162 0014 2248     		ldr	r0, .L70+8
 1163 0016 FFF7FEFF 		bl	UART_PC_PutString
 113:./Stepper.h   ****         #endif
 114:./Stepper.h   ****         steps = steps*2;
 1164              		.loc 8 114 0
 1165 001a D7E90201 		ldrd	r0, [r7, #8]
 1166 001e 0246     		mov	r2, r0
 1167 0020 0B46     		mov	r3, r1
 1168 0022 FFF7FEFF 		bl	__aeabi_dadd
 1169 0026 0346     		mov	r3, r0
 1170 0028 0C46     		mov	r4, r1
 1171 002a C7E90234 		strd	r3, [r7, #8]
 115:./Stepper.h   ****         double t_StepperCLK = 27500; // Microseconds
 1172              		.loc 8 115 0
 1173 002e 1AA4     		adr	r4, .L70
 1174 0030 D4E90034 		ldrd	r3, [r4]
 1175 0034 C7E90434 		strd	r3, [r7, #16]
 116:./Stepper.h   ****  
 117:./Stepper.h   ****         
 118:./Stepper.h   ****         SetDirection(dir);
 1176              		.loc 8 118 0
 1177 0038 D7E90001 		ldrd	r0, [r7]
 1178 003c FFF7FEFF 		bl	SetDirection
 1179              	.LBB4:
 119:./Stepper.h   ****         
 120:./Stepper.h   ****         for (int i = 0; i < steps; i++)
 1180              		.loc 8 120 0
 1181 0040 0023     		movs	r3, #0
 1182 0042 FB61     		str	r3, [r7, #28]
 1183 0044 16E0     		b	.L67
 1184              	.L68:
 121:./Stepper.h   ****         {
 122:./Stepper.h   ****             Pin_StepperCLK_Write(!Pin_StepperCLK_Read());
 1185              		.loc 8 122 0 discriminator 3
 1186 0046 FFF7FEFF 		bl	Pin_StepperCLK_Read
 1187 004a 0346     		mov	r3, r0
 1188 004c 002B     		cmp	r3, #0
 1189 004e 0CBF     		ite	eq
 1190 0050 0123     		moveq	r3, #1
 1191 0052 0023     		movne	r3, #0
 1192 0054 DBB2     		uxtb	r3, r3
 1193 0056 1846     		mov	r0, r3
 1194 0058 FFF7FEFF 		bl	Pin_StepperCLK_Write
 123:./Stepper.h   ****             CyDelayUs((uint16)(t_StepperCLK));
 1195              		.loc 8 123 0 discriminator 3
 1196 005c D7E90401 		ldrd	r0, [r7, #16]
 1197 0060 FFF7FEFF 		bl	__aeabi_d2uiz
 1198 0064 0346     		mov	r3, r0
 1199 0066 9BB2     		uxth	r3, r3
 1200 0068 1846     		mov	r0, r3
 1201 006a FFF7FEFF 		bl	CyDelayUs
 120:./Stepper.h   ****         {
 1202              		.loc 8 120 0 discriminator 3
 1203 006e FB69     		ldr	r3, [r7, #28]
ARM GAS  C:\Users\LOCALA~1\AppData\Local\Temp\cczriwEO.s 			page 29


 1204 0070 0133     		adds	r3, r3, #1
 1205 0072 FB61     		str	r3, [r7, #28]
 1206              	.L67:
 120:./Stepper.h   ****         {
 1207              		.loc 8 120 0 is_stmt 0 discriminator 1
 1208 0074 F869     		ldr	r0, [r7, #28]
 1209 0076 FFF7FEFF 		bl	__aeabi_i2d
 1210 007a D7E90223 		ldrd	r2, [r7, #8]
 1211 007e FFF7FEFF 		bl	__aeabi_dcmplt
 1212 0082 0346     		mov	r3, r0
 1213 0084 002B     		cmp	r3, #0
 1214 0086 DED1     		bne	.L68
 1215              	.LBE4:
 124:./Stepper.h   ****             
 125:./Stepper.h   ****         }
 126:./Stepper.h   ****         
 127:./Stepper.h   ****        
 128:./Stepper.h   ****         return 0;
 1216              		.loc 8 128 0 is_stmt 1
 1217 0088 0023     		movs	r3, #0
 129:./Stepper.h   ****     }
 1218              		.loc 8 129 0
 1219 008a 1846     		mov	r0, r3
 1220 008c 2437     		adds	r7, r7, #36
 1221              		.cfi_def_cfa_offset 12
 1222 008e BD46     		mov	sp, r7
 1223              		.cfi_def_cfa_register 13
 1224              		@ sp needed
 1225 0090 90BD     		pop	{r4, r7, pc}
 1226              	.L71:
 1227 0092 00BFAFF3 		.align	3
 1227      0080
 1228              	.L70:
 1229 0098 00000000 		.word	0
 1230 009c 00DBDA40 		.word	1088084736
 1231 00a0 7C000000 		.word	.LC9
 1232              		.cfi_endproc
 1233              	.LFE78:
 1234              		.size	MoveToWithConstantSpeed, .-MoveToWithConstantSpeed
 1235              		.section	.rodata
 1236 009a 0000     		.align	2
 1237              	.LC10:
 1238 009c 234D6F76 		.ascii	"#Move CW\012\000"
 1238      65204357 
 1238      0A00
 1239              		.section	.text.MoveOneStep_CW,"ax",%progbits
 1240              		.align	2
 1241              		.global	MoveOneStep_CW
 1242              		.thumb
 1243              		.thumb_func
 1244              		.type	MoveOneStep_CW, %function
 1245              	MoveOneStep_CW:
 1246              	.LFB79:
 130:./Stepper.h   ****     
 131:./Stepper.h   ****     int MoveOneStep_CW()
 132:./Stepper.h   ****     {
 1247              		.loc 8 132 0
ARM GAS  C:\Users\LOCALA~1\AppData\Local\Temp\cczriwEO.s 			page 30


 1248              		.cfi_startproc
 1249              		@ args = 0, pretend = 0, frame = 0
 1250              		@ frame_needed = 1, uses_anonymous_args = 0
 1251 0000 80B5     		push	{r7, lr}
 1252              		.cfi_def_cfa_offset 8
 1253              		.cfi_offset 7, -8
 1254              		.cfi_offset 14, -4
 1255 0002 00AF     		add	r7, sp, #0
 1256              		.cfi_def_cfa_register 7
 133:./Stepper.h   ****         #ifdef DEBUG_STEPPER
 134:./Stepper.h   ****             UART_PC_PutString("#Move CW\n");
 1257              		.loc 8 134 0
 1258 0004 0648     		ldr	r0, .L74
 1259 0006 FFF7FEFF 		bl	UART_PC_PutString
 135:./Stepper.h   ****         #endif
 136:./Stepper.h   ****         MoveToWithConstantSpeed(c_StepsOneStepSettings, RIGHT);
 1260              		.loc 8 136 0
 1261 000a 4FF00002 		mov	r2, #0
 1262 000e 054B     		ldr	r3, .L74+4
 1263 0010 4FF00000 		mov	r0, #0
 1264 0014 0449     		ldr	r1, .L74+8
 1265 0016 FFF7FEFF 		bl	MoveToWithConstantSpeed
 137:./Stepper.h   ****         return 0;
 1266              		.loc 8 137 0
 1267 001a 0023     		movs	r3, #0
 138:./Stepper.h   ****     }
 1268              		.loc 8 138 0
 1269 001c 1846     		mov	r0, r3
 1270 001e 80BD     		pop	{r7, pc}
 1271              	.L75:
 1272              		.align	2
 1273              	.L74:
 1274 0020 9C000000 		.word	.LC10
 1275 0024 0000F03F 		.word	1072693248
 1276 0028 00001040 		.word	1074790400
 1277              		.cfi_endproc
 1278              	.LFE79:
 1279              		.size	MoveOneStep_CW, .-MoveOneStep_CW
 1280              		.section	.rodata
 1281 00a6 0000     		.align	2
 1282              	.LC11:
 1283 00a8 234D6F76 		.ascii	"#Move CCW\012\000"
 1283      65204343 
 1283      570A00
 1284              		.section	.text.MoveOneStep_CCW,"ax",%progbits
 1285              		.align	2
 1286              		.global	MoveOneStep_CCW
 1287              		.thumb
 1288              		.thumb_func
 1289              		.type	MoveOneStep_CCW, %function
 1290              	MoveOneStep_CCW:
 1291              	.LFB80:
 139:./Stepper.h   ****     
 140:./Stepper.h   ****     int MoveOneStep_CCW()
 141:./Stepper.h   ****     {
 1292              		.loc 8 141 0
 1293              		.cfi_startproc
ARM GAS  C:\Users\LOCALA~1\AppData\Local\Temp\cczriwEO.s 			page 31


 1294              		@ args = 0, pretend = 0, frame = 0
 1295              		@ frame_needed = 1, uses_anonymous_args = 0
 1296 0000 80B5     		push	{r7, lr}
 1297              		.cfi_def_cfa_offset 8
 1298              		.cfi_offset 7, -8
 1299              		.cfi_offset 14, -4
 1300 0002 00AF     		add	r7, sp, #0
 1301              		.cfi_def_cfa_register 7
 142:./Stepper.h   ****         #ifdef DEBUG_STEPPER
 143:./Stepper.h   ****             UART_PC_PutString("#Move CCW\n");
 1302              		.loc 8 143 0
 1303 0004 0648     		ldr	r0, .L78
 1304 0006 FFF7FEFF 		bl	UART_PC_PutString
 144:./Stepper.h   ****         #endif
 145:./Stepper.h   ****         MoveToWithConstantSpeed(c_StepsOneStepSettings, LEFT);
 1305              		.loc 8 145 0
 1306 000a 4FF00002 		mov	r2, #0
 1307 000e 054B     		ldr	r3, .L78+4
 1308 0010 4FF00000 		mov	r0, #0
 1309 0014 0449     		ldr	r1, .L78+8
 1310 0016 FFF7FEFF 		bl	MoveToWithConstantSpeed
 146:./Stepper.h   ****         return 0;
 1311              		.loc 8 146 0
 1312 001a 0023     		movs	r3, #0
 147:./Stepper.h   ****     }
 1313              		.loc 8 147 0
 1314 001c 1846     		mov	r0, r3
 1315 001e 80BD     		pop	{r7, pc}
 1316              	.L79:
 1317              		.align	2
 1318              	.L78:
 1319 0020 A8000000 		.word	.LC11
 1320 0024 0000F0BF 		.word	-1074790400
 1321 0028 00001040 		.word	1074790400
 1322              		.cfi_endproc
 1323              	.LFE80:
 1324              		.size	MoveOneStep_CCW, .-MoveOneStep_CCW
 1325              		.section	.rodata
 1326 00b3 00       		.align	2
 1327              	.LC12:
 1328 00b4 234D6F76 		.ascii	"#Move 90 CW\012\000"
 1328      65203930 
 1328      2043570A 
 1328      00
 1329              		.section	.text.Move90Degree_CW,"ax",%progbits
 1330              		.align	2
 1331              		.global	Move90Degree_CW
 1332              		.thumb
 1333              		.thumb_func
 1334              		.type	Move90Degree_CW, %function
 1335              	Move90Degree_CW:
 1336              	.LFB81:
 148:./Stepper.h   ****     
 149:./Stepper.h   ****     int Move90Degree_CW()
 150:./Stepper.h   ****     {
 1337              		.loc 8 150 0
 1338              		.cfi_startproc
ARM GAS  C:\Users\LOCALA~1\AppData\Local\Temp\cczriwEO.s 			page 32


 1339              		@ args = 0, pretend = 0, frame = 0
 1340              		@ frame_needed = 1, uses_anonymous_args = 0
 1341 0000 80B5     		push	{r7, lr}
 1342              		.cfi_def_cfa_offset 8
 1343              		.cfi_offset 7, -8
 1344              		.cfi_offset 14, -4
 1345 0002 00AF     		add	r7, sp, #0
 1346              		.cfi_def_cfa_register 7
 151:./Stepper.h   ****         #ifdef DEBUG_STEPPER
 152:./Stepper.h   ****             UART_PC_PutString("#Move 90 CW\n");
 1347              		.loc 8 152 0
 1348 0004 0648     		ldr	r0, .L82
 1349 0006 FFF7FEFF 		bl	UART_PC_PutString
 153:./Stepper.h   ****         #endif
 154:./Stepper.h   ****         MoveTo(c_StepsDifferenceHomeSampling, RIGHT);
 1350              		.loc 8 154 0
 1351 000a 4FF00002 		mov	r2, #0
 1352 000e 054B     		ldr	r3, .L82+4
 1353 0010 4FF00000 		mov	r0, #0
 1354 0014 0449     		ldr	r1, .L82+8
 1355 0016 FFF7FEFF 		bl	MoveTo
 155:./Stepper.h   ****         return 0;
 1356              		.loc 8 155 0
 1357 001a 0023     		movs	r3, #0
 156:./Stepper.h   ****     }
 1358              		.loc 8 156 0
 1359 001c 1846     		mov	r0, r3
 1360 001e 80BD     		pop	{r7, pc}
 1361              	.L83:
 1362              		.align	2
 1363              	.L82:
 1364 0020 B4000000 		.word	.LC12
 1365 0024 0000F03F 		.word	1072693248
 1366 0028 00008940 		.word	1082720256
 1367              		.cfi_endproc
 1368              	.LFE81:
 1369              		.size	Move90Degree_CW, .-Move90Degree_CW
 1370              		.section	.rodata
 1371 00c1 000000   		.align	2
 1372              	.LC13:
 1373 00c4 234D6F76 		.ascii	"#Move 90 CCW\012\000"
 1373      65203930 
 1373      20434357 
 1373      0A00
 1374              		.section	.text.Move90Degree_CCW,"ax",%progbits
 1375              		.align	2
 1376              		.global	Move90Degree_CCW
 1377              		.thumb
 1378              		.thumb_func
 1379              		.type	Move90Degree_CCW, %function
 1380              	Move90Degree_CCW:
 1381              	.LFB82:
 157:./Stepper.h   ****     
 158:./Stepper.h   ****     int Move90Degree_CCW()
 159:./Stepper.h   ****     {
 1382              		.loc 8 159 0
 1383              		.cfi_startproc
ARM GAS  C:\Users\LOCALA~1\AppData\Local\Temp\cczriwEO.s 			page 33


 1384              		@ args = 0, pretend = 0, frame = 0
 1385              		@ frame_needed = 1, uses_anonymous_args = 0
 1386 0000 80B5     		push	{r7, lr}
 1387              		.cfi_def_cfa_offset 8
 1388              		.cfi_offset 7, -8
 1389              		.cfi_offset 14, -4
 1390 0002 00AF     		add	r7, sp, #0
 1391              		.cfi_def_cfa_register 7
 160:./Stepper.h   ****         #ifdef DEBUG_STEPPER
 161:./Stepper.h   ****             UART_PC_PutString("#Move 90 CCW\n");
 1392              		.loc 8 161 0
 1393 0004 0648     		ldr	r0, .L86
 1394 0006 FFF7FEFF 		bl	UART_PC_PutString
 162:./Stepper.h   ****         #endif
 163:./Stepper.h   ****         MoveTo(c_StepsDifferenceHomeSampling, LEFT);
 1395              		.loc 8 163 0
 1396 000a 4FF00002 		mov	r2, #0
 1397 000e 054B     		ldr	r3, .L86+4
 1398 0010 4FF00000 		mov	r0, #0
 1399 0014 0449     		ldr	r1, .L86+8
 1400 0016 FFF7FEFF 		bl	MoveTo
 164:./Stepper.h   ****         return 0;
 1401              		.loc 8 164 0
 1402 001a 0023     		movs	r3, #0
 165:./Stepper.h   ****     }
 1403              		.loc 8 165 0
 1404 001c 1846     		mov	r0, r3
 1405 001e 80BD     		pop	{r7, pc}
 1406              	.L87:
 1407              		.align	2
 1408              	.L86:
 1409 0020 C4000000 		.word	.LC13
 1410 0024 0000F0BF 		.word	-1074790400
 1411 0028 00008940 		.word	1082720256
 1412              		.cfi_endproc
 1413              	.LFE82:
 1414              		.size	Move90Degree_CCW, .-Move90Degree_CCW
 1415              		.section	.text.Toggle_LASER1,"ax",%progbits
 1416              		.align	2
 1417              		.global	Toggle_LASER1
 1418              		.thumb
 1419              		.thumb_func
 1420              		.type	Toggle_LASER1, %function
 1421              	Toggle_LASER1:
 1422              	.LFB83:
 1423              		.file 9 "./Laser.h"
   1:./Laser.h     **** /* ========================================
   2:./Laser.h     ****  *
   3:./Laser.h     ****  * Copyright YOUR COMPANY, THE YEAR
   4:./Laser.h     ****  * All Rights Reserved
   5:./Laser.h     ****  * UNPUBLISHED, LICENSED SOFTWARE.
   6:./Laser.h     ****  *
   7:./Laser.h     ****  * CONFIDENTIAL AND PROPRIETARY INFORMATION
   8:./Laser.h     ****  * WHICH IS THE PROPERTY OF your company.
   9:./Laser.h     ****  *
  10:./Laser.h     ****  * ========================================
  11:./Laser.h     **** */
ARM GAS  C:\Users\LOCALA~1\AppData\Local\Temp\cczriwEO.s 			page 34


  12:./Laser.h     **** 
  13:./Laser.h     **** #ifndef LASER_H
  14:./Laser.h     ****     #define LASER_H
  15:./Laser.h     ****     
  16:./Laser.h     ****         #include <Includes.h>
  17:./Laser.h     ****         int Toggle_LASER1()
  18:./Laser.h     ****         {
 1424              		.loc 9 18 0
 1425              		.cfi_startproc
 1426              		@ args = 0, pretend = 0, frame = 0
 1427              		@ frame_needed = 1, uses_anonymous_args = 0
 1428 0000 80B5     		push	{r7, lr}
 1429              		.cfi_def_cfa_offset 8
 1430              		.cfi_offset 7, -8
 1431              		.cfi_offset 14, -4
 1432 0002 00AF     		add	r7, sp, #0
 1433              		.cfi_def_cfa_register 7
  19:./Laser.h     ****             Pin_LaserEN1_Write(!Pin_LaserEN1_Read());
 1434              		.loc 9 19 0
 1435 0004 FFF7FEFF 		bl	Pin_LaserEN1_Read
 1436 0008 0346     		mov	r3, r0
 1437 000a 002B     		cmp	r3, #0
 1438 000c 0CBF     		ite	eq
 1439 000e 0123     		moveq	r3, #1
 1440 0010 0023     		movne	r3, #0
 1441 0012 DBB2     		uxtb	r3, r3
 1442 0014 1846     		mov	r0, r3
 1443 0016 FFF7FEFF 		bl	Pin_LaserEN1_Write
  20:./Laser.h     ****             return Pin_LaserEN1_Read();
 1444              		.loc 9 20 0
 1445 001a FFF7FEFF 		bl	Pin_LaserEN1_Read
 1446 001e 0346     		mov	r3, r0
  21:./Laser.h     ****         }
 1447              		.loc 9 21 0
 1448 0020 1846     		mov	r0, r3
 1449 0022 80BD     		pop	{r7, pc}
 1450              		.cfi_endproc
 1451              	.LFE83:
 1452              		.size	Toggle_LASER1, .-Toggle_LASER1
 1453              		.section	.text.LASER1,"ax",%progbits
 1454              		.align	2
 1455              		.global	LASER1
 1456              		.thumb
 1457              		.thumb_func
 1458              		.type	LASER1, %function
 1459              	LASER1:
 1460              	.LFB84:
  22:./Laser.h     ****         
  23:./Laser.h     ****          
  24:./Laser.h     ****         int LASER1(int Status)
  25:./Laser.h     ****         {
 1461              		.loc 9 25 0
 1462              		.cfi_startproc
 1463              		@ args = 0, pretend = 0, frame = 8
 1464              		@ frame_needed = 1, uses_anonymous_args = 0
 1465 0000 80B5     		push	{r7, lr}
 1466              		.cfi_def_cfa_offset 8
ARM GAS  C:\Users\LOCALA~1\AppData\Local\Temp\cczriwEO.s 			page 35


 1467              		.cfi_offset 7, -8
 1468              		.cfi_offset 14, -4
 1469 0002 82B0     		sub	sp, sp, #8
 1470              		.cfi_def_cfa_offset 16
 1471 0004 00AF     		add	r7, sp, #0
 1472              		.cfi_def_cfa_register 7
 1473 0006 7860     		str	r0, [r7, #4]
  26:./Laser.h     ****             Pin_LaserEN1_Write(Status);   
 1474              		.loc 9 26 0
 1475 0008 7B68     		ldr	r3, [r7, #4]
 1476 000a DBB2     		uxtb	r3, r3
 1477 000c 1846     		mov	r0, r3
 1478 000e FFF7FEFF 		bl	Pin_LaserEN1_Write
  27:./Laser.h     ****             #ifdef DEBUG_LASER
  28:./Laser.h     ****                 UART_PC_PutString("Laser 1 toggled\n");
  29:./Laser.h     ****             #endif
  30:./Laser.h     ****             return 0;
 1479              		.loc 9 30 0
 1480 0012 0023     		movs	r3, #0
  31:./Laser.h     ****         }
 1481              		.loc 9 31 0
 1482 0014 1846     		mov	r0, r3
 1483 0016 0837     		adds	r7, r7, #8
 1484              		.cfi_def_cfa_offset 8
 1485 0018 BD46     		mov	sp, r7
 1486              		.cfi_def_cfa_register 13
 1487              		@ sp needed
 1488 001a 80BD     		pop	{r7, pc}
 1489              		.cfi_endproc
 1490              	.LFE84:
 1491              		.size	LASER1, .-LASER1
 1492              		.section	.text.GET_LASER1,"ax",%progbits
 1493              		.align	2
 1494              		.global	GET_LASER1
 1495              		.thumb
 1496              		.thumb_func
 1497              		.type	GET_LASER1, %function
 1498              	GET_LASER1:
 1499              	.LFB85:
  32:./Laser.h     ****         
  33:./Laser.h     ****         int GET_LASER1()
  34:./Laser.h     ****         {
 1500              		.loc 9 34 0
 1501              		.cfi_startproc
 1502              		@ args = 0, pretend = 0, frame = 0
 1503              		@ frame_needed = 1, uses_anonymous_args = 0
 1504 0000 80B5     		push	{r7, lr}
 1505              		.cfi_def_cfa_offset 8
 1506              		.cfi_offset 7, -8
 1507              		.cfi_offset 14, -4
 1508 0002 00AF     		add	r7, sp, #0
 1509              		.cfi_def_cfa_register 7
  35:./Laser.h     ****             return Pin_LaserEN1_Read();
 1510              		.loc 9 35 0
 1511 0004 FFF7FEFF 		bl	Pin_LaserEN1_Read
 1512 0008 0346     		mov	r3, r0
  36:./Laser.h     ****         }
ARM GAS  C:\Users\LOCALA~1\AppData\Local\Temp\cczriwEO.s 			page 36


 1513              		.loc 9 36 0
 1514 000a 1846     		mov	r0, r3
 1515 000c 80BD     		pop	{r7, pc}
 1516              		.cfi_endproc
 1517              	.LFE85:
 1518              		.size	GET_LASER1, .-GET_LASER1
 1519 000e 00BF     		.section	.text.Toggle_LASER2,"ax",%progbits
 1520              		.align	2
 1521              		.global	Toggle_LASER2
 1522              		.thumb
 1523              		.thumb_func
 1524              		.type	Toggle_LASER2, %function
 1525              	Toggle_LASER2:
 1526              	.LFB86:
  37:./Laser.h     ****         
  38:./Laser.h     ****         int Toggle_LASER2()
  39:./Laser.h     ****         {
 1527              		.loc 9 39 0
 1528              		.cfi_startproc
 1529              		@ args = 0, pretend = 0, frame = 0
 1530              		@ frame_needed = 1, uses_anonymous_args = 0
 1531 0000 80B5     		push	{r7, lr}
 1532              		.cfi_def_cfa_offset 8
 1533              		.cfi_offset 7, -8
 1534              		.cfi_offset 14, -4
 1535 0002 00AF     		add	r7, sp, #0
 1536              		.cfi_def_cfa_register 7
  40:./Laser.h     ****             Pin_LaserEN2_Write(!Pin_LaserEN2_Read());
 1537              		.loc 9 40 0
 1538 0004 FFF7FEFF 		bl	Pin_LaserEN2_Read
 1539 0008 0346     		mov	r3, r0
 1540 000a 002B     		cmp	r3, #0
 1541 000c 0CBF     		ite	eq
 1542 000e 0123     		moveq	r3, #1
 1543 0010 0023     		movne	r3, #0
 1544 0012 DBB2     		uxtb	r3, r3
 1545 0014 1846     		mov	r0, r3
 1546 0016 FFF7FEFF 		bl	Pin_LaserEN2_Write
  41:./Laser.h     ****             return Pin_LaserEN2_Read();
 1547              		.loc 9 41 0
 1548 001a FFF7FEFF 		bl	Pin_LaserEN2_Read
 1549 001e 0346     		mov	r3, r0
  42:./Laser.h     ****         }
 1550              		.loc 9 42 0
 1551 0020 1846     		mov	r0, r3
 1552 0022 80BD     		pop	{r7, pc}
 1553              		.cfi_endproc
 1554              	.LFE86:
 1555              		.size	Toggle_LASER2, .-Toggle_LASER2
 1556              		.section	.text.LASER2,"ax",%progbits
 1557              		.align	2
 1558              		.global	LASER2
 1559              		.thumb
 1560              		.thumb_func
 1561              		.type	LASER2, %function
 1562              	LASER2:
 1563              	.LFB87:
ARM GAS  C:\Users\LOCALA~1\AppData\Local\Temp\cczriwEO.s 			page 37


  43:./Laser.h     ****         
  44:./Laser.h     ****         int LASER2(int Status)
  45:./Laser.h     ****         {
 1564              		.loc 9 45 0
 1565              		.cfi_startproc
 1566              		@ args = 0, pretend = 0, frame = 8
 1567              		@ frame_needed = 1, uses_anonymous_args = 0
 1568 0000 80B5     		push	{r7, lr}
 1569              		.cfi_def_cfa_offset 8
 1570              		.cfi_offset 7, -8
 1571              		.cfi_offset 14, -4
 1572 0002 82B0     		sub	sp, sp, #8
 1573              		.cfi_def_cfa_offset 16
 1574 0004 00AF     		add	r7, sp, #0
 1575              		.cfi_def_cfa_register 7
 1576 0006 7860     		str	r0, [r7, #4]
  46:./Laser.h     ****             Pin_LaserEN2_Write(Status);
 1577              		.loc 9 46 0
 1578 0008 7B68     		ldr	r3, [r7, #4]
 1579 000a DBB2     		uxtb	r3, r3
 1580 000c 1846     		mov	r0, r3
 1581 000e FFF7FEFF 		bl	Pin_LaserEN2_Write
  47:./Laser.h     ****             #ifdef DEBUG_LASER
  48:./Laser.h     ****                 UART_PC_PutString("Laser 2 toggled\n");
  49:./Laser.h     ****             #endif
  50:./Laser.h     ****             return 0;
 1582              		.loc 9 50 0
 1583 0012 0023     		movs	r3, #0
  51:./Laser.h     ****         }
 1584              		.loc 9 51 0
 1585 0014 1846     		mov	r0, r3
 1586 0016 0837     		adds	r7, r7, #8
 1587              		.cfi_def_cfa_offset 8
 1588 0018 BD46     		mov	sp, r7
 1589              		.cfi_def_cfa_register 13
 1590              		@ sp needed
 1591 001a 80BD     		pop	{r7, pc}
 1592              		.cfi_endproc
 1593              	.LFE87:
 1594              		.size	LASER2, .-LASER2
 1595              		.section	.text.GET_LASER2,"ax",%progbits
 1596              		.align	2
 1597              		.global	GET_LASER2
 1598              		.thumb
 1599              		.thumb_func
 1600              		.type	GET_LASER2, %function
 1601              	GET_LASER2:
 1602              	.LFB88:
  52:./Laser.h     ****         
  53:./Laser.h     ****         int GET_LASER2()
  54:./Laser.h     ****         {
 1603              		.loc 9 54 0
 1604              		.cfi_startproc
 1605              		@ args = 0, pretend = 0, frame = 0
 1606              		@ frame_needed = 1, uses_anonymous_args = 0
 1607 0000 80B5     		push	{r7, lr}
 1608              		.cfi_def_cfa_offset 8
ARM GAS  C:\Users\LOCALA~1\AppData\Local\Temp\cczriwEO.s 			page 38


 1609              		.cfi_offset 7, -8
 1610              		.cfi_offset 14, -4
 1611 0002 00AF     		add	r7, sp, #0
 1612              		.cfi_def_cfa_register 7
  55:./Laser.h     ****             return Pin_LaserEN2_Read();
 1613              		.loc 9 55 0
 1614 0004 FFF7FEFF 		bl	Pin_LaserEN2_Read
 1615 0008 0346     		mov	r3, r0
  56:./Laser.h     ****         }
 1616              		.loc 9 56 0
 1617 000a 1846     		mov	r0, r3
 1618 000c 80BD     		pop	{r7, pc}
 1619              		.cfi_endproc
 1620              	.LFE88:
 1621              		.size	GET_LASER2, .-GET_LASER2
 1622 000e 00BF     		.section	.text.Toggle_LASER3,"ax",%progbits
 1623              		.align	2
 1624              		.global	Toggle_LASER3
 1625              		.thumb
 1626              		.thumb_func
 1627              		.type	Toggle_LASER3, %function
 1628              	Toggle_LASER3:
 1629              	.LFB89:
  57:./Laser.h     ****         
  58:./Laser.h     ****         int Toggle_LASER3()
  59:./Laser.h     ****         {
 1630              		.loc 9 59 0
 1631              		.cfi_startproc
 1632              		@ args = 0, pretend = 0, frame = 0
 1633              		@ frame_needed = 1, uses_anonymous_args = 0
 1634 0000 80B5     		push	{r7, lr}
 1635              		.cfi_def_cfa_offset 8
 1636              		.cfi_offset 7, -8
 1637              		.cfi_offset 14, -4
 1638 0002 00AF     		add	r7, sp, #0
 1639              		.cfi_def_cfa_register 7
  60:./Laser.h     ****             Pin_IRLaserEN_Write(!Pin_IRLaserEN_Read());
 1640              		.loc 9 60 0
 1641 0004 FFF7FEFF 		bl	Pin_IRLaserEN_Read
 1642 0008 0346     		mov	r3, r0
 1643 000a 002B     		cmp	r3, #0
 1644 000c 0CBF     		ite	eq
 1645 000e 0123     		moveq	r3, #1
 1646 0010 0023     		movne	r3, #0
 1647 0012 DBB2     		uxtb	r3, r3
 1648 0014 1846     		mov	r0, r3
 1649 0016 FFF7FEFF 		bl	Pin_IRLaserEN_Write
  61:./Laser.h     ****             return Pin_IRLaserEN_Read();
 1650              		.loc 9 61 0
 1651 001a FFF7FEFF 		bl	Pin_IRLaserEN_Read
 1652 001e 0346     		mov	r3, r0
  62:./Laser.h     ****         }
 1653              		.loc 9 62 0
 1654 0020 1846     		mov	r0, r3
 1655 0022 80BD     		pop	{r7, pc}
 1656              		.cfi_endproc
 1657              	.LFE89:
ARM GAS  C:\Users\LOCALA~1\AppData\Local\Temp\cczriwEO.s 			page 39


 1658              		.size	Toggle_LASER3, .-Toggle_LASER3
 1659              		.section	.text.LASER3,"ax",%progbits
 1660              		.align	2
 1661              		.global	LASER3
 1662              		.thumb
 1663              		.thumb_func
 1664              		.type	LASER3, %function
 1665              	LASER3:
 1666              	.LFB90:
  63:./Laser.h     ****         
  64:./Laser.h     ****         int LASER3(int Status)
  65:./Laser.h     ****         {
 1667              		.loc 9 65 0
 1668              		.cfi_startproc
 1669              		@ args = 0, pretend = 0, frame = 8
 1670              		@ frame_needed = 1, uses_anonymous_args = 0
 1671 0000 80B5     		push	{r7, lr}
 1672              		.cfi_def_cfa_offset 8
 1673              		.cfi_offset 7, -8
 1674              		.cfi_offset 14, -4
 1675 0002 82B0     		sub	sp, sp, #8
 1676              		.cfi_def_cfa_offset 16
 1677 0004 00AF     		add	r7, sp, #0
 1678              		.cfi_def_cfa_register 7
 1679 0006 7860     		str	r0, [r7, #4]
  66:./Laser.h     ****             Pin_IRLaserEN_Write(Status);
 1680              		.loc 9 66 0
 1681 0008 7B68     		ldr	r3, [r7, #4]
 1682 000a DBB2     		uxtb	r3, r3
 1683 000c 1846     		mov	r0, r3
 1684 000e FFF7FEFF 		bl	Pin_IRLaserEN_Write
  67:./Laser.h     ****             #ifdef DEBUG_LASER
  68:./Laser.h     ****                 UART_PC_PutString("Laser 3 toggled\n");
  69:./Laser.h     ****             #endif
  70:./Laser.h     ****             return 0;
 1685              		.loc 9 70 0
 1686 0012 0023     		movs	r3, #0
  71:./Laser.h     ****         }
 1687              		.loc 9 71 0
 1688 0014 1846     		mov	r0, r3
 1689 0016 0837     		adds	r7, r7, #8
 1690              		.cfi_def_cfa_offset 8
 1691 0018 BD46     		mov	sp, r7
 1692              		.cfi_def_cfa_register 13
 1693              		@ sp needed
 1694 001a 80BD     		pop	{r7, pc}
 1695              		.cfi_endproc
 1696              	.LFE90:
 1697              		.size	LASER3, .-LASER3
 1698              		.section	.text.GET_LASER3,"ax",%progbits
 1699              		.align	2
 1700              		.global	GET_LASER3
 1701              		.thumb
 1702              		.thumb_func
 1703              		.type	GET_LASER3, %function
 1704              	GET_LASER3:
 1705              	.LFB91:
ARM GAS  C:\Users\LOCALA~1\AppData\Local\Temp\cczriwEO.s 			page 40


  72:./Laser.h     ****         
  73:./Laser.h     ****         int GET_LASER3()
  74:./Laser.h     ****         {
 1706              		.loc 9 74 0
 1707              		.cfi_startproc
 1708              		@ args = 0, pretend = 0, frame = 0
 1709              		@ frame_needed = 1, uses_anonymous_args = 0
 1710 0000 80B5     		push	{r7, lr}
 1711              		.cfi_def_cfa_offset 8
 1712              		.cfi_offset 7, -8
 1713              		.cfi_offset 14, -4
 1714 0002 00AF     		add	r7, sp, #0
 1715              		.cfi_def_cfa_register 7
  75:./Laser.h     ****             return Pin_IRLaserEN_Read();
 1716              		.loc 9 75 0
 1717 0004 FFF7FEFF 		bl	Pin_IRLaserEN_Read
 1718 0008 0346     		mov	r3, r0
  76:./Laser.h     ****         }
 1719              		.loc 9 76 0
 1720 000a 1846     		mov	r0, r3
 1721 000c 80BD     		pop	{r7, pc}
 1722              		.cfi_endproc
 1723              	.LFE91:
 1724              		.size	GET_LASER3, .-GET_LASER3
 1725 000e 00BF     		.section	.text.home,"ax",%progbits
 1726              		.align	2
 1727              		.global	home
 1728              		.thumb
 1729              		.thumb_func
 1730              		.type	home, %function
 1731              	home:
 1732              	.LFB92:
 1733              		.file 10 "./Home.h"
   1:./Home.h      **** /* ========================================
   2:./Home.h      ****  *
   3:./Home.h      ****  * Copyright YOUR COMPANY, THE YEAR
   4:./Home.h      ****  * All Rights Reserved
   5:./Home.h      ****  * UNPUBLISHED, LICENSED SOFTWARE.
   6:./Home.h      ****  *
   7:./Home.h      ****  * CONFIDENTIAL AND PROPRIETARY INFORMATION
   8:./Home.h      ****  * WHICH IS THE PROPERTY OF your company.
   9:./Home.h      ****  *
  10:./Home.h      ****  * ========================================
  11:./Home.h      **** */
  12:./Home.h      **** #ifndef HOME_H
  13:./Home.h      ****     #define HOME_H
  14:./Home.h      ****     
  15:./Home.h      ****     #include <Includes.h>
  16:./Home.h      ****     
  17:./Home.h      ****     
  18:./Home.h      ****     void home(){
 1734              		.loc 10 18 0
 1735              		.cfi_startproc
 1736              		@ args = 0, pretend = 0, frame = 0
 1737              		@ frame_needed = 1, uses_anonymous_args = 0
 1738 0000 80B5     		push	{r7, lr}
 1739              		.cfi_def_cfa_offset 8
ARM GAS  C:\Users\LOCALA~1\AppData\Local\Temp\cczriwEO.s 			page 41


 1740              		.cfi_offset 7, -8
 1741              		.cfi_offset 14, -4
 1742 0002 00AF     		add	r7, sp, #0
 1743              		.cfi_def_cfa_register 7
  19:./Home.h      ****         
  20:./Home.h      ****         // Turn laser off, for safety reasons
  21:./Home.h      ****         
  22:./Home.h      ****         LASER1(0); 
 1744              		.loc 10 22 0
 1745 0004 0020     		movs	r0, #0
 1746 0006 FFF7FEFF 		bl	LASER1
  23:./Home.h      ****         LASER2(0);
 1747              		.loc 10 23 0
 1748 000a 0020     		movs	r0, #0
 1749 000c FFF7FEFF 		bl	LASER2
  24:./Home.h      ****         LASER3(0);
 1750              		.loc 10 24 0
 1751 0010 0020     		movs	r0, #0
 1752 0012 FFF7FEFF 		bl	LASER3
  25:./Home.h      ****         CyDelay(100);
 1753              		.loc 10 25 0
 1754 0016 6420     		movs	r0, #100
 1755 0018 FFF7FEFF 		bl	CyDelay
  26:./Home.h      ****         
  27:./Home.h      ****         // Waiting for input
  28:./Home.h      ****         
  29:./Home.h      ****     }
 1756              		.loc 10 29 0
 1757 001c 00BF     		nop
 1758 001e 80BD     		pop	{r7, pc}
 1759              		.cfi_endproc
 1760              	.LFE92:
 1761              		.size	home, .-home
 1762              		.section	.text.Toggle_RELAIS1,"ax",%progbits
 1763              		.align	2
 1764              		.global	Toggle_RELAIS1
 1765              		.thumb
 1766              		.thumb_func
 1767              		.type	Toggle_RELAIS1, %function
 1768              	Toggle_RELAIS1:
 1769              	.LFB93:
 1770              		.file 11 "./Relais.h"
   1:./Relais.h    **** /* ========================================
   2:./Relais.h    ****  *
   3:./Relais.h    ****  * Copyright YOUR COMPANY, THE YEAR
   4:./Relais.h    ****  * All Rights Reserved
   5:./Relais.h    ****  * UNPUBLISHED, LICENSED SOFTWARE.
   6:./Relais.h    ****  *
   7:./Relais.h    ****  * CONFIDENTIAL AND PROPRIETARY INFORMATION
   8:./Relais.h    ****  * WHICH IS THE PROPERTY OF your company.
   9:./Relais.h    ****  *
  10:./Relais.h    ****  * ========================================
  11:./Relais.h    **** */
  12:./Relais.h    **** 
  13:./Relais.h    **** #ifndef RELAIS_H
  14:./Relais.h    ****     #define RELAIS_H
  15:./Relais.h    ****     
ARM GAS  C:\Users\LOCALA~1\AppData\Local\Temp\cczriwEO.s 			page 42


  16:./Relais.h    ****         #include <Includes.h>
  17:./Relais.h    ****         int Toggle_RELAIS1()
  18:./Relais.h    ****         {
 1771              		.loc 11 18 0
 1772              		.cfi_startproc
 1773              		@ args = 0, pretend = 0, frame = 0
 1774              		@ frame_needed = 1, uses_anonymous_args = 0
 1775 0000 80B5     		push	{r7, lr}
 1776              		.cfi_def_cfa_offset 8
 1777              		.cfi_offset 7, -8
 1778              		.cfi_offset 14, -4
 1779 0002 00AF     		add	r7, sp, #0
 1780              		.cfi_def_cfa_register 7
  19:./Relais.h    ****             Pin_Relais1_Write(!Pin_Relais1_Read());
 1781              		.loc 11 19 0
 1782 0004 FFF7FEFF 		bl	Pin_Relais1_Read
 1783 0008 0346     		mov	r3, r0
 1784 000a 002B     		cmp	r3, #0
 1785 000c 0CBF     		ite	eq
 1786 000e 0123     		moveq	r3, #1
 1787 0010 0023     		movne	r3, #0
 1788 0012 DBB2     		uxtb	r3, r3
 1789 0014 1846     		mov	r0, r3
 1790 0016 FFF7FEFF 		bl	Pin_Relais1_Write
  20:./Relais.h    ****             return !Pin_Relais1_Read();
 1791              		.loc 11 20 0
 1792 001a FFF7FEFF 		bl	Pin_Relais1_Read
 1793 001e 0346     		mov	r3, r0
 1794 0020 002B     		cmp	r3, #0
 1795 0022 0CBF     		ite	eq
 1796 0024 0123     		moveq	r3, #1
 1797 0026 0023     		movne	r3, #0
 1798 0028 DBB2     		uxtb	r3, r3
  21:./Relais.h    ****         }
 1799              		.loc 11 21 0
 1800 002a 1846     		mov	r0, r3
 1801 002c 80BD     		pop	{r7, pc}
 1802              		.cfi_endproc
 1803              	.LFE93:
 1804              		.size	Toggle_RELAIS1, .-Toggle_RELAIS1
 1805 002e 00BF     		.section	.text.Toggle_RELAIS2,"ax",%progbits
 1806              		.align	2
 1807              		.global	Toggle_RELAIS2
 1808              		.thumb
 1809              		.thumb_func
 1810              		.type	Toggle_RELAIS2, %function
 1811              	Toggle_RELAIS2:
 1812              	.LFB94:
  22:./Relais.h    ****         
  23:./Relais.h    ****         int Toggle_RELAIS2()
  24:./Relais.h    ****         {
 1813              		.loc 11 24 0
 1814              		.cfi_startproc
 1815              		@ args = 0, pretend = 0, frame = 0
 1816              		@ frame_needed = 1, uses_anonymous_args = 0
 1817 0000 80B5     		push	{r7, lr}
 1818              		.cfi_def_cfa_offset 8
ARM GAS  C:\Users\LOCALA~1\AppData\Local\Temp\cczriwEO.s 			page 43


 1819              		.cfi_offset 7, -8
 1820              		.cfi_offset 14, -4
 1821 0002 00AF     		add	r7, sp, #0
 1822              		.cfi_def_cfa_register 7
  25:./Relais.h    ****             Pin_Relais2_Write(!Pin_Relais2_Read());
 1823              		.loc 11 25 0
 1824 0004 FFF7FEFF 		bl	Pin_Relais2_Read
 1825 0008 0346     		mov	r3, r0
 1826 000a 002B     		cmp	r3, #0
 1827 000c 0CBF     		ite	eq
 1828 000e 0123     		moveq	r3, #1
 1829 0010 0023     		movne	r3, #0
 1830 0012 DBB2     		uxtb	r3, r3
 1831 0014 1846     		mov	r0, r3
 1832 0016 FFF7FEFF 		bl	Pin_Relais2_Write
  26:./Relais.h    ****             return !Pin_Relais2_Read();
 1833              		.loc 11 26 0
 1834 001a FFF7FEFF 		bl	Pin_Relais2_Read
 1835 001e 0346     		mov	r3, r0
 1836 0020 002B     		cmp	r3, #0
 1837 0022 0CBF     		ite	eq
 1838 0024 0123     		moveq	r3, #1
 1839 0026 0023     		movne	r3, #0
 1840 0028 DBB2     		uxtb	r3, r3
  27:./Relais.h    ****         }
 1841              		.loc 11 27 0
 1842 002a 1846     		mov	r0, r3
 1843 002c 80BD     		pop	{r7, pc}
 1844              		.cfi_endproc
 1845              	.LFE94:
 1846              		.size	Toggle_RELAIS2, .-Toggle_RELAIS2
 1847 002e 00BF     		.section	.text.RELAIS1,"ax",%progbits
 1848              		.align	2
 1849              		.global	RELAIS1
 1850              		.thumb
 1851              		.thumb_func
 1852              		.type	RELAIS1, %function
 1853              	RELAIS1:
 1854              	.LFB95:
  28:./Relais.h    ****          
  29:./Relais.h    ****         int RELAIS1(int Status)
  30:./Relais.h    ****         {
 1855              		.loc 11 30 0
 1856              		.cfi_startproc
 1857              		@ args = 0, pretend = 0, frame = 8
 1858              		@ frame_needed = 1, uses_anonymous_args = 0
 1859 0000 80B5     		push	{r7, lr}
 1860              		.cfi_def_cfa_offset 8
 1861              		.cfi_offset 7, -8
 1862              		.cfi_offset 14, -4
 1863 0002 82B0     		sub	sp, sp, #8
 1864              		.cfi_def_cfa_offset 16
 1865 0004 00AF     		add	r7, sp, #0
 1866              		.cfi_def_cfa_register 7
 1867 0006 7860     		str	r0, [r7, #4]
  31:./Relais.h    ****             Pin_Relais1_Write(!Status);   
 1868              		.loc 11 31 0
ARM GAS  C:\Users\LOCALA~1\AppData\Local\Temp\cczriwEO.s 			page 44


 1869 0008 7B68     		ldr	r3, [r7, #4]
 1870 000a 002B     		cmp	r3, #0
 1871 000c 0CBF     		ite	eq
 1872 000e 0123     		moveq	r3, #1
 1873 0010 0023     		movne	r3, #0
 1874 0012 DBB2     		uxtb	r3, r3
 1875 0014 1846     		mov	r0, r3
 1876 0016 FFF7FEFF 		bl	Pin_Relais1_Write
  32:./Relais.h    ****             #ifdef DEBUG_Relais
  33:./Relais.h    ****                 UART_PC_PutString("Relais 1 toggled\n");
  34:./Relais.h    ****             #endif
  35:./Relais.h    ****             return 0;
 1877              		.loc 11 35 0
 1878 001a 0023     		movs	r3, #0
  36:./Relais.h    ****         }
 1879              		.loc 11 36 0
 1880 001c 1846     		mov	r0, r3
 1881 001e 0837     		adds	r7, r7, #8
 1882              		.cfi_def_cfa_offset 8
 1883 0020 BD46     		mov	sp, r7
 1884              		.cfi_def_cfa_register 13
 1885              		@ sp needed
 1886 0022 80BD     		pop	{r7, pc}
 1887              		.cfi_endproc
 1888              	.LFE95:
 1889              		.size	RELAIS1, .-RELAIS1
 1890              		.section	.text.RELAIS2,"ax",%progbits
 1891              		.align	2
 1892              		.global	RELAIS2
 1893              		.thumb
 1894              		.thumb_func
 1895              		.type	RELAIS2, %function
 1896              	RELAIS2:
 1897              	.LFB96:
  37:./Relais.h    ****         
  38:./Relais.h    ****         int RELAIS2(int Status)
  39:./Relais.h    ****         {
 1898              		.loc 11 39 0
 1899              		.cfi_startproc
 1900              		@ args = 0, pretend = 0, frame = 8
 1901              		@ frame_needed = 1, uses_anonymous_args = 0
 1902 0000 80B5     		push	{r7, lr}
 1903              		.cfi_def_cfa_offset 8
 1904              		.cfi_offset 7, -8
 1905              		.cfi_offset 14, -4
 1906 0002 82B0     		sub	sp, sp, #8
 1907              		.cfi_def_cfa_offset 16
 1908 0004 00AF     		add	r7, sp, #0
 1909              		.cfi_def_cfa_register 7
 1910 0006 7860     		str	r0, [r7, #4]
  40:./Relais.h    ****             Pin_Relais2_Write(!Status);
 1911              		.loc 11 40 0
 1912 0008 7B68     		ldr	r3, [r7, #4]
 1913 000a 002B     		cmp	r3, #0
 1914 000c 0CBF     		ite	eq
 1915 000e 0123     		moveq	r3, #1
 1916 0010 0023     		movne	r3, #0
ARM GAS  C:\Users\LOCALA~1\AppData\Local\Temp\cczriwEO.s 			page 45


 1917 0012 DBB2     		uxtb	r3, r3
 1918 0014 1846     		mov	r0, r3
 1919 0016 FFF7FEFF 		bl	Pin_Relais2_Write
  41:./Relais.h    ****             #ifdef DEBUG_Relais
  42:./Relais.h    ****                 UART_PC_PutString("Relais 2 toggled\n");
  43:./Relais.h    ****             #endif
  44:./Relais.h    ****             return 0;
 1920              		.loc 11 44 0
 1921 001a 0023     		movs	r3, #0
  45:./Relais.h    ****         }
 1922              		.loc 11 45 0
 1923 001c 1846     		mov	r0, r3
 1924 001e 0837     		adds	r7, r7, #8
 1925              		.cfi_def_cfa_offset 8
 1926 0020 BD46     		mov	sp, r7
 1927              		.cfi_def_cfa_register 13
 1928              		@ sp needed
 1929 0022 80BD     		pop	{r7, pc}
 1930              		.cfi_endproc
 1931              	.LFE96:
 1932              		.size	RELAIS2, .-RELAIS2
 1933              		.section	.text.GET_RELAIS1,"ax",%progbits
 1934              		.align	2
 1935              		.global	GET_RELAIS1
 1936              		.thumb
 1937              		.thumb_func
 1938              		.type	GET_RELAIS1, %function
 1939              	GET_RELAIS1:
 1940              	.LFB97:
  46:./Relais.h    ****         
  47:./Relais.h    ****         int GET_RELAIS1()
  48:./Relais.h    ****         {
 1941              		.loc 11 48 0
 1942              		.cfi_startproc
 1943              		@ args = 0, pretend = 0, frame = 0
 1944              		@ frame_needed = 1, uses_anonymous_args = 0
 1945 0000 80B5     		push	{r7, lr}
 1946              		.cfi_def_cfa_offset 8
 1947              		.cfi_offset 7, -8
 1948              		.cfi_offset 14, -4
 1949 0002 00AF     		add	r7, sp, #0
 1950              		.cfi_def_cfa_register 7
  49:./Relais.h    ****             return !Pin_Relais1_Read();
 1951              		.loc 11 49 0
 1952 0004 FFF7FEFF 		bl	Pin_Relais1_Read
 1953 0008 0346     		mov	r3, r0
 1954 000a 002B     		cmp	r3, #0
 1955 000c 0CBF     		ite	eq
 1956 000e 0123     		moveq	r3, #1
 1957 0010 0023     		movne	r3, #0
 1958 0012 DBB2     		uxtb	r3, r3
  50:./Relais.h    ****         }
 1959              		.loc 11 50 0
 1960 0014 1846     		mov	r0, r3
 1961 0016 80BD     		pop	{r7, pc}
 1962              		.cfi_endproc
 1963              	.LFE97:
ARM GAS  C:\Users\LOCALA~1\AppData\Local\Temp\cczriwEO.s 			page 46


 1964              		.size	GET_RELAIS1, .-GET_RELAIS1
 1965              		.section	.text.GET_RELAIS2,"ax",%progbits
 1966              		.align	2
 1967              		.global	GET_RELAIS2
 1968              		.thumb
 1969              		.thumb_func
 1970              		.type	GET_RELAIS2, %function
 1971              	GET_RELAIS2:
 1972              	.LFB98:
  51:./Relais.h    ****         
  52:./Relais.h    ****         int GET_RELAIS2()
  53:./Relais.h    ****         {
 1973              		.loc 11 53 0
 1974              		.cfi_startproc
 1975              		@ args = 0, pretend = 0, frame = 0
 1976              		@ frame_needed = 1, uses_anonymous_args = 0
 1977 0000 80B5     		push	{r7, lr}
 1978              		.cfi_def_cfa_offset 8
 1979              		.cfi_offset 7, -8
 1980              		.cfi_offset 14, -4
 1981 0002 00AF     		add	r7, sp, #0
 1982              		.cfi_def_cfa_register 7
  54:./Relais.h    ****             return !Pin_Relais2_Read();
 1983              		.loc 11 54 0
 1984 0004 FFF7FEFF 		bl	Pin_Relais2_Read
 1985 0008 0346     		mov	r3, r0
 1986 000a 002B     		cmp	r3, #0
 1987 000c 0CBF     		ite	eq
 1988 000e 0123     		moveq	r3, #1
 1989 0010 0023     		movne	r3, #0
 1990 0012 DBB2     		uxtb	r3, r3
  55:./Relais.h    ****         }
 1991              		.loc 11 55 0
 1992 0014 1846     		mov	r0, r3
 1993 0016 80BD     		pop	{r7, pc}
 1994              		.cfi_endproc
 1995              	.LFE98:
 1996              		.size	GET_RELAIS2, .-GET_RELAIS2
 1997              		.section	.rodata
 1998 00d2 0000     		.align	2
 1999              	.LC14:
 2000 00d4 52657175 		.ascii	"Request\012\000"
 2000      6573740A 
 2000      00
 2001              		.section	.text.requestConnection,"ax",%progbits
 2002              		.align	2
 2003              		.global	requestConnection
 2004              		.thumb
 2005              		.thumb_func
 2006              		.type	requestConnection, %function
 2007              	requestConnection:
 2008              	.LFB99:
 2009              		.file 12 "./PCControl.h"
   1:./PCControl.h **** /* ========================================
   2:./PCControl.h ****  *
   3:./PCControl.h ****  * Copyright YOUR COMPANY, THE YEAR
   4:./PCControl.h ****  * All Rights Reserved
ARM GAS  C:\Users\LOCALA~1\AppData\Local\Temp\cczriwEO.s 			page 47


   5:./PCControl.h ****  * UNPUBLISHED, LICENSED SOFTWARE.
   6:./PCControl.h ****  *
   7:./PCControl.h ****  * CONFIDENTIAL AND PROPRIETARY INFORMATION
   8:./PCControl.h ****  * WHICH IS THE PROPERTY OF your company.
   9:./PCControl.h ****  *
  10:./PCControl.h ****  * ========================================
  11:./PCControl.h **** */
  12:./PCControl.h **** 
  13:./PCControl.h **** #ifndef PCControl_H
  14:./PCControl.h ****     #define PCControl_H
  15:./PCControl.h ****     
  16:./PCControl.h ****     #include <Includes.h>
  17:./PCControl.h ****     
  18:./PCControl.h ****     void requestConnection()
  19:./PCControl.h ****     {
 2010              		.loc 12 19 0
 2011              		.cfi_startproc
 2012              		@ args = 0, pretend = 0, frame = 0
 2013              		@ frame_needed = 1, uses_anonymous_args = 0
 2014 0000 80B5     		push	{r7, lr}
 2015              		.cfi_def_cfa_offset 8
 2016              		.cfi_offset 7, -8
 2017              		.cfi_offset 14, -4
 2018 0002 00AF     		add	r7, sp, #0
 2019              		.cfi_def_cfa_register 7
  20:./PCControl.h ****         UART_PC_PutString("Request\n");
 2020              		.loc 12 20 0
 2021 0004 0248     		ldr	r0, .L120
 2022 0006 FFF7FEFF 		bl	UART_PC_PutString
  21:./PCControl.h ****     }
 2023              		.loc 12 21 0
 2024 000a 00BF     		nop
 2025 000c 80BD     		pop	{r7, pc}
 2026              	.L121:
 2027 000e 00BF     		.align	2
 2028              	.L120:
 2029 0010 D4000000 		.word	.LC14
 2030              		.cfi_endproc
 2031              	.LFE99:
 2032              		.size	requestConnection, .-requestConnection
 2033              		.section	.rodata
 2034 00dd 000000   		.align	2
 2035              	.LC15:
 2036 00e0 2D00     		.ascii	"-\000"
 2037              		.section	.text.sendLASERxReturn,"ax",%progbits
 2038              		.align	2
 2039              		.global	sendLASERxReturn
 2040              		.thumb
 2041              		.thumb_func
 2042              		.type	sendLASERxReturn, %function
 2043              	sendLASERxReturn:
 2044              	.LFB100:
  22:./PCControl.h ****     
  23:./PCControl.h ****     void sendLASERxReturn(int x,int tmp){
 2045              		.loc 12 23 0
 2046              		.cfi_startproc
 2047              		@ args = 0, pretend = 0, frame = 24
ARM GAS  C:\Users\LOCALA~1\AppData\Local\Temp\cczriwEO.s 			page 48


 2048              		@ frame_needed = 1, uses_anonymous_args = 0
 2049 0000 80B5     		push	{r7, lr}
 2050              		.cfi_def_cfa_offset 8
 2051              		.cfi_offset 7, -8
 2052              		.cfi_offset 14, -4
 2053 0002 86B0     		sub	sp, sp, #24
 2054              		.cfi_def_cfa_offset 32
 2055 0004 00AF     		add	r7, sp, #0
 2056              		.cfi_def_cfa_register 7
 2057 0006 7860     		str	r0, [r7, #4]
 2058 0008 3960     		str	r1, [r7]
  24:./PCControl.h ****         char Meldung[10];
  25:./PCControl.h ****         itoa(x, Meldung, 10);
 2059              		.loc 12 25 0
 2060 000a 07F10C03 		add	r3, r7, #12
 2061 000e 0A22     		movs	r2, #10
 2062 0010 1946     		mov	r1, r3
 2063 0012 7868     		ldr	r0, [r7, #4]
 2064 0014 FFF7FEFF 		bl	itoa
  26:./PCControl.h ****         UART_PC_PutString(Meldung);
 2065              		.loc 12 26 0
 2066 0018 07F10C03 		add	r3, r7, #12
 2067 001c 1846     		mov	r0, r3
 2068 001e FFF7FEFF 		bl	UART_PC_PutString
  27:./PCControl.h ****         UART_PC_PutString("-");
 2069              		.loc 12 27 0
 2070 0022 0B48     		ldr	r0, .L123
 2071 0024 FFF7FEFF 		bl	UART_PC_PutString
  28:./PCControl.h ****         itoa(tmp, Meldung, 10);
 2072              		.loc 12 28 0
 2073 0028 07F10C03 		add	r3, r7, #12
 2074 002c 0A22     		movs	r2, #10
 2075 002e 1946     		mov	r1, r3
 2076 0030 3868     		ldr	r0, [r7]
 2077 0032 FFF7FEFF 		bl	itoa
  29:./PCControl.h ****         UART_PC_PutString(Meldung);
 2078              		.loc 12 29 0
 2079 0036 07F10C03 		add	r3, r7, #12
 2080 003a 1846     		mov	r0, r3
 2081 003c FFF7FEFF 		bl	UART_PC_PutString
  30:./PCControl.h ****         UART_PC_PutString("\n");
 2082              		.loc 12 30 0
 2083 0040 0448     		ldr	r0, .L123+4
 2084 0042 FFF7FEFF 		bl	UART_PC_PutString
  31:./PCControl.h ****     }    
 2085              		.loc 12 31 0
 2086 0046 00BF     		nop
 2087 0048 1837     		adds	r7, r7, #24
 2088              		.cfi_def_cfa_offset 8
 2089 004a BD46     		mov	sp, r7
 2090              		.cfi_def_cfa_register 13
 2091              		@ sp needed
 2092 004c 80BD     		pop	{r7, pc}
 2093              	.L124:
 2094 004e 00BF     		.align	2
 2095              	.L123:
 2096 0050 E0000000 		.word	.LC15
ARM GAS  C:\Users\LOCALA~1\AppData\Local\Temp\cczriwEO.s 			page 49


 2097 0054 0C000000 		.word	.LC1
 2098              		.cfi_endproc
 2099              	.LFE100:
 2100              		.size	sendLASERxReturn, .-sendLASERxReturn
 2101              		.section	.text.sendRelaisxReturn,"ax",%progbits
 2102              		.align	2
 2103              		.global	sendRelaisxReturn
 2104              		.thumb
 2105              		.thumb_func
 2106              		.type	sendRelaisxReturn, %function
 2107              	sendRelaisxReturn:
 2108              	.LFB101:
  32:./PCControl.h ****     
  33:./PCControl.h ****     void sendRelaisxReturn(int x, int tmp){
 2109              		.loc 12 33 0
 2110              		.cfi_startproc
 2111              		@ args = 0, pretend = 0, frame = 24
 2112              		@ frame_needed = 1, uses_anonymous_args = 0
 2113 0000 80B5     		push	{r7, lr}
 2114              		.cfi_def_cfa_offset 8
 2115              		.cfi_offset 7, -8
 2116              		.cfi_offset 14, -4
 2117 0002 86B0     		sub	sp, sp, #24
 2118              		.cfi_def_cfa_offset 32
 2119 0004 00AF     		add	r7, sp, #0
 2120              		.cfi_def_cfa_register 7
 2121 0006 7860     		str	r0, [r7, #4]
 2122 0008 3960     		str	r1, [r7]
  34:./PCControl.h ****         char Meldung[10];
  35:./PCControl.h ****         itoa(x, Meldung, 10);
 2123              		.loc 12 35 0
 2124 000a 07F10C03 		add	r3, r7, #12
 2125 000e 0A22     		movs	r2, #10
 2126 0010 1946     		mov	r1, r3
 2127 0012 7868     		ldr	r0, [r7, #4]
 2128 0014 FFF7FEFF 		bl	itoa
  36:./PCControl.h ****         UART_PC_PutString(Meldung);
 2129              		.loc 12 36 0
 2130 0018 07F10C03 		add	r3, r7, #12
 2131 001c 1846     		mov	r0, r3
 2132 001e FFF7FEFF 		bl	UART_PC_PutString
  37:./PCControl.h ****         UART_PC_PutString("-");
 2133              		.loc 12 37 0
 2134 0022 0B48     		ldr	r0, .L126
 2135 0024 FFF7FEFF 		bl	UART_PC_PutString
  38:./PCControl.h ****         itoa(tmp, Meldung, 10);
 2136              		.loc 12 38 0
 2137 0028 07F10C03 		add	r3, r7, #12
 2138 002c 0A22     		movs	r2, #10
 2139 002e 1946     		mov	r1, r3
 2140 0030 3868     		ldr	r0, [r7]
 2141 0032 FFF7FEFF 		bl	itoa
  39:./PCControl.h ****         UART_PC_PutString(Meldung);
 2142              		.loc 12 39 0
 2143 0036 07F10C03 		add	r3, r7, #12
 2144 003a 1846     		mov	r0, r3
 2145 003c FFF7FEFF 		bl	UART_PC_PutString
ARM GAS  C:\Users\LOCALA~1\AppData\Local\Temp\cczriwEO.s 			page 50


  40:./PCControl.h ****         UART_PC_PutString("\n");
 2146              		.loc 12 40 0
 2147 0040 0448     		ldr	r0, .L126+4
 2148 0042 FFF7FEFF 		bl	UART_PC_PutString
  41:./PCControl.h ****     }
 2149              		.loc 12 41 0
 2150 0046 00BF     		nop
 2151 0048 1837     		adds	r7, r7, #24
 2152              		.cfi_def_cfa_offset 8
 2153 004a BD46     		mov	sp, r7
 2154              		.cfi_def_cfa_register 13
 2155              		@ sp needed
 2156 004c 80BD     		pop	{r7, pc}
 2157              	.L127:
 2158 004e 00BF     		.align	2
 2159              	.L126:
 2160 0050 E0000000 		.word	.LC15
 2161 0054 0C000000 		.word	.LC1
 2162              		.cfi_endproc
 2163              	.LFE101:
 2164              		.size	sendRelaisxReturn, .-sendRelaisxReturn
 2165              		.section	.rodata
 2166 00e2 0000     		.align	2
 2167              	.LC16:
 2168 00e4 430A00   		.ascii	"C\012\000"
 2169              		.section	.text.sendCompletion,"ax",%progbits
 2170              		.align	2
 2171              		.global	sendCompletion
 2172              		.thumb
 2173              		.thumb_func
 2174              		.type	sendCompletion, %function
 2175              	sendCompletion:
 2176              	.LFB102:
  42:./PCControl.h **** // Change of 19062019   
  43:./PCControl.h **** //    void sendLASER1Return(int tmp){
  44:./PCControl.h **** //        char Meldung[10];
  45:./PCControl.h **** //        UART_PC_PutString("1-");
  46:./PCControl.h **** //        itoa(tmp, Meldung, 10);
  47:./PCControl.h **** //        UART_PC_PutString(Meldung);
  48:./PCControl.h **** //        UART_PC_PutString("\n");
  49:./PCControl.h **** //    }    
  50:./PCControl.h ****  
  51:./PCControl.h **** //    void sendLASER2Return(int tmp){
  52:./PCControl.h **** //        char Meldung[10];
  53:./PCControl.h **** //        UART_PC_PutString("2-");
  54:./PCControl.h **** //        itoa(tmp, Meldung, 10);
  55:./PCControl.h **** //        UART_PC_PutString(Meldung);
  56:./PCControl.h **** //        UART_PC_PutString("\n");
  57:./PCControl.h **** //    }
  58:./PCControl.h **** //    
  59:./PCControl.h **** //    void sendLASER3Return(int tmp){
  60:./PCControl.h **** //        char Meldung[10];
  61:./PCControl.h **** //        UART_PC_PutString("3-");
  62:./PCControl.h **** //        itoa(tmp, Meldung, 10);
  63:./PCControl.h **** //        UART_PC_PutString(Meldung);
  64:./PCControl.h **** //        UART_PC_PutString("\n");
  65:./PCControl.h **** //    }
ARM GAS  C:\Users\LOCALA~1\AppData\Local\Temp\cczriwEO.s 			page 51


  66:./PCControl.h **** 
  67:./PCControl.h ****     
  68:./PCControl.h **** //   void sendRelais1Return(int tmp){
  69:./PCControl.h **** //       char Meldung[10];
  70:./PCControl.h **** //       UART_PC_PutString("9-");
  71:./PCControl.h **** //       itoa(tmp, Meldung, 10);
  72:./PCControl.h **** //       UART_PC_PutString(Meldung);
  73:./PCControl.h **** //       UART_PC_PutString("\n");
  74:./PCControl.h **** //   }
  75:./PCControl.h **** //   
  76:./PCControl.h **** //   void sendRelais2Return(int tmp){
  77:./PCControl.h **** //       char Meldung[10];
  78:./PCControl.h **** //       UART_PC_PutString("0-");
  79:./PCControl.h **** //       itoa(tmp, Meldung, 10);
  80:./PCControl.h **** //       UART_PC_PutString(Meldung);
  81:./PCControl.h **** //       UART_PC_PutString("\n");
  82:./PCControl.h **** //   }
  83:./PCControl.h ****     
  84:./PCControl.h ****     void sendCompletion()
  85:./PCControl.h ****     {
 2177              		.loc 12 85 0
 2178              		.cfi_startproc
 2179              		@ args = 0, pretend = 0, frame = 0
 2180              		@ frame_needed = 1, uses_anonymous_args = 0
 2181 0000 80B5     		push	{r7, lr}
 2182              		.cfi_def_cfa_offset 8
 2183              		.cfi_offset 7, -8
 2184              		.cfi_offset 14, -4
 2185 0002 00AF     		add	r7, sp, #0
 2186              		.cfi_def_cfa_register 7
  86:./PCControl.h ****         UART_PC_PutString("C\n");
 2187              		.loc 12 86 0
 2188 0004 0248     		ldr	r0, .L129
 2189 0006 FFF7FEFF 		bl	UART_PC_PutString
  87:./PCControl.h ****     }
 2190              		.loc 12 87 0
 2191 000a 00BF     		nop
 2192 000c 80BD     		pop	{r7, pc}
 2193              	.L130:
 2194 000e 00BF     		.align	2
 2195              	.L129:
 2196 0010 E4000000 		.word	.LC16
 2197              		.cfi_endproc
 2198              	.LFE102:
 2199              		.size	sendCompletion, .-sendCompletion
 2200              		.section	.rodata
 2201 00e7 00       		.align	2
 2202              	.LC17:
 2203 00e8 460A00   		.ascii	"F\012\000"
 2204              		.section	.text.sendFailure,"ax",%progbits
 2205              		.align	2
 2206              		.global	sendFailure
 2207              		.thumb
 2208              		.thumb_func
 2209              		.type	sendFailure, %function
 2210              	sendFailure:
 2211              	.LFB103:
ARM GAS  C:\Users\LOCALA~1\AppData\Local\Temp\cczriwEO.s 			page 52


  88:./PCControl.h ****     
  89:./PCControl.h ****     void sendFailure()
  90:./PCControl.h ****     {
 2212              		.loc 12 90 0
 2213              		.cfi_startproc
 2214              		@ args = 0, pretend = 0, frame = 0
 2215              		@ frame_needed = 1, uses_anonymous_args = 0
 2216 0000 80B5     		push	{r7, lr}
 2217              		.cfi_def_cfa_offset 8
 2218              		.cfi_offset 7, -8
 2219              		.cfi_offset 14, -4
 2220 0002 00AF     		add	r7, sp, #0
 2221              		.cfi_def_cfa_register 7
  91:./PCControl.h ****         UART_PC_PutString("F\n");   
 2222              		.loc 12 91 0
 2223 0004 0248     		ldr	r0, .L132
 2224 0006 FFF7FEFF 		bl	UART_PC_PutString
  92:./PCControl.h ****     }
 2225              		.loc 12 92 0
 2226 000a 00BF     		nop
 2227 000c 80BD     		pop	{r7, pc}
 2228              	.L133:
 2229 000e 00BF     		.align	2
 2230              	.L132:
 2231 0010 E8000000 		.word	.LC17
 2232              		.cfi_endproc
 2233              	.LFE103:
 2234              		.size	sendFailure, .-sendFailure
 2235              		.section	.rodata
 2236 00eb 00       		.align	2
 2237              	.LC18:
 2238 00ec 214D6561 		.ascii	"!Measurement running: \000"
 2238      73757265 
 2238      6D656E74 
 2238      2072756E 
 2238      6E696E67 
 2239              		.section	.text.sendStatus,"ax",%progbits
 2240              		.align	2
 2241              		.global	sendStatus
 2242              		.thumb
 2243              		.thumb_func
 2244              		.type	sendStatus, %function
 2245              	sendStatus:
 2246              	.LFB104:
  93:./PCControl.h ****     
  94:./PCControl.h ****     void sendStatus()
  95:./PCControl.h ****     {
 2247              		.loc 12 95 0
 2248              		.cfi_startproc
 2249              		@ args = 0, pretend = 0, frame = 16
 2250              		@ frame_needed = 1, uses_anonymous_args = 0
 2251 0000 80B5     		push	{r7, lr}
 2252              		.cfi_def_cfa_offset 8
 2253              		.cfi_offset 7, -8
 2254              		.cfi_offset 14, -4
 2255 0002 84B0     		sub	sp, sp, #16
 2256              		.cfi_def_cfa_offset 24
ARM GAS  C:\Users\LOCALA~1\AppData\Local\Temp\cczriwEO.s 			page 53


 2257 0004 00AF     		add	r7, sp, #0
 2258              		.cfi_def_cfa_register 7
  96:./PCControl.h ****         char Meldung[10];
  97:./PCControl.h ****         UART_PC_PutString("!Measurement running: ");
 2259              		.loc 12 97 0
 2260 0006 0A48     		ldr	r0, .L135
 2261 0008 FFF7FEFF 		bl	UART_PC_PutString
  98:./PCControl.h ****         itoa(f_timer_LamellaLifetime_Measuring, Meldung, 10);
 2262              		.loc 12 98 0
 2263 000c 094B     		ldr	r3, .L135+4
 2264 000e 1B68     		ldr	r3, [r3]
 2265 0010 391D     		adds	r1, r7, #4
 2266 0012 0A22     		movs	r2, #10
 2267 0014 1846     		mov	r0, r3
 2268 0016 FFF7FEFF 		bl	itoa
  99:./PCControl.h ****         UART_PC_PutString(Meldung);
 2269              		.loc 12 99 0
 2270 001a 3B1D     		adds	r3, r7, #4
 2271 001c 1846     		mov	r0, r3
 2272 001e FFF7FEFF 		bl	UART_PC_PutString
 100:./PCControl.h ****         UART_PC_PutString("\n");
 2273              		.loc 12 100 0
 2274 0022 0548     		ldr	r0, .L135+8
 2275 0024 FFF7FEFF 		bl	UART_PC_PutString
 101:./PCControl.h ****         
 102:./PCControl.h ****     }
 2276              		.loc 12 102 0
 2277 0028 00BF     		nop
 2278 002a 1037     		adds	r7, r7, #16
 2279              		.cfi_def_cfa_offset 8
 2280 002c BD46     		mov	sp, r7
 2281              		.cfi_def_cfa_register 13
 2282              		@ sp needed
 2283 002e 80BD     		pop	{r7, pc}
 2284              	.L136:
 2285              		.align	2
 2286              	.L135:
 2287 0030 EC000000 		.word	.LC18
 2288 0034 00000000 		.word	f_timer_LamellaLifetime_Measuring
 2289 0038 0C000000 		.word	.LC1
 2290              		.cfi_endproc
 2291              	.LFE104:
 2292              		.size	sendStatus, .-sendStatus
 2293              		.section	.rodata
 2294 0103 00       		.align	2
 2295              	.LC19:
 2296 0104 642D00   		.ascii	"d-\000"
 2297              		.section	.text.sendMeasurementData,"ax",%progbits
 2298              		.align	2
 2299              		.global	sendMeasurementData
 2300              		.thumb
 2301              		.thumb_func
 2302              		.type	sendMeasurementData, %function
 2303              	sendMeasurementData:
 2304              	.LFB105:
 103:./PCControl.h **** 
 104:./PCControl.h **** //    void sendMeasurementData(short ADCValue, int timer, int laser1, int laser2){
ARM GAS  C:\Users\LOCALA~1\AppData\Local\Temp\cczriwEO.s 			page 54


 105:./PCControl.h **** //        char Meldung[30];
 106:./PCControl.h **** //        
 107:./PCControl.h **** //        UART_PC_PutString("d-");
 108:./PCControl.h **** //        itoa(laser1, Meldung, 10);
 109:./PCControl.h **** //        UART_PC_PutString(Meldung);
 110:./PCControl.h **** //        UART_PC_PutString("-");
 111:./PCControl.h **** //        itoa(laser2, Meldung, 10);
 112:./PCControl.h **** //        UART_PC_PutString(Meldung);
 113:./PCControl.h **** //        UART_PC_PutString("-");
 114:./PCControl.h **** //        itoa(timer, Meldung, 10);
 115:./PCControl.h **** //        UART_PC_PutString(Meldung);
 116:./PCControl.h **** //        UART_PC_PutString("-");
 117:./PCControl.h **** //        itoa(ADCValue, Meldung, 10);
 118:./PCControl.h **** //        UART_PC_PutString(Meldung);
 119:./PCControl.h **** //        UART_PC_PutString("\n");
 120:./PCControl.h **** //        
 121:./PCControl.h **** //    }
 122:./PCControl.h ****     void sendMeasurementData(short ADCValue, int timer, int laserstate){
 2305              		.loc 12 122 0
 2306              		.cfi_startproc
 2307              		@ args = 0, pretend = 0, frame = 48
 2308              		@ frame_needed = 1, uses_anonymous_args = 0
 2309 0000 80B5     		push	{r7, lr}
 2310              		.cfi_def_cfa_offset 8
 2311              		.cfi_offset 7, -8
 2312              		.cfi_offset 14, -4
 2313 0002 8CB0     		sub	sp, sp, #48
 2314              		.cfi_def_cfa_offset 56
 2315 0004 00AF     		add	r7, sp, #0
 2316              		.cfi_def_cfa_register 7
 2317 0006 0346     		mov	r3, r0
 2318 0008 B960     		str	r1, [r7, #8]
 2319 000a 7A60     		str	r2, [r7, #4]
 2320 000c FB81     		strh	r3, [r7, #14]	@ movhi
 123:./PCControl.h ****         char Meldung[30];
 124:./PCControl.h ****         
 125:./PCControl.h ****         UART_PC_PutString("d-");
 2321              		.loc 12 125 0
 2322 000e 1A48     		ldr	r0, .L138
 2323 0010 FFF7FEFF 		bl	UART_PC_PutString
 126:./PCControl.h ****         itoa(laserstate, Meldung, 10);
 2324              		.loc 12 126 0
 2325 0014 07F11003 		add	r3, r7, #16
 2326 0018 0A22     		movs	r2, #10
 2327 001a 1946     		mov	r1, r3
 2328 001c 7868     		ldr	r0, [r7, #4]
 2329 001e FFF7FEFF 		bl	itoa
 127:./PCControl.h ****         UART_PC_PutString(Meldung);
 2330              		.loc 12 127 0
 2331 0022 07F11003 		add	r3, r7, #16
 2332 0026 1846     		mov	r0, r3
 2333 0028 FFF7FEFF 		bl	UART_PC_PutString
 128:./PCControl.h ****         UART_PC_PutString("-");
 2334              		.loc 12 128 0
 2335 002c 1348     		ldr	r0, .L138+4
 2336 002e FFF7FEFF 		bl	UART_PC_PutString
 129:./PCControl.h ****         itoa(timer, Meldung, 10);
ARM GAS  C:\Users\LOCALA~1\AppData\Local\Temp\cczriwEO.s 			page 55


 2337              		.loc 12 129 0
 2338 0032 07F11003 		add	r3, r7, #16
 2339 0036 0A22     		movs	r2, #10
 2340 0038 1946     		mov	r1, r3
 2341 003a B868     		ldr	r0, [r7, #8]
 2342 003c FFF7FEFF 		bl	itoa
 130:./PCControl.h ****         UART_PC_PutString(Meldung);
 2343              		.loc 12 130 0
 2344 0040 07F11003 		add	r3, r7, #16
 2345 0044 1846     		mov	r0, r3
 2346 0046 FFF7FEFF 		bl	UART_PC_PutString
 131:./PCControl.h ****         UART_PC_PutString("-");
 2347              		.loc 12 131 0
 2348 004a 0C48     		ldr	r0, .L138+4
 2349 004c FFF7FEFF 		bl	UART_PC_PutString
 132:./PCControl.h ****         itoa(ADCValue, Meldung, 10);
 2350              		.loc 12 132 0
 2351 0050 B7F90E30 		ldrsh	r3, [r7, #14]
 2352 0054 07F11001 		add	r1, r7, #16
 2353 0058 0A22     		movs	r2, #10
 2354 005a 1846     		mov	r0, r3
 2355 005c FFF7FEFF 		bl	itoa
 133:./PCControl.h ****         UART_PC_PutString(Meldung);
 2356              		.loc 12 133 0
 2357 0060 07F11003 		add	r3, r7, #16
 2358 0064 1846     		mov	r0, r3
 2359 0066 FFF7FEFF 		bl	UART_PC_PutString
 134:./PCControl.h ****         UART_PC_PutString("\n");
 2360              		.loc 12 134 0
 2361 006a 0548     		ldr	r0, .L138+8
 2362 006c FFF7FEFF 		bl	UART_PC_PutString
 135:./PCControl.h ****         
 136:./PCControl.h ****     }
 2363              		.loc 12 136 0
 2364 0070 00BF     		nop
 2365 0072 3037     		adds	r7, r7, #48
 2366              		.cfi_def_cfa_offset 8
 2367 0074 BD46     		mov	sp, r7
 2368              		.cfi_def_cfa_register 13
 2369              		@ sp needed
 2370 0076 80BD     		pop	{r7, pc}
 2371              	.L139:
 2372              		.align	2
 2373              	.L138:
 2374 0078 04010000 		.word	.LC19
 2375 007c E0000000 		.word	.LC15
 2376 0080 0C000000 		.word	.LC1
 2377              		.cfi_endproc
 2378              	.LFE105:
 2379              		.size	sendMeasurementData, .-sendMeasurementData
 2380              		.section	.rodata
 2381 0107 00       		.align	2
 2382              	.LC20:
 2383 0108 662D00   		.ascii	"f-\000"
 2384              		.section	.text.sendADCData,"ax",%progbits
 2385              		.align	2
 2386              		.global	sendADCData
ARM GAS  C:\Users\LOCALA~1\AppData\Local\Temp\cczriwEO.s 			page 56


 2387              		.thumb
 2388              		.thumb_func
 2389              		.type	sendADCData, %function
 2390              	sendADCData:
 2391              	.LFB106:
 137:./PCControl.h ****     
 138:./PCControl.h ****     
 139:./PCControl.h **** //    void startPCControlMeasurement(){
 140:./PCControl.h **** //        f_timer_LamellaLifetime_Measuring = 0;
 141:./PCControl.h **** //        UART_PC_PutString("i-New Measurement\n");
 142:./PCControl.h **** //        #ifdef STEPPER
 143:./PCControl.h **** //            Move90Degree_CW();
 144:./PCControl.h **** //        #endif
 145:./PCControl.h **** //        for (int i = 0; i < g_LamellaFormationTime; i++){
 146:./PCControl.h **** //            CyDelay(1);   // Sleep 1 ms
 147:./PCControl.h **** //        }
 148:./PCControl.h **** //        t_timer_LamellaLifetime = 0;
 149:./PCControl.h **** //        #ifdef STEPPER
 150:./PCControl.h **** //            Move90Degree_CCW();
 151:./PCControl.h **** //        #endif
 152:./PCControl.h **** //        f_timer_LamellaLifetime_Measuring = 1;
 153:./PCControl.h **** //        //PCControl_Measurement();
 154:./PCControl.h **** //        
 155:./PCControl.h **** //    }
 156:./PCControl.h ****     
 157:./PCControl.h ****     void sendADCData(){
 2392              		.loc 12 157 0
 2393              		.cfi_startproc
 2394              		@ args = 0, pretend = 0, frame = 32
 2395              		@ frame_needed = 1, uses_anonymous_args = 0
 2396 0000 80B5     		push	{r7, lr}
 2397              		.cfi_def_cfa_offset 8
 2398              		.cfi_offset 7, -8
 2399              		.cfi_offset 14, -4
 2400 0002 88B0     		sub	sp, sp, #32
 2401              		.cfi_def_cfa_offset 40
 2402 0004 00AF     		add	r7, sp, #0
 2403              		.cfi_def_cfa_register 7
 158:./PCControl.h ****         char Meldung[30];
 159:./PCControl.h ****         UART_PC_PutString("f-");
 2404              		.loc 12 159 0
 2405 0006 0A48     		ldr	r0, .L141
 2406 0008 FFF7FEFF 		bl	UART_PC_PutString
 160:./PCControl.h ****         itoa(getADCValue(), Meldung, 10);
 2407              		.loc 12 160 0
 2408 000c FFF7FEFF 		bl	getADCValue
 2409 0010 3B46     		mov	r3, r7
 2410 0012 0A22     		movs	r2, #10
 2411 0014 1946     		mov	r1, r3
 2412 0016 FFF7FEFF 		bl	itoa
 161:./PCControl.h ****         UART_PC_PutString(Meldung);
 2413              		.loc 12 161 0
 2414 001a 3B46     		mov	r3, r7
 2415 001c 1846     		mov	r0, r3
 2416 001e FFF7FEFF 		bl	UART_PC_PutString
 162:./PCControl.h ****         UART_PC_PutString("\n");
 2417              		.loc 12 162 0
ARM GAS  C:\Users\LOCALA~1\AppData\Local\Temp\cczriwEO.s 			page 57


 2418 0022 0448     		ldr	r0, .L141+4
 2419 0024 FFF7FEFF 		bl	UART_PC_PutString
 163:./PCControl.h ****     }
 2420              		.loc 12 163 0
 2421 0028 00BF     		nop
 2422 002a 2037     		adds	r7, r7, #32
 2423              		.cfi_def_cfa_offset 8
 2424 002c BD46     		mov	sp, r7
 2425              		.cfi_def_cfa_register 13
 2426              		@ sp needed
 2427 002e 80BD     		pop	{r7, pc}
 2428              	.L142:
 2429              		.align	2
 2430              	.L141:
 2431 0030 08010000 		.word	.LC20
 2432 0034 0C000000 		.word	.LC1
 2433              		.cfi_endproc
 2434              	.LFE106:
 2435              		.size	sendADCData, .-sendADCData
 2436              		.section	.rodata
 2437 010b 00       		.align	2
 2438              	.LC21:
 2439 010c 70616765 		.ascii	"page PC_Control\000"
 2439      2050435F 
 2439      436F6E74 
 2439      726F6C00 
 2440              		.section	.text.pc_control,"ax",%progbits
 2441              		.align	2
 2442              		.global	pc_control
 2443              		.thumb
 2444              		.thumb_func
 2445              		.type	pc_control, %function
 2446              	pc_control:
 2447              	.LFB107:
 164:./PCControl.h ****     
 165:./PCControl.h ****     void pc_control(){
 2448              		.loc 12 165 0
 2449              		.cfi_startproc
 2450              		@ args = 0, pretend = 0, frame = 8
 2451              		@ frame_needed = 1, uses_anonymous_args = 0
 2452 0000 80B5     		push	{r7, lr}
 2453              		.cfi_def_cfa_offset 8
 2454              		.cfi_offset 7, -8
 2455              		.cfi_offset 14, -4
 2456 0002 82B0     		sub	sp, sp, #8
 2457              		.cfi_def_cfa_offset 16
 2458 0004 00AF     		add	r7, sp, #0
 2459              		.cfi_def_cfa_register 7
 166:./PCControl.h ****         // Init
 167:./PCControl.h ****         char Laserstate = 0;
 2460              		.loc 12 167 0
 2461 0006 0023     		movs	r3, #0
 2462 0008 FB71     		strb	r3, [r7, #7]
 168:./PCControl.h ****         Nextion_SendString("page PC_Control");
 2463              		.loc 12 168 0
 2464 000a 9748     		ldr	r0, .L170
 2465 000c FFF7FEFF 		bl	Nextion_SendString
ARM GAS  C:\Users\LOCALA~1\AppData\Local\Temp\cczriwEO.s 			page 58


 169:./PCControl.h ****         #ifdef DEBUG_PCControl
 170:./PCControl.h ****             UART_PC_PutString("#Started PC Control\n");
 171:./PCControl.h ****             char Test[10];
 172:./PCControl.h ****         #endif
 173:./PCControl.h ****         
 174:./PCControl.h ****         
 175:./PCControl.h ****         // Main
 176:./PCControl.h ****         
 177:./PCControl.h ****         while (g_ActivePage == 'P')
 2466              		.loc 12 177 0
 2467 0010 20E1     		b	.L144
 2468              	.L168:
 178:./PCControl.h ****         {
 179:./PCControl.h ****             CyDelay(1);
 2469              		.loc 12 179 0
 2470 0012 0120     		movs	r0, #1
 2471 0014 FFF7FEFF 		bl	CyDelay
 180:./PCControl.h ****             if (g_PC_InterruptSignal != 0){
 2472              		.loc 12 180 0
 2473 0018 944B     		ldr	r3, .L170+4
 2474 001a 1B78     		ldrb	r3, [r3]	@ zero_extendqisi2
 2475 001c 002B     		cmp	r3, #0
 2476 001e 00F01981 		beq	.L144
 181:./PCControl.h ****                 switch(g_PC_InterruptSignal)
 2477              		.loc 12 181 0
 2478 0022 924B     		ldr	r3, .L170+4
 2479 0024 1B78     		ldrb	r3, [r3]	@ zero_extendqisi2
 2480 0026 213B     		subs	r3, r3, #33
 2481 0028 392B     		cmp	r3, #57
 2482 002a 00F20F81 		bhi	.L169
 2483 002e 01A2     		adr	r2, .L147
 2484 0030 52F823F0 		ldr	pc, [r2, r3, lsl #2]
 2485              		.p2align 2
 2486              	.L147:
 2487 0034 3D010000 		.word	.L146+1
 2488 0038 4D020000 		.word	.L169+1
 2489 003c 4D020000 		.word	.L169+1
 2490 0040 4D020000 		.word	.L169+1
 2491 0044 4D020000 		.word	.L169+1
 2492 0048 4D020000 		.word	.L169+1
 2493 004c 4D020000 		.word	.L169+1
 2494 0050 4D020000 		.word	.L169+1
 2495 0054 4D020000 		.word	.L169+1
 2496 0058 4D020000 		.word	.L169+1
 2497 005c 29010000 		.word	.L148+1
 2498 0060 4D020000 		.word	.L169+1
 2499 0064 33010000 		.word	.L149+1
 2500 0068 4D020000 		.word	.L169+1
 2501 006c 4D020000 		.word	.L169+1
 2502 0070 39020000 		.word	.L150+1
 2503 0074 E9010000 		.word	.L151+1
 2504 0078 FD010000 		.word	.L152+1
 2505 007c 11020000 		.word	.L153+1
 2506 0080 4D020000 		.word	.L169+1
 2507 0084 4D020000 		.word	.L169+1
 2508 0088 4D020000 		.word	.L169+1
 2509 008c 4D020000 		.word	.L169+1
ARM GAS  C:\Users\LOCALA~1\AppData\Local\Temp\cczriwEO.s 			page 59


 2510 0090 4D020000 		.word	.L169+1
 2511 0094 25020000 		.word	.L154+1
 2512 0098 4D020000 		.word	.L169+1
 2513 009c 4D020000 		.word	.L169+1
 2514 00a0 4D020000 		.word	.L169+1
 2515 00a4 4D020000 		.word	.L169+1
 2516 00a8 4D020000 		.word	.L169+1
 2517 00ac 47010000 		.word	.L155+1
 2518 00b0 4D020000 		.word	.L169+1
 2519 00b4 4D020000 		.word	.L169+1
 2520 00b8 4D020000 		.word	.L169+1
 2521 00bc 4D020000 		.word	.L169+1
 2522 00c0 83010000 		.word	.L156+1
 2523 00c4 4D020000 		.word	.L169+1
 2524 00c8 4D020000 		.word	.L169+1
 2525 00cc 4D020000 		.word	.L169+1
 2526 00d0 4D020000 		.word	.L169+1
 2527 00d4 4D020000 		.word	.L169+1
 2528 00d8 4D020000 		.word	.L169+1
 2529 00dc 4D020000 		.word	.L169+1
 2530 00e0 79010000 		.word	.L157+1
 2531 00e4 51010000 		.word	.L158+1
 2532 00e8 4D020000 		.word	.L169+1
 2533 00ec 4D020000 		.word	.L169+1
 2534 00f0 4D020000 		.word	.L169+1
 2535 00f4 4D020000 		.word	.L169+1
 2536 00f8 6F010000 		.word	.L159+1
 2537 00fc 63010000 		.word	.L160+1
 2538 0100 4D020000 		.word	.L169+1
 2539 0104 4D020000 		.word	.L169+1
 2540 0108 4D020000 		.word	.L169+1
 2541 010c 4D020000 		.word	.L169+1
 2542 0110 9D010000 		.word	.L161+1
 2543 0114 1D010000 		.word	.L162+1
 2544 0118 23010000 		.word	.L163+1
 2545              		.p2align 1
 2546              	.L162:
 182:./PCControl.h ****                 {
 183:./PCControl.h ****                     case 'Y':
 184:./PCControl.h ****                         #ifdef DEBUG_PCControl
 185:./PCControl.h ****                             UART_PC_PutString("#Connection Established\n");
 186:./PCControl.h ****                         #endif
 187:./PCControl.h ****                         sendCompletion();
 2547              		.loc 12 187 0
 2548 011c FFF7FEFF 		bl	sendCompletion
 188:./PCControl.h ****                         break;
 2549              		.loc 12 188 0
 2550 0120 95E0     		b	.L164
 2551              	.L163:
 189:./PCControl.h ****                     case 'Z':
 190:./PCControl.h ****                         requestConnection();
 2552              		.loc 12 190 0
 2553 0122 FFF7FEFF 		bl	requestConnection
 191:./PCControl.h ****                         #ifdef DEBUG_PCControl
 192:./PCControl.h ****                             UART_PC_PutString("#Wait for Connection\n");
 193:./PCControl.h ****                         #endif 
 194:./PCControl.h ****                         break;
ARM GAS  C:\Users\LOCALA~1\AppData\Local\Temp\cczriwEO.s 			page 60


 2554              		.loc 12 194 0
 2555 0126 92E0     		b	.L164
 2556              	.L148:
 195:./PCControl.h ****                     #ifdef STEPPER
 196:./PCControl.h ****                         case '+':           // Stepper clockwise
 197:./PCControl.h ****                             MoveOneStep_CW();
 2557              		.loc 12 197 0
 2558 0128 FFF7FEFF 		bl	MoveOneStep_CW
 198:./PCControl.h ****                             sendCompletion();
 2559              		.loc 12 198 0
 2560 012c FFF7FEFF 		bl	sendCompletion
 199:./PCControl.h ****                             break;
 2561              		.loc 12 199 0
 2562 0130 8DE0     		b	.L164
 2563              	.L149:
 200:./PCControl.h ****                         case '-':           // Stepper counterclockwise
 201:./PCControl.h ****                             MoveOneStep_CCW();
 2564              		.loc 12 201 0
 2565 0132 FFF7FEFF 		bl	MoveOneStep_CCW
 202:./PCControl.h ****                             sendCompletion();
 2566              		.loc 12 202 0
 2567 0136 FFF7FEFF 		bl	sendCompletion
 203:./PCControl.h ****                             break;
 2568              		.loc 12 203 0
 2569 013a 88E0     		b	.L164
 2570              	.L146:
 204:./PCControl.h ****                         case '!':           // Stepper 90° clockwise
 205:./PCControl.h ****                             Move90Degree_CW();
 2571              		.loc 12 205 0
 2572 013c FFF7FEFF 		bl	Move90Degree_CW
 206:./PCControl.h ****                             sendCompletion();
 2573              		.loc 12 206 0
 2574 0140 FFF7FEFF 		bl	sendCompletion
 207:./PCControl.h ****                             break;
 2575              		.loc 12 207 0
 2576 0144 83E0     		b	.L164
 2577              	.L155:
 208:./PCControl.h ****                         case '?':           // Stepper 90° counterclockwise
 209:./PCControl.h ****                             Move90Degree_CCW();
 2578              		.loc 12 209 0
 2579 0146 FFF7FEFF 		bl	Move90Degree_CCW
 210:./PCControl.h ****                             sendCompletion();
 2580              		.loc 12 210 0
 2581 014a FFF7FEFF 		bl	sendCompletion
 211:./PCControl.h ****                             break;
 2582              		.loc 12 211 0
 2583 014e 7EE0     		b	.L164
 2584              	.L158:
 212:./PCControl.h ****                     #endif
 213:./PCControl.h ****                     case 'M':           // Starte Messung
 214:./PCControl.h ****                         f_timer_LamellaLifetime_Measuring = 1;
 2585              		.loc 12 214 0
 2586 0150 474B     		ldr	r3, .L170+8
 2587 0152 0122     		movs	r2, #1
 2588 0154 1A60     		str	r2, [r3]
 215:./PCControl.h ****                         t_timer_LamellaLifetime = 0;
 2589              		.loc 12 215 0
ARM GAS  C:\Users\LOCALA~1\AppData\Local\Temp\cczriwEO.s 			page 61


 2590 0156 474B     		ldr	r3, .L170+12
 2591 0158 0022     		movs	r2, #0
 2592 015a 1A60     		str	r2, [r3]
 216:./PCControl.h ****                         sendCompletion();
 2593              		.loc 12 216 0
 2594 015c FFF7FEFF 		bl	sendCompletion
 217:./PCControl.h ****                         break;
 2595              		.loc 12 217 0
 2596 0160 75E0     		b	.L164
 2597              	.L160:
 218:./PCControl.h ****                     case 'S':
 219:./PCControl.h ****                         f_timer_LamellaLifetime_Measuring = 0;
 2598              		.loc 12 219 0
 2599 0162 434B     		ldr	r3, .L170+8
 2600 0164 0022     		movs	r2, #0
 2601 0166 1A60     		str	r2, [r3]
 220:./PCControl.h ****                         sendCompletion();
 2602              		.loc 12 220 0
 2603 0168 FFF7FEFF 		bl	sendCompletion
 221:./PCControl.h ****                         break;
 2604              		.loc 12 221 0
 2605 016c 6FE0     		b	.L164
 2606              	.L159:
 222:./PCControl.h ****                     case 'R':           // Request status
 223:./PCControl.h ****                         sendStatus();
 2607              		.loc 12 223 0
 2608 016e FFF7FEFF 		bl	sendStatus
 224:./PCControl.h ****                         sendCompletion();
 2609              		.loc 12 224 0
 2610 0172 FFF7FEFF 		bl	sendCompletion
 225:./PCControl.h ****                         break;
 2611              		.loc 12 225 0
 2612 0176 6AE0     		b	.L164
 2613              	.L157:
 226:./PCControl.h ****                     case 'L':           // Live Data
 227:./PCControl.h ****                         sendADCData();
 2614              		.loc 12 227 0
 2615 0178 FFF7FEFF 		bl	sendADCData
 228:./PCControl.h ****                         sendCompletion();
 2616              		.loc 12 228 0
 2617 017c FFF7FEFF 		bl	sendCompletion
 229:./PCControl.h ****                         break;
 2618              		.loc 12 229 0
 2619 0180 65E0     		b	.L164
 2620              	.L156:
 230:./PCControl.h ****                     case 'D':           // MeasurementData
 231:./PCControl.h ****                         //sendMeasurementData(getADCValue(), t_timer_Measurement, GET_LASER1(), GET
 232:./PCControl.h ****                         sendMeasurementData(getADCValue(), t_timer_LamellaLifetime, Laserstate);
 2621              		.loc 12 232 0
 2622 0182 FFF7FEFF 		bl	getADCValue
 2623 0186 0346     		mov	r3, r0
 2624 0188 18B2     		sxth	r0, r3
 2625 018a 3A4B     		ldr	r3, .L170+12
 2626 018c 1B68     		ldr	r3, [r3]
 2627 018e FA79     		ldrb	r2, [r7, #7]	@ zero_extendqisi2
 2628 0190 1946     		mov	r1, r3
 2629 0192 FFF7FEFF 		bl	sendMeasurementData
ARM GAS  C:\Users\LOCALA~1\AppData\Local\Temp\cczriwEO.s 			page 62


 233:./PCControl.h ****                         sendCompletion();
 2630              		.loc 12 233 0
 2631 0196 FFF7FEFF 		bl	sendCompletion
 234:./PCControl.h ****                         break;
 2632              		.loc 12 234 0
 2633 019a 58E0     		b	.L164
 2634              	.L161:
 235:./PCControl.h ****                     case 'X':
 236:./PCControl.h ****                         
 237:./PCControl.h ****                         #ifdef DEBUG_PCControl
 238:./PCControl.h ****                             itoa(Laserstate, Test, 10);
 239:./PCControl.h ****                             UART_PC_PutString("#Laserstate: ");
 240:./PCControl.h ****                             UART_PC_PutString(Test);
 241:./PCControl.h ****                             UART_PC_PutString("\n");
 242:./PCControl.h ****                         #endif
 243:./PCControl.h ****                         if(Laserstate == 0)
 2635              		.loc 12 243 0
 2636 019c FB79     		ldrb	r3, [r7, #7]	@ zero_extendqisi2
 2637 019e 002B     		cmp	r3, #0
 2638 01a0 08D1     		bne	.L165
 244:./PCControl.h ****                         {
 245:./PCControl.h ****                             LASER1(1);
 2639              		.loc 12 245 0
 2640 01a2 0120     		movs	r0, #1
 2641 01a4 FFF7FEFF 		bl	LASER1
 246:./PCControl.h ****                             LASER2(0);
 2642              		.loc 12 246 0
 2643 01a8 0020     		movs	r0, #0
 2644 01aa FFF7FEFF 		bl	LASER2
 247:./PCControl.h ****                             #ifdef IRLASER
 248:./PCControl.h ****                                 LASER3(0);  
 249:./PCControl.h ****                             #endif
 250:./PCControl.h ****                             Laserstate = 1;
 2645              		.loc 12 250 0
 2646 01ae 0123     		movs	r3, #1
 2647 01b0 FB71     		strb	r3, [r7, #7]
 2648 01b2 16E0     		b	.L166
 2649              	.L165:
 251:./PCControl.h ****                         }
 252:./PCControl.h ****                         else if(Laserstate == 1)
 2650              		.loc 12 252 0
 2651 01b4 FB79     		ldrb	r3, [r7, #7]	@ zero_extendqisi2
 2652 01b6 012B     		cmp	r3, #1
 2653 01b8 08D1     		bne	.L167
 253:./PCControl.h ****                         {
 254:./PCControl.h ****                             LASER1(0);
 2654              		.loc 12 254 0
 2655 01ba 0020     		movs	r0, #0
 2656 01bc FFF7FEFF 		bl	LASER1
 255:./PCControl.h ****                             LASER2(0);
 2657              		.loc 12 255 0
 2658 01c0 0020     		movs	r0, #0
 2659 01c2 FFF7FEFF 		bl	LASER2
 256:./PCControl.h ****                             #ifdef IRLASER
 257:./PCControl.h ****                                 LASER3(1);
 258:./PCControl.h ****                                 Laserstate = 2;
 259:./PCControl.h ****                             #else
ARM GAS  C:\Users\LOCALA~1\AppData\Local\Temp\cczriwEO.s 			page 63


 260:./PCControl.h ****                                 Laserstate = 0;
 2660              		.loc 12 260 0
 2661 01c6 0023     		movs	r3, #0
 2662 01c8 FB71     		strb	r3, [r7, #7]
 2663 01ca 0AE0     		b	.L166
 2664              	.L167:
 261:./PCControl.h ****                             #endif
 262:./PCControl.h **** 
 263:./PCControl.h ****                         }else if(Laserstate == 2)
 2665              		.loc 12 263 0
 2666 01cc FB79     		ldrb	r3, [r7, #7]	@ zero_extendqisi2
 2667 01ce 022B     		cmp	r3, #2
 2668 01d0 07D1     		bne	.L166
 264:./PCControl.h ****                         {
 265:./PCControl.h ****                             LASER1(0);
 2669              		.loc 12 265 0
 2670 01d2 0020     		movs	r0, #0
 2671 01d4 FFF7FEFF 		bl	LASER1
 266:./PCControl.h ****                             LASER2(1);
 2672              		.loc 12 266 0
 2673 01d8 0120     		movs	r0, #1
 2674 01da FFF7FEFF 		bl	LASER2
 267:./PCControl.h ****                             #ifdef IRLASER
 268:./PCControl.h ****                                 LASER3(0);
 269:./PCControl.h ****                             #endif
 270:./PCControl.h ****                             Laserstate = 0;
 2675              		.loc 12 270 0
 2676 01de 0023     		movs	r3, #0
 2677 01e0 FB71     		strb	r3, [r7, #7]
 2678              	.L166:
 271:./PCControl.h ****                             
 272:./PCControl.h ****                         }
 273:./PCControl.h ****                         sendCompletion();
 2679              		.loc 12 273 0
 2680 01e2 FFF7FEFF 		bl	sendCompletion
 274:./PCControl.h ****                         break;
 2681              		.loc 12 274 0
 2682 01e6 32E0     		b	.L164
 2683              	.L151:
 275:./PCControl.h ****                     case '1':
 276:./PCControl.h ****                         sendLASERxReturn(1, Toggle_LASER1());
 2684              		.loc 12 276 0
 2685 01e8 FFF7FEFF 		bl	Toggle_LASER1
 2686 01ec 0346     		mov	r3, r0
 2687 01ee 1946     		mov	r1, r3
 2688 01f0 0120     		movs	r0, #1
 2689 01f2 FFF7FEFF 		bl	sendLASERxReturn
 277:./PCControl.h ****                         sendCompletion();
 2690              		.loc 12 277 0
 2691 01f6 FFF7FEFF 		bl	sendCompletion
 278:./PCControl.h ****                         break;
 2692              		.loc 12 278 0
 2693 01fa 28E0     		b	.L164
 2694              	.L152:
 279:./PCControl.h ****                     case '2':
 280:./PCControl.h ****                         sendLASERxReturn(2, Toggle_LASER2());
 2695              		.loc 12 280 0
ARM GAS  C:\Users\LOCALA~1\AppData\Local\Temp\cczriwEO.s 			page 64


 2696 01fc FFF7FEFF 		bl	Toggle_LASER2
 2697 0200 0346     		mov	r3, r0
 2698 0202 1946     		mov	r1, r3
 2699 0204 0220     		movs	r0, #2
 2700 0206 FFF7FEFF 		bl	sendLASERxReturn
 281:./PCControl.h ****                         sendCompletion();
 2701              		.loc 12 281 0
 2702 020a FFF7FEFF 		bl	sendCompletion
 282:./PCControl.h ****                         break;
 2703              		.loc 12 282 0
 2704 020e 1EE0     		b	.L164
 2705              	.L153:
 283:./PCControl.h ****                     case '3':
 284:./PCControl.h ****                         sendLASERxReturn(3, Toggle_LASER3());
 2706              		.loc 12 284 0
 2707 0210 FFF7FEFF 		bl	Toggle_LASER3
 2708 0214 0346     		mov	r3, r0
 2709 0216 1946     		mov	r1, r3
 2710 0218 0320     		movs	r0, #3
 2711 021a FFF7FEFF 		bl	sendLASERxReturn
 285:./PCControl.h ****                         sendCompletion();
 2712              		.loc 12 285 0
 2713 021e FFF7FEFF 		bl	sendCompletion
 286:./PCControl.h ****                         break;
 2714              		.loc 12 286 0
 2715 0222 14E0     		b	.L164
 2716              	.L154:
 287:./PCControl.h ****                     #ifdef Relais
 288:./PCControl.h ****                     case '9':
 289:./PCControl.h ****                         sendRelaisxReturn(9, Toggle_RELAIS1());
 2717              		.loc 12 289 0
 2718 0224 FFF7FEFF 		bl	Toggle_RELAIS1
 2719 0228 0346     		mov	r3, r0
 2720 022a 1946     		mov	r1, r3
 2721 022c 0920     		movs	r0, #9
 2722 022e FFF7FEFF 		bl	sendRelaisxReturn
 290:./PCControl.h ****                         sendCompletion();
 2723              		.loc 12 290 0
 2724 0232 FFF7FEFF 		bl	sendCompletion
 291:./PCControl.h ****                         break;
 2725              		.loc 12 291 0
 2726 0236 0AE0     		b	.L164
 2727              	.L150:
 292:./PCControl.h ****                     case '0':
 293:./PCControl.h ****                         sendRelaisxReturn(0, Toggle_RELAIS2());
 2728              		.loc 12 293 0
 2729 0238 FFF7FEFF 		bl	Toggle_RELAIS2
 2730 023c 0346     		mov	r3, r0
 2731 023e 1946     		mov	r1, r3
 2732 0240 0020     		movs	r0, #0
 2733 0242 FFF7FEFF 		bl	sendRelaisxReturn
 294:./PCControl.h ****                         sendCompletion();
 2734              		.loc 12 294 0
 2735 0246 FFF7FEFF 		bl	sendCompletion
 295:./PCControl.h ****                         break;
 2736              		.loc 12 295 0
 2737 024a 00E0     		b	.L164
ARM GAS  C:\Users\LOCALA~1\AppData\Local\Temp\cczriwEO.s 			page 65


 2738              	.L169:
 296:./PCControl.h ****                     #endif
 297:./PCControl.h ****                     default:
 298:./PCControl.h ****                         break;
 2739              		.loc 12 298 0
 2740 024c 00BF     		nop
 2741              	.L164:
 299:./PCControl.h ****                 }
 300:./PCControl.h ****                 
 301:./PCControl.h ****                 
 302:./PCControl.h ****                 Switch_PCInterrupt(0);
 2742              		.loc 12 302 0
 2743 024e 0020     		movs	r0, #0
 2744 0250 FFF7FEFF 		bl	Switch_PCInterrupt
 2745              	.L144:
 177:./PCControl.h ****         {
 2746              		.loc 12 177 0
 2747 0254 084B     		ldr	r3, .L170+16
 2748 0256 1B78     		ldrb	r3, [r3]	@ zero_extendqisi2
 2749 0258 502B     		cmp	r3, #80
 2750 025a 3FF4DAAE 		beq	.L168
 303:./PCControl.h ****             }
 304:./PCControl.h ****         }
 305:./PCControl.h ****     }
 2751              		.loc 12 305 0
 2752 025e 00BF     		nop
 2753 0260 0837     		adds	r7, r7, #8
 2754              		.cfi_def_cfa_offset 8
 2755 0262 BD46     		mov	sp, r7
 2756              		.cfi_def_cfa_register 13
 2757              		@ sp needed
 2758 0264 80BD     		pop	{r7, pc}
 2759              	.L171:
 2760 0266 00BF     		.align	2
 2761              	.L170:
 2762 0268 0C010000 		.word	.LC21
 2763 026c 00000000 		.word	g_PC_InterruptSignal
 2764 0270 00000000 		.word	f_timer_LamellaLifetime_Measuring
 2765 0274 00000000 		.word	t_timer_LamellaLifetime
 2766 0278 00000000 		.word	g_ActivePage
 2767              		.cfi_endproc
 2768              	.LFE107:
 2769              		.size	pc_control, .-pc_control
 2770              		.section	.text.Init_LED,"ax",%progbits
 2771              		.align	2
 2772              		.global	Init_LED
 2773              		.thumb
 2774              		.thumb_func
 2775              		.type	Init_LED, %function
 2776              	Init_LED:
 2777              	.LFB108:
 2778              		.file 13 "./Init.h"
   1:./Init.h      **** /* ========================================
   2:./Init.h      ****  *
   3:./Init.h      ****  * Copyright YOUR COMPANY, THE YEAR
   4:./Init.h      ****  * All Rights Reserved
   5:./Init.h      ****  * UNPUBLISHED, LICENSED SOFTWARE.
ARM GAS  C:\Users\LOCALA~1\AppData\Local\Temp\cczriwEO.s 			page 66


   6:./Init.h      ****  *
   7:./Init.h      ****  * CONFIDENTIAL AND PROPRIETARY INFORMATION
   8:./Init.h      ****  * WHICH IS THE PROPERTY OF your company.
   9:./Init.h      ****  *
  10:./Init.h      ****  * ========================================
  11:./Init.h      **** */
  12:./Init.h      **** #ifndef INIT_H
  13:./Init.h      ****     #define INIT_H
  14:./Init.h      **** 
  15:./Init.h      ****     #include <Includes.h>
  16:./Init.h      ****     
  17:./Init.h      ****     void Init_LED(int Status){
 2779              		.loc 13 17 0
 2780              		.cfi_startproc
 2781              		@ args = 0, pretend = 0, frame = 8
 2782              		@ frame_needed = 1, uses_anonymous_args = 0
 2783 0000 80B5     		push	{r7, lr}
 2784              		.cfi_def_cfa_offset 8
 2785              		.cfi_offset 7, -8
 2786              		.cfi_offset 14, -4
 2787 0002 82B0     		sub	sp, sp, #8
 2788              		.cfi_def_cfa_offset 16
 2789 0004 00AF     		add	r7, sp, #0
 2790              		.cfi_def_cfa_register 7
 2791 0006 7860     		str	r0, [r7, #4]
  18:./Init.h      ****         Pin_LED_Write(Status);
 2792              		.loc 13 18 0
 2793 0008 7B68     		ldr	r3, [r7, #4]
 2794 000a DBB2     		uxtb	r3, r3
 2795 000c 1846     		mov	r0, r3
 2796 000e FFF7FEFF 		bl	Pin_LED_Write
  19:./Init.h      ****     }
 2797              		.loc 13 19 0
 2798 0012 00BF     		nop
 2799 0014 0837     		adds	r7, r7, #8
 2800              		.cfi_def_cfa_offset 8
 2801 0016 BD46     		mov	sp, r7
 2802              		.cfi_def_cfa_register 13
 2803              		@ sp needed
 2804 0018 80BD     		pop	{r7, pc}
 2805              		.cfi_endproc
 2806              	.LFE108:
 2807              		.size	Init_LED, .-Init_LED
 2808 001a 00BF     		.section	.rodata
 2809              		.align	2
 2810              	.LC22:
 2811 011c 23496E69 		.ascii	"#Init started\012\000"
 2811      74207374 
 2811      61727465 
 2811      640A00
 2812 012b 00       		.align	2
 2813              	.LC23:
 2814 012c 23554152 		.ascii	"#UART started\302\264\012\000"
 2814      54207374 
 2814      61727465 
 2814      64C2B40A 
 2814      00
ARM GAS  C:\Users\LOCALA~1\AppData\Local\Temp\cczriwEO.s 			page 67


 2815 013d 000000   		.align	2
 2816              	.LC24:
 2817 0140 23537461 		.ascii	"#Started Timer\012\000"
 2817      72746564 
 2817      2054696D 
 2817      65720A00 
 2818              		.align	2
 2819              	.LC25:
 2820 0150 23436F6E 		.ascii	"#Connected Timer Interrupt\012\000"
 2820      6E656374 
 2820      65642054 
 2820      696D6572 
 2820      20496E74 
 2821              		.align	2
 2822              	.LC26:
 2823 016c 23537461 		.ascii	"#Started ADC\012\000"
 2823      72746564 
 2823      20414443 
 2823      0A00
 2824 017a 0000     		.align	2
 2825              	.LC27:
 2826 017c 23537461 		.ascii	"#Started Stepper\012\000"
 2826      72746564 
 2826      20537465 
 2826      70706572 
 2826      0A00
 2827 018e 0000     		.align	2
 2828              	.LC28:
 2829 0190 23537461 		.ascii	"#Started Nextion\012\000"
 2829      72746564 
 2829      204E6578 
 2829      74696F6E 
 2829      0A00
 2830 01a2 0000     		.align	2
 2831              	.LC29:
 2832 01a4 23436F6E 		.ascii	"#Connected Nextion Interrupt\012\000"
 2832      6E656374 
 2832      6564204E 
 2832      65787469 
 2832      6F6E2049 
 2833 01c2 0000     		.align	2
 2834              	.LC30:
 2835 01c4 2346696E 		.ascii	"#Finished Init\012\000"
 2835      69736865 
 2835      6420496E 
 2835      69740A00 
 2836              		.section	.text.Init,"ax",%progbits
 2837              		.align	2
 2838              		.global	Init
 2839              		.thumb
 2840              		.thumb_func
 2841              		.type	Init, %function
 2842              	Init:
 2843              	.LFB109:
  20:./Init.h      ****     
  21:./Init.h      ****     
  22:./Init.h      ****     void Init(){
ARM GAS  C:\Users\LOCALA~1\AppData\Local\Temp\cczriwEO.s 			page 68


 2844              		.loc 13 22 0
 2845              		.cfi_startproc
 2846              		@ args = 0, pretend = 0, frame = 0
 2847              		@ frame_needed = 1, uses_anonymous_args = 0
 2848 0000 80B5     		push	{r7, lr}
 2849              		.cfi_def_cfa_offset 8
 2850              		.cfi_offset 7, -8
 2851              		.cfi_offset 14, -4
 2852 0002 00AF     		add	r7, sp, #0
 2853              		.cfi_def_cfa_register 7
  23:./Init.h      ****         Init_LED(1);
 2854              		.loc 13 23 0
 2855 0004 0120     		movs	r0, #1
 2856 0006 FFF7FEFF 		bl	Init_LED
  24:./Init.h      ****         
  25:./Init.h      ****         #ifdef UART_PC                          // Init Serial Port for PC communication
  26:./Init.h      ****             UART_PC_Start();
 2857              		.loc 13 26 0
 2858 000a FFF7FEFF 		bl	UART_PC_Start
  27:./Init.h      ****             #ifdef UART_PC_INTERRUPT
  28:./Init.h      ****                 Interr_PC_StartEx(PCUART_Interrupt);
 2859              		.loc 13 28 0
 2860 000e 1948     		ldr	r0, .L174
 2861 0010 FFF7FEFF 		bl	Interr_PC_StartEx
  29:./Init.h      ****             #endif
  30:./Init.h      ****         #endif
  31:./Init.h      ****         
  32:./Init.h      ****         #ifdef DEBUG_INIT
  33:./Init.h      ****             UART_PC_PutString("#Init started\n");
 2862              		.loc 13 33 0
 2863 0014 1848     		ldr	r0, .L174+4
 2864 0016 FFF7FEFF 		bl	UART_PC_PutString
  34:./Init.h      ****             UART_PC_PutString("#UART started´\n");
 2865              		.loc 13 34 0
 2866 001a 1848     		ldr	r0, .L174+8
 2867 001c FFF7FEFF 		bl	UART_PC_PutString
  35:./Init.h      ****         #endif
  36:./Init.h      ****         #ifdef TIMER
  37:./Init.h      ****             Timer1_Start();
 2868              		.loc 13 37 0
 2869 0020 FFF7FEFF 		bl	Timer1_Start
  38:./Init.h      ****             #ifdef DEBUG_INIT
  39:./Init.h      ****                 UART_PC_PutString("#Started Timer\n");
 2870              		.loc 13 39 0
 2871 0024 1648     		ldr	r0, .L174+12
 2872 0026 FFF7FEFF 		bl	UART_PC_PutString
  40:./Init.h      ****             #endif
  41:./Init.h      ****             Timer1_Function_StartEx(Timer_Interrupt);
 2873              		.loc 13 41 0
 2874 002a 1648     		ldr	r0, .L174+16
 2875 002c FFF7FEFF 		bl	Timer1_Function_StartEx
  42:./Init.h      ****             #ifdef DEBUG_INIT
  43:./Init.h      ****                 UART_PC_PutString("#Connected Timer Interrupt\n");
 2876              		.loc 13 43 0
 2877 0030 1548     		ldr	r0, .L174+20
 2878 0032 FFF7FEFF 		bl	UART_PC_PutString
  44:./Init.h      ****             #endif
ARM GAS  C:\Users\LOCALA~1\AppData\Local\Temp\cczriwEO.s 			page 69


  45:./Init.h      ****         #endif
  46:./Init.h      ****         
  47:./Init.h      ****         #ifdef ADC
  48:./Init.h      ****             InitADC();
 2879              		.loc 13 48 0
 2880 0036 FFF7FEFF 		bl	InitADC
  49:./Init.h      ****             #ifdef DEBUG_INIT
  50:./Init.h      ****                 UART_PC_PutString("#Started ADC\n");    
 2881              		.loc 13 50 0
 2882 003a 1448     		ldr	r0, .L174+24
 2883 003c FFF7FEFF 		bl	UART_PC_PutString
  51:./Init.h      ****             #endif
  52:./Init.h      ****         #endif
  53:./Init.h      ****         
  54:./Init.h      ****         #ifdef STEPPER
  55:./Init.h      ****             InitStepper();    
 2884              		.loc 13 55 0
 2885 0040 FFF7FEFF 		bl	InitStepper
  56:./Init.h      ****             #ifdef DEBUG_INIT
  57:./Init.h      ****                 UART_PC_PutString("#Started Stepper\n");
 2886              		.loc 13 57 0
 2887 0044 1248     		ldr	r0, .L174+28
 2888 0046 FFF7FEFF 		bl	UART_PC_PutString
  58:./Init.h      ****             #endif
  59:./Init.h      ****         #endif
  60:./Init.h      ****         
  61:./Init.h      ****         #ifdef NEXTION // Last part of programm, since it shows the Initialising screen
  62:./Init.h      ****             InitNextion();
 2889              		.loc 13 62 0
 2890 004a FFF7FEFF 		bl	InitNextion
  63:./Init.h      ****             #ifdef DEBUG_INIT
  64:./Init.h      ****                 UART_PC_PutString("#Started Nextion\n");
 2891              		.loc 13 64 0
 2892 004e 1148     		ldr	r0, .L174+32
 2893 0050 FFF7FEFF 		bl	UART_PC_PutString
  65:./Init.h      ****             #endif
  66:./Init.h      ****             Interr_TFT_StartEx(Nextion_Interrupt);
 2894              		.loc 13 66 0
 2895 0054 1048     		ldr	r0, .L174+36
 2896 0056 FFF7FEFF 		bl	Interr_TFT_StartEx
  67:./Init.h      ****             #ifdef DEBUG_INIT
  68:./Init.h      ****                 UART_PC_PutString("#Connected Nextion Interrupt\n");
 2897              		.loc 13 68 0
 2898 005a 1048     		ldr	r0, .L174+40
 2899 005c FFF7FEFF 		bl	UART_PC_PutString
  69:./Init.h      ****             #endif
  70:./Init.h      ****         #endif
  71:./Init.h      ****         
  72:./Init.h      ****         #ifdef DEBUG_INIT
  73:./Init.h      ****             UART_PC_PutString("#Finished Init\n");    
 2900              		.loc 13 73 0
 2901 0060 0F48     		ldr	r0, .L174+44
 2902 0062 FFF7FEFF 		bl	UART_PC_PutString
  74:./Init.h      ****         #endif
  75:./Init.h      ****         
  76:./Init.h      ****         CyGlobalIntEnable;
 2903              		.loc 13 76 0
ARM GAS  C:\Users\LOCALA~1\AppData\Local\Temp\cczriwEO.s 			page 70


 2904              		.syntax unified
 2905              	@ 76 "./Init.h" 1
 2906 0066 62B6     		CPSIE   i
 2907              	@ 0 "" 2
  77:./Init.h      ****         Init_LED(0);
 2908              		.loc 13 77 0
 2909              		.thumb
 2910              		.syntax unified
 2911 0068 0020     		movs	r0, #0
 2912 006a FFF7FEFF 		bl	Init_LED
  78:./Init.h      ****     }
 2913              		.loc 13 78 0
 2914 006e 00BF     		nop
 2915 0070 80BD     		pop	{r7, pc}
 2916              	.L175:
 2917 0072 00BF     		.align	2
 2918              	.L174:
 2919 0074 00000000 		.word	PCUART_Interrupt
 2920 0078 1C010000 		.word	.LC22
 2921 007c 2C010000 		.word	.LC23
 2922 0080 40010000 		.word	.LC24
 2923 0084 00000000 		.word	Timer_Interrupt
 2924 0088 50010000 		.word	.LC25
 2925 008c 6C010000 		.word	.LC26
 2926 0090 7C010000 		.word	.LC27
 2927 0094 90010000 		.word	.LC28
 2928 0098 00000000 		.word	Nextion_Interrupt
 2929 009c A4010000 		.word	.LC29
 2930 00a0 C4010000 		.word	.LC30
 2931              		.cfi_endproc
 2932              	.LFE109:
 2933              		.size	Init, .-Init
 2934              		.section	.text.main,"ax",%progbits
 2935              		.align	2
 2936              		.global	main
 2937              		.thumb
 2938              		.thumb_func
 2939              		.type	main, %function
 2940              	main:
 2941              	.LFB110:
 2942              		.file 14 "main.c"
   1:main.c        **** /* ========================================
   2:main.c        ****  *
   3:main.c        ****  * Copyright YOUR COMPANY, THE YEAR
   4:main.c        ****  * All Rights Reserved
   5:main.c        ****  * UNPUBLISHED, LICENSED SOFTWARE.
   6:main.c        ****  *
   7:main.c        ****  * CONFIDENTIAL AND PROPRIETARY INFORMATION
   8:main.c        ****  * WHICH IS THE PROPERTY OF your company.
   9:main.c        ****  *
  10:main.c        ****  * ========================================
  11:main.c        **** */
  12:main.c        **** #ifndef MAIN_C
  13:main.c        ****     #define MAIN_C
  14:main.c        ****     
  15:main.c        ****     #include <Includes.h>
  16:main.c        ****     
ARM GAS  C:\Users\LOCALA~1\AppData\Local\Temp\cczriwEO.s 			page 71


  17:main.c        ****     int main(){
 2943              		.loc 14 17 0
 2944              		.cfi_startproc
 2945              		@ args = 0, pretend = 0, frame = 0
 2946              		@ frame_needed = 1, uses_anonymous_args = 0
 2947 0000 80B5     		push	{r7, lr}
 2948              		.cfi_def_cfa_offset 8
 2949              		.cfi_offset 7, -8
 2950              		.cfi_offset 14, -4
 2951 0002 00AF     		add	r7, sp, #0
 2952              		.cfi_def_cfa_register 7
  18:main.c        ****         Init();
 2953              		.loc 14 18 0
 2954 0004 FFF7FEFF 		bl	Init
 2955              	.L180:
  19:main.c        ****         
  20:main.c        ****         while (1){                  // Main-Schleife, Dauerhaft wiederholen
  21:main.c        ****             if (g_Nextion_InterruptSignal != 0){    
 2956              		.loc 14 21 0
 2957 0008 084B     		ldr	r3, .L181
 2958 000a 1B78     		ldrb	r3, [r3]	@ zero_extendqisi2
 2959 000c 002B     		cmp	r3, #0
 2960 000e FBD0     		beq	.L180
  22:main.c        ****                 switch(g_Nextion_InterruptSignal){
 2961              		.loc 14 22 0
 2962 0010 064B     		ldr	r3, .L181
 2963 0012 1B78     		ldrb	r3, [r3]	@ zero_extendqisi2
 2964 0014 482B     		cmp	r3, #72
 2965 0016 02D0     		beq	.L178
 2966 0018 502B     		cmp	r3, #80
 2967 001a 03D0     		beq	.L179
 2968 001c 05E0     		b	.L177
 2969              	.L178:
  23:main.c        ****                     case 'H':
  24:main.c        ****                         home();
 2970              		.loc 14 24 0
 2971 001e FFF7FEFF 		bl	home
  25:main.c        ****                         break;
 2972              		.loc 14 25 0
 2973 0022 02E0     		b	.L177
 2974              	.L179:
  26:main.c        ****                     #ifdef PCControl
  27:main.c        ****                     case 'P':
  28:main.c        ****                         pc_control();
 2975              		.loc 14 28 0
 2976 0024 FFF7FEFF 		bl	pc_control
  29:main.c        ****                         break;
 2977              		.loc 14 29 0
 2978 0028 00BF     		nop
 2979              	.L177:
  30:main.c        ****                     #endif
  31:main.c        ****                 }
  32:main.c        ****                 
  33:main.c        ****             }
  34:main.c        ****         }
 2980              		.loc 14 34 0
 2981 002a EDE7     		b	.L180
ARM GAS  C:\Users\LOCALA~1\AppData\Local\Temp\cczriwEO.s 			page 72


 2982              	.L182:
 2983              		.align	2
 2984              	.L181:
 2985 002c 00000000 		.word	g_Nextion_InterruptSignal
 2986              		.cfi_endproc
 2987              	.LFE110:
 2988              		.size	main, .-main
 2989              		.text
 2990              	.Letext0:
 2991              		.file 15 "d:\\programme\\psoc\\psoc creator\\4.2\\psoc creator\\import\\gnu\\arm\\5.4.1\\arm-none-
 2992              		.file 16 "d:\\programme\\psoc\\psoc creator\\4.2\\psoc creator\\import\\gnu\\arm\\5.4.1\\arm-none-
 2993              		.file 17 "Generated_Source\\PSoC5/cytypes.h"
 2994              		.file 18 "Generated_Source\\PSoC5/core_cm3.h"
 2995              		.file 19 "./GlobalVariables.h"