ARM GAS  C:\Users\LOCALA~1\AppData\Local\Temp\ccsQji0c.s 			page 1


   1              		.syntax unified
   2              		.cpu cortex-m3
   3              		.fpu softvfp
   4              		.eabi_attribute 20, 1
   5              		.eabi_attribute 21, 1
   6              		.eabi_attribute 23, 3
   7              		.eabi_attribute 24, 1
   8              		.eabi_attribute 25, 1
   9              		.eabi_attribute 26, 1
  10              		.eabi_attribute 30, 6
  11              		.eabi_attribute 34, 1
  12              		.eabi_attribute 18, 4
  13              		.thumb
  14              		.syntax unified
  15              		.file	"main.c"
  16              		.text
  17              	.Ltext0:
  18              		.cfi_sections	.debug_frame
  19              		.global	g_NextionInterrupt
  20              		.data
  21              		.type	g_NextionInterrupt, %object
  22              		.size	g_NextionInterrupt, 1
  23              	g_NextionInterrupt:
  24 0000 30       		.byte	48
  25              		.global	g_SliderValueReceiving
  26              		.bss
  27              		.type	g_SliderValueReceiving, %object
  28              		.size	g_SliderValueReceiving, 1
  29              	g_SliderValueReceiving:
  30 0000 00       		.space	1
  31              		.comm	g_SliderValueBuffer,4,4
  32              		.global	g_Error_Code
  33 0001 000000   		.align	2
  34              		.type	g_Error_Code, %object
  35              		.size	g_Error_Code, 4
  36              	g_Error_Code:
  37 0004 00000000 		.space	4
  38              		.global	g_PCInterrupt
  39              		.data
  40              		.type	g_PCInterrupt, %object
  41              		.size	g_PCInterrupt, 1
  42              	g_PCInterrupt:
  43 0001 30       		.byte	48
  44              		.global	g_ActivePage
  45              		.type	g_ActivePage, %object
  46              		.size	g_ActivePage, 1
  47              	g_ActivePage:
  48 0002 30       		.byte	48
  49              		.global	g_NumberOfMeasurements
  50              		.bss
  51              		.align	2
  52              		.type	g_NumberOfMeasurements, %object
  53              		.size	g_NumberOfMeasurements, 4
  54              	g_NumberOfMeasurements:
  55 0008 00000000 		.space	4
  56              		.global	g_SwitchPeriodOfLaser_ms
  57              		.align	2
ARM GAS  C:\Users\LOCALA~1\AppData\Local\Temp\ccsQji0c.s 			page 2


  58              		.type	g_SwitchPeriodOfLaser_ms, %object
  59              		.size	g_SwitchPeriodOfLaser_ms, 4
  60              	g_SwitchPeriodOfLaser_ms:
  61 000c 00000000 		.space	4
  62              		.global	g_MaxMeasurementTime_min
  63              		.align	2
  64              		.type	g_MaxMeasurementTime_min, %object
  65              		.size	g_MaxMeasurementTime_min, 4
  66              	g_MaxMeasurementTime_min:
  67 0010 00000000 		.space	4
  68              		.global	g_FormationTime_ms
  69              		.align	2
  70              		.type	g_FormationTime_ms, %object
  71              		.size	g_FormationTime_ms, 4
  72              	g_FormationTime_ms:
  73 0014 00000000 		.space	4
  74              		.global	g_RelaxationTime_ms
  75              		.align	2
  76              		.type	g_RelaxationTime_ms, %object
  77              		.size	g_RelaxationTime_ms, 4
  78              	g_RelaxationTime_ms:
  79 0018 00000000 		.space	4
  80              		.global	g_ConfirmationTime_ms
  81              		.align	2
  82              		.type	g_ConfirmationTime_ms, %object
  83              		.size	g_ConfirmationTime_ms, 4
  84              	g_ConfirmationTime_ms:
  85 001c 00000000 		.space	4
  86              		.global	g_ThresholdValue_mV
  87              		.align	2
  88              		.type	g_ThresholdValue_mV, %object
  89              		.size	g_ThresholdValue_mV, 4
  90              	g_ThresholdValue_mV:
  91 0020 00000000 		.space	4
  92              		.global	g_DataLogging
  93              		.type	g_DataLogging, %object
  94              		.size	g_DataLogging, 1
  95              	g_DataLogging:
  96 0024 00       		.space	1
  97              		.global	MAXMEASUREMENTSTEPS
  98              		.section	.rodata
  99              		.align	2
 100              		.type	MAXMEASUREMENTSTEPS, %object
 101              		.size	MAXMEASUREMENTSTEPS, 4
 102              	MAXMEASUREMENTSTEPS:
 103 0000 04000000 		.word	4
 104              		.comm	g_measurementLasers,12,4
 105              		.global	LaserState1
 106              		.bss
 107              		.type	LaserState1, %object
 108              		.size	LaserState1, 1
 109              	LaserState1:
 110 0025 00       		.space	1
 111              		.global	LaserState2
 112              		.type	LaserState2, %object
 113              		.size	LaserState2, 1
 114              	LaserState2:
ARM GAS  C:\Users\LOCALA~1\AppData\Local\Temp\ccsQji0c.s 			page 3


 115 0026 00       		.space	1
 116              		.global	LaserState3
 117              		.type	LaserState3, %object
 118              		.size	LaserState3, 1
 119              	LaserState3:
 120 0027 00       		.space	1
 121              		.global	OutputState1
 122              		.type	OutputState1, %object
 123              		.size	OutputState1, 1
 124              	OutputState1:
 125 0028 00       		.space	1
 126              		.global	OutputState2
 127              		.type	OutputState2, %object
 128              		.size	OutputState2, 1
 129              	OutputState2:
 130 0029 00       		.space	1
 131              		.global	v_timer_100ms
 132 002a 0000     		.align	2
 133              		.type	v_timer_100ms, %object
 134              		.size	v_timer_100ms, 4
 135              	v_timer_100ms:
 136 002c 00000000 		.space	4
 137              		.global	v_timerflag_100ms
 138              		.type	v_timerflag_100ms, %object
 139              		.size	v_timerflag_100ms, 1
 140              	v_timerflag_100ms:
 141 0030 00       		.space	1
 142              		.global	v_timer_waiting
 143 0031 000000   		.align	2
 144              		.type	v_timer_waiting, %object
 145              		.size	v_timer_waiting, 4
 146              	v_timer_waiting:
 147 0034 00000000 		.space	4
 148              		.global	v_timerflag_waiting
 149              		.type	v_timerflag_waiting, %object
 150              		.size	v_timerflag_waiting, 1
 151              	v_timerflag_waiting:
 152 0038 00       		.space	1
 153              		.global	v_timer_Lifetime_ms
 154 0039 00000000 		.align	3
 154      000000
 155              		.type	v_timer_Lifetime_ms, %object
 156              		.size	v_timer_Lifetime_ms, 8
 157              	v_timer_Lifetime_ms:
 158 0040 00000000 		.space	8
 158      00000000 
 159              		.global	v_timer_Measurement
 160              		.align	2
 161              		.type	v_timer_Measurement, %object
 162              		.size	v_timer_Measurement, 4
 163              	v_timer_Measurement:
 164 0048 00000000 		.space	4
 165              		.global	v_timerflag_Measurement
 166              		.align	2
 167              		.type	v_timerflag_Measurement, %object
 168              		.size	v_timerflag_Measurement, 4
 169              	v_timerflag_Measurement:
ARM GAS  C:\Users\LOCALA~1\AppData\Local\Temp\ccsQji0c.s 			page 4


 170 004c 00000000 		.space	4
 171              		.global	v_timer_LaserSwitch
 172              		.align	2
 173              		.type	v_timer_LaserSwitch, %object
 174              		.size	v_timer_LaserSwitch, 4
 175              	v_timer_LaserSwitch:
 176 0050 00000000 		.space	4
 177              		.global	v_timerflag_LaserSwitch
 178              		.align	2
 179              		.type	v_timerflag_LaserSwitch, %object
 180              		.size	v_timerflag_LaserSwitch, 4
 181              	v_timerflag_LaserSwitch:
 182 0054 00000000 		.space	4
 183              		.global	v_timer_500ms
 184              		.align	2
 185              		.type	v_timer_500ms, %object
 186              		.size	v_timer_500ms, 4
 187              	v_timer_500ms:
 188 0058 00000000 		.space	4
 189              		.global	v_timerflag_500ms
 190              		.align	2
 191              		.type	v_timerflag_500ms, %object
 192              		.size	v_timerflag_500ms, 4
 193              	v_timerflag_500ms:
 194 005c 00000000 		.space	4
 195              		.section	.text.Nextion_SendEndOfCommunication,"ax",%progbits
 196              		.align	2
 197              		.global	Nextion_SendEndOfCommunication
 198              		.thumb
 199              		.thumb_func
 200              		.type	Nextion_SendEndOfCommunication, %function
 201              	Nextion_SendEndOfCommunication:
 202              	.LFB64:
 203              		.file 1 "./Nextion.h"
   1:./Nextion.h   **** /* ========================================
   2:./Nextion.h   ****  *
   3:./Nextion.h   ****  * Copyright YOUR COMPANY, THE YEAR
   4:./Nextion.h   ****  * All Rights Reserved
   5:./Nextion.h   ****  * UNPUBLISHED, LICENSED SOFTWARE.
   6:./Nextion.h   ****  *
   7:./Nextion.h   ****  * CONFIDENTIAL AND PROPRIETARY INFORMATION
   8:./Nextion.h   ****  * WHICH IS THE PROPERTY OF your company.
   9:./Nextion.h   ****  *
  10:./Nextion.h   ****  * ========================================
  11:./Nextion.h   **** */
  12:./Nextion.h   **** 
  13:./Nextion.h   **** #ifndef NEXTION_H
  14:./Nextion.h   ****     #define NEXTION_H
  15:./Nextion.h   **** 
  16:./Nextion.h   ****     #include <project.h>
  17:./Nextion.h   ****     #include <stdlib.h>
  18:./Nextion.h   ****     #include <ProgramParts.h>
  19:./Nextion.h   ****     #include <GlobalVariables.h>
  20:./Nextion.h   ****     
  21:./Nextion.h   ****     void Nextion_SendEndOfCommunication()
  22:./Nextion.h   ****     {
 204              		.loc 1 22 0
ARM GAS  C:\Users\LOCALA~1\AppData\Local\Temp\ccsQji0c.s 			page 5


 205              		.cfi_startproc
 206              		@ args = 0, pretend = 0, frame = 0
 207              		@ frame_needed = 1, uses_anonymous_args = 0
 208 0000 80B5     		push	{r7, lr}
 209              		.cfi_def_cfa_offset 8
 210              		.cfi_offset 7, -8
 211              		.cfi_offset 14, -4
 212 0002 00AF     		add	r7, sp, #0
 213              		.cfi_def_cfa_register 7
  23:./Nextion.h   ****         CyDelay(10);
 214              		.loc 1 23 0
 215 0004 0A20     		movs	r0, #10
 216 0006 FFF7FEFF 		bl	CyDelay
  24:./Nextion.h   ****         UART_TFT_PutChar(0xFF);
 217              		.loc 1 24 0
 218 000a FF20     		movs	r0, #255
 219 000c FFF7FEFF 		bl	UART_TFT_PutChar
  25:./Nextion.h   ****         UART_TFT_PutChar(0xFF);
 220              		.loc 1 25 0
 221 0010 FF20     		movs	r0, #255
 222 0012 FFF7FEFF 		bl	UART_TFT_PutChar
  26:./Nextion.h   ****         UART_TFT_PutChar(0xFF);
 223              		.loc 1 26 0
 224 0016 FF20     		movs	r0, #255
 225 0018 FFF7FEFF 		bl	UART_TFT_PutChar
  27:./Nextion.h   ****     }
 226              		.loc 1 27 0
 227 001c 00BF     		nop
 228 001e 80BD     		pop	{r7, pc}
 229              		.cfi_endproc
 230              	.LFE64:
 231              		.size	Nextion_SendEndOfCommunication, .-Nextion_SendEndOfCommunication
 232              		.section	.text.Nextion_SendString,"ax",%progbits
 233              		.align	2
 234              		.global	Nextion_SendString
 235              		.thumb
 236              		.thumb_func
 237              		.type	Nextion_SendString, %function
 238              	Nextion_SendString:
 239              	.LFB65:
  28:./Nextion.h   ****     
  29:./Nextion.h   ****     void Nextion_SendString(const char *string)
  30:./Nextion.h   ****     {
 240              		.loc 1 30 0
 241              		.cfi_startproc
 242              		@ args = 0, pretend = 0, frame = 8
 243              		@ frame_needed = 1, uses_anonymous_args = 0
 244 0000 80B5     		push	{r7, lr}
 245              		.cfi_def_cfa_offset 8
 246              		.cfi_offset 7, -8
 247              		.cfi_offset 14, -4
 248 0002 82B0     		sub	sp, sp, #8
 249              		.cfi_def_cfa_offset 16
 250 0004 00AF     		add	r7, sp, #0
 251              		.cfi_def_cfa_register 7
 252 0006 7860     		str	r0, [r7, #4]
  31:./Nextion.h   ****         UART_TFT_PutString(string);
ARM GAS  C:\Users\LOCALA~1\AppData\Local\Temp\ccsQji0c.s 			page 6


 253              		.loc 1 31 0
 254 0008 7868     		ldr	r0, [r7, #4]
 255 000a FFF7FEFF 		bl	UART_TFT_PutString
  32:./Nextion.h   ****         Nextion_SendEndOfCommunication();
 256              		.loc 1 32 0
 257 000e FFF7FEFF 		bl	Nextion_SendEndOfCommunication
  33:./Nextion.h   ****     }
 258              		.loc 1 33 0
 259 0012 00BF     		nop
 260 0014 0837     		adds	r7, r7, #8
 261              		.cfi_def_cfa_offset 8
 262 0016 BD46     		mov	sp, r7
 263              		.cfi_def_cfa_register 13
 264              		@ sp needed
 265 0018 80BD     		pop	{r7, pc}
 266              		.cfi_endproc
 267              	.LFE65:
 268              		.size	Nextion_SendString, .-Nextion_SendString
 269 001a 00BF     		.section	.rodata
 270              		.align	2
 271              	.LC0:
 272 0004 2E76616C 		.ascii	".val=\000"
 272      3D00
 273              		.section	.text.Nextion_SendValueToValueBox,"ax",%progbits
 274              		.align	2
 275              		.global	Nextion_SendValueToValueBox
 276              		.thumb
 277              		.thumb_func
 278              		.type	Nextion_SendValueToValueBox, %function
 279              	Nextion_SendValueToValueBox:
 280              	.LFB66:
  34:./Nextion.h   ****     
  35:./Nextion.h   ****     void Nextion_SendValueToValueBox(const char *string, const int value)
  36:./Nextion.h   ****     {
 281              		.loc 1 36 0
 282              		.cfi_startproc
 283              		@ args = 0, pretend = 0, frame = 32
 284              		@ frame_needed = 1, uses_anonymous_args = 0
 285 0000 80B5     		push	{r7, lr}
 286              		.cfi_def_cfa_offset 8
 287              		.cfi_offset 7, -8
 288              		.cfi_offset 14, -4
 289 0002 88B0     		sub	sp, sp, #32
 290              		.cfi_def_cfa_offset 40
 291 0004 00AF     		add	r7, sp, #0
 292              		.cfi_def_cfa_register 7
 293 0006 7860     		str	r0, [r7, #4]
 294 0008 3960     		str	r1, [r7]
  37:./Nextion.h   ****         // Hilfsvariable mit 20 Zeichen, in der new_value als char gespeichert wird
  38:./Nextion.h   ****         char num_str[20];
  39:./Nextion.h   ****     
  40:./Nextion.h   ****         // neuen Wert setzen
  41:./Nextion.h   ****         UART_TFT_PutString((char*)string);
 295              		.loc 1 41 0
 296 000a 7868     		ldr	r0, [r7, #4]
 297 000c FFF7FEFF 		bl	UART_TFT_PutString
  42:./Nextion.h   ****         UART_TFT_PutString((char*)".val=");
ARM GAS  C:\Users\LOCALA~1\AppData\Local\Temp\ccsQji0c.s 			page 7


 298              		.loc 1 42 0
 299 0010 0A48     		ldr	r0, .L4
 300 0012 FFF7FEFF 		bl	UART_TFT_PutString
  43:./Nextion.h   ****         // Umwandlung Integer -> Array of char ("String") x_str im Decimalsystem
  44:./Nextion.h   ****         itoa(value, num_str, 10);
 301              		.loc 1 44 0
 302 0016 07F10C03 		add	r3, r7, #12
 303 001a 0A22     		movs	r2, #10
 304 001c 1946     		mov	r1, r3
 305 001e 3868     		ldr	r0, [r7]
 306 0020 FFF7FEFF 		bl	itoa
  45:./Nextion.h   ****         UART_TFT_PutString((char*)num_str);
 307              		.loc 1 45 0
 308 0024 07F10C03 		add	r3, r7, #12
 309 0028 1846     		mov	r0, r3
 310 002a FFF7FEFF 		bl	UART_TFT_PutString
  46:./Nextion.h   ****         // Anfrage absenden
  47:./Nextion.h   ****         Nextion_SendEndOfCommunication();
 311              		.loc 1 47 0
 312 002e FFF7FEFF 		bl	Nextion_SendEndOfCommunication
  48:./Nextion.h   ****     }
 313              		.loc 1 48 0
 314 0032 00BF     		nop
 315 0034 2037     		adds	r7, r7, #32
 316              		.cfi_def_cfa_offset 8
 317 0036 BD46     		mov	sp, r7
 318              		.cfi_def_cfa_register 13
 319              		@ sp needed
 320 0038 80BD     		pop	{r7, pc}
 321              	.L5:
 322 003a 00BF     		.align	2
 323              	.L4:
 324 003c 04000000 		.word	.LC0
 325              		.cfi_endproc
 326              	.LFE66:
 327              		.size	Nextion_SendValueToValueBox, .-Nextion_SendValueToValueBox
 328              		.section	.rodata
 329 000a 0000     		.align	2
 330              	.LC1:
 331 000c 2E747874 		.ascii	".txt=\"\000"
 331      3D2200
 332 0013 00       		.align	2
 333              	.LC2:
 334 0014 2200     		.ascii	"\"\000"
 335              		.section	.text.Nextion_SendTextToTextBox,"ax",%progbits
 336              		.align	2
 337              		.global	Nextion_SendTextToTextBox
 338              		.thumb
 339              		.thumb_func
 340              		.type	Nextion_SendTextToTextBox, %function
 341              	Nextion_SendTextToTextBox:
 342              	.LFB67:
  49:./Nextion.h   ****     
  50:./Nextion.h   ****     void Nextion_SendTextToTextBox(char *string, char *value)
  51:./Nextion.h   ****     {
 343              		.loc 1 51 0
 344              		.cfi_startproc
ARM GAS  C:\Users\LOCALA~1\AppData\Local\Temp\ccsQji0c.s 			page 8


 345              		@ args = 0, pretend = 0, frame = 8
 346              		@ frame_needed = 1, uses_anonymous_args = 0
 347 0000 80B5     		push	{r7, lr}
 348              		.cfi_def_cfa_offset 8
 349              		.cfi_offset 7, -8
 350              		.cfi_offset 14, -4
 351 0002 82B0     		sub	sp, sp, #8
 352              		.cfi_def_cfa_offset 16
 353 0004 00AF     		add	r7, sp, #0
 354              		.cfi_def_cfa_register 7
 355 0006 7860     		str	r0, [r7, #4]
 356 0008 3960     		str	r1, [r7]
  52:./Nextion.h   ****         UART_TFT_PutString((char*)string);
 357              		.loc 1 52 0
 358 000a 7868     		ldr	r0, [r7, #4]
 359 000c FFF7FEFF 		bl	UART_TFT_PutString
  53:./Nextion.h   ****         UART_TFT_PutString((char*)".txt=\"");
 360              		.loc 1 53 0
 361 0010 0748     		ldr	r0, .L7
 362 0012 FFF7FEFF 		bl	UART_TFT_PutString
  54:./Nextion.h   ****         UART_TFT_PutString((char*)value);
 363              		.loc 1 54 0
 364 0016 3868     		ldr	r0, [r7]
 365 0018 FFF7FEFF 		bl	UART_TFT_PutString
  55:./Nextion.h   ****         UART_TFT_PutString("\"");
 366              		.loc 1 55 0
 367 001c 0548     		ldr	r0, .L7+4
 368 001e FFF7FEFF 		bl	UART_TFT_PutString
  56:./Nextion.h   ****         // Anfrage absenden
  57:./Nextion.h   ****         Nextion_SendEndOfCommunication();
 369              		.loc 1 57 0
 370 0022 FFF7FEFF 		bl	Nextion_SendEndOfCommunication
  58:./Nextion.h   ****     }
 371              		.loc 1 58 0
 372 0026 00BF     		nop
 373 0028 0837     		adds	r7, r7, #8
 374              		.cfi_def_cfa_offset 8
 375 002a BD46     		mov	sp, r7
 376              		.cfi_def_cfa_register 13
 377              		@ sp needed
 378 002c 80BD     		pop	{r7, pc}
 379              	.L8:
 380 002e 00BF     		.align	2
 381              	.L7:
 382 0030 0C000000 		.word	.LC1
 383 0034 14000000 		.word	.LC2
 384              		.cfi_endproc
 385              	.LFE67:
 386              		.size	Nextion_SendTextToTextBox, .-Nextion_SendTextToTextBox
 387              		.section	.text.Nextion_GetSliderValue,"ax",%progbits
 388              		.align	2
 389              		.global	Nextion_GetSliderValue
 390              		.thumb
 391              		.thumb_func
 392              		.type	Nextion_GetSliderValue, %function
 393              	Nextion_GetSliderValue:
 394              	.LFB68:
ARM GAS  C:\Users\LOCALA~1\AppData\Local\Temp\ccsQji0c.s 			page 9


  59:./Nextion.h   ****     
  60:./Nextion.h   ****     int Nextion_GetSliderValue(){
 395              		.loc 1 60 0
 396              		.cfi_startproc
 397              		@ args = 0, pretend = 0, frame = 8
 398              		@ frame_needed = 1, uses_anonymous_args = 0
 399              		@ link register save eliminated.
 400 0000 80B4     		push	{r7}
 401              		.cfi_def_cfa_offset 4
 402              		.cfi_offset 7, -4
 403 0002 83B0     		sub	sp, sp, #12
 404              		.cfi_def_cfa_offset 16
 405 0004 00AF     		add	r7, sp, #0
 406              		.cfi_def_cfa_register 7
  61:./Nextion.h   ****         int slider_value = (g_SliderValueBuffer[0]+g_SliderValueBuffer[1]*256);
 407              		.loc 1 61 0
 408 0006 074B     		ldr	r3, .L11
 409 0008 1B78     		ldrb	r3, [r3]	@ zero_extendqisi2
 410 000a 1A46     		mov	r2, r3
 411 000c 054B     		ldr	r3, .L11
 412 000e 5B78     		ldrb	r3, [r3, #1]	@ zero_extendqisi2
 413 0010 1B02     		lsls	r3, r3, #8
 414 0012 1344     		add	r3, r3, r2
 415 0014 7B60     		str	r3, [r7, #4]
  62:./Nextion.h   ****         return slider_value;
 416              		.loc 1 62 0
 417 0016 7B68     		ldr	r3, [r7, #4]
  63:./Nextion.h   ****     }
 418              		.loc 1 63 0
 419 0018 1846     		mov	r0, r3
 420 001a 0C37     		adds	r7, r7, #12
 421              		.cfi_def_cfa_offset 4
 422 001c BD46     		mov	sp, r7
 423              		.cfi_def_cfa_register 13
 424              		@ sp needed
 425 001e 80BC     		pop	{r7}
 426              		.cfi_restore 7
 427              		.cfi_def_cfa_offset 0
 428 0020 7047     		bx	lr
 429              	.L12:
 430 0022 00BF     		.align	2
 431              	.L11:
 432 0024 00000000 		.word	g_SliderValueBuffer
 433              		.cfi_endproc
 434              	.LFE68:
 435              		.size	Nextion_GetSliderValue, .-Nextion_GetSliderValue
 436              		.section	.rodata
 437 0016 0000     		.align	2
 438              	.LC3:
 439 0018 2E62636F 		.ascii	".bco=\000"
 439      3D00
 440              		.section	.text.Nextion_SendBackgroundColorToButton,"ax",%progbits
 441              		.align	2
 442              		.global	Nextion_SendBackgroundColorToButton
 443              		.thumb
 444              		.thumb_func
 445              		.type	Nextion_SendBackgroundColorToButton, %function
ARM GAS  C:\Users\LOCALA~1\AppData\Local\Temp\ccsQji0c.s 			page 10


 446              	Nextion_SendBackgroundColorToButton:
 447              	.LFB69:
  64:./Nextion.h   ****     
  65:./Nextion.h   ****     void Nextion_SendBackgroundColorToButton(char *string, int color)
  66:./Nextion.h   ****     {
 448              		.loc 1 66 0
 449              		.cfi_startproc
 450              		@ args = 0, pretend = 0, frame = 32
 451              		@ frame_needed = 1, uses_anonymous_args = 0
 452 0000 80B5     		push	{r7, lr}
 453              		.cfi_def_cfa_offset 8
 454              		.cfi_offset 7, -8
 455              		.cfi_offset 14, -4
 456 0002 88B0     		sub	sp, sp, #32
 457              		.cfi_def_cfa_offset 40
 458 0004 00AF     		add	r7, sp, #0
 459              		.cfi_def_cfa_register 7
 460 0006 7860     		str	r0, [r7, #4]
 461 0008 3960     		str	r1, [r7]
  67:./Nextion.h   ****         char num_str[20];
  68:./Nextion.h   ****         itoa(color, num_str, 10);
 462              		.loc 1 68 0
 463 000a 07F10C03 		add	r3, r7, #12
 464 000e 0A22     		movs	r2, #10
 465 0010 1946     		mov	r1, r3
 466 0012 3868     		ldr	r0, [r7]
 467 0014 FFF7FEFF 		bl	itoa
  69:./Nextion.h   ****         UART_TFT_PutString((char*)string);
 468              		.loc 1 69 0
 469 0018 7868     		ldr	r0, [r7, #4]
 470 001a FFF7FEFF 		bl	UART_TFT_PutString
  70:./Nextion.h   ****         UART_TFT_PutString((char*)".bco=");
 471              		.loc 1 70 0
 472 001e 0748     		ldr	r0, .L14
 473 0020 FFF7FEFF 		bl	UART_TFT_PutString
  71:./Nextion.h   ****         UART_TFT_PutString((char*)num_str);
 474              		.loc 1 71 0
 475 0024 07F10C03 		add	r3, r7, #12
 476 0028 1846     		mov	r0, r3
 477 002a FFF7FEFF 		bl	UART_TFT_PutString
  72:./Nextion.h   ****         Nextion_SendEndOfCommunication();
 478              		.loc 1 72 0
 479 002e FFF7FEFF 		bl	Nextion_SendEndOfCommunication
  73:./Nextion.h   ****     }
 480              		.loc 1 73 0
 481 0032 00BF     		nop
 482 0034 2037     		adds	r7, r7, #32
 483              		.cfi_def_cfa_offset 8
 484 0036 BD46     		mov	sp, r7
 485              		.cfi_def_cfa_register 13
 486              		@ sp needed
 487 0038 80BD     		pop	{r7, pc}
 488              	.L15:
 489 003a 00BF     		.align	2
 490              	.L14:
 491 003c 18000000 		.word	.LC3
 492              		.cfi_endproc
ARM GAS  C:\Users\LOCALA~1\AppData\Local\Temp\ccsQji0c.s 			page 11


 493              	.LFE69:
 494              		.size	Nextion_SendBackgroundColorToButton, .-Nextion_SendBackgroundColorToButton
 495              		.section	.rodata
 496 001e 0000     		.align	2
 497              	.LC4:
 498 0020 70616765 		.ascii	"page Home\000"
 498      20486F6D 
 498      6500
 499              		.section	.text.Init_Nextion,"ax",%progbits
 500              		.align	2
 501              		.global	Init_Nextion
 502              		.thumb
 503              		.thumb_func
 504              		.type	Init_Nextion, %function
 505              	Init_Nextion:
 506              	.LFB70:
  74:./Nextion.h   ****     
  75:./Nextion.h   ****     void Init_Nextion()
  76:./Nextion.h   ****     {
 507              		.loc 1 76 0
 508              		.cfi_startproc
 509              		@ args = 0, pretend = 0, frame = 0
 510              		@ frame_needed = 1, uses_anonymous_args = 0
 511 0000 80B5     		push	{r7, lr}
 512              		.cfi_def_cfa_offset 8
 513              		.cfi_offset 7, -8
 514              		.cfi_offset 14, -4
 515 0002 00AF     		add	r7, sp, #0
 516              		.cfi_def_cfa_register 7
  77:./Nextion.h   ****         UART_TFT_Start();
 517              		.loc 1 77 0
 518 0004 FFF7FEFF 		bl	UART_TFT_Start
  78:./Nextion.h   ****         CyDelay(2000);
 519              		.loc 1 78 0
 520 0008 4FF4FA60 		mov	r0, #2000
 521 000c FFF7FEFF 		bl	CyDelay
  79:./Nextion.h   ****         Nextion_SendString("page Home");
 522              		.loc 1 79 0
 523 0010 0248     		ldr	r0, .L17
 524 0012 FFF7FEFF 		bl	Nextion_SendString
  80:./Nextion.h   ****         
  81:./Nextion.h   ****     }
 525              		.loc 1 81 0
 526 0016 00BF     		nop
 527 0018 80BD     		pop	{r7, pc}
 528              	.L18:
 529 001a 00BF     		.align	2
 530              	.L17:
 531 001c 20000000 		.word	.LC4
 532              		.cfi_endproc
 533              	.LFE70:
 534              		.size	Init_Nextion, .-Init_Nextion
 535              		.section	.text.setError,"ax",%progbits
 536              		.align	2
 537              		.global	setError
 538              		.thumb
 539              		.thumb_func
ARM GAS  C:\Users\LOCALA~1\AppData\Local\Temp\ccsQji0c.s 			page 12


 540              		.type	setError, %function
 541              	setError:
 542              	.LFB71:
 543              		.file 2 "./Error.h"
   1:./Error.h     **** /* ========================================
   2:./Error.h     ****  *
   3:./Error.h     ****  * Copyright YOUR COMPANY, THE YEAR
   4:./Error.h     ****  * All Rights Reserved
   5:./Error.h     ****  * UNPUBLISHED, LICENSED SOFTWARE.
   6:./Error.h     ****  *
   7:./Error.h     ****  * CONFIDENTIAL AND PROPRIETARY INFORMATION
   8:./Error.h     ****  * WHICH IS THE PROPERTY OF your company.
   9:./Error.h     ****  *
  10:./Error.h     ****  * ========================================
  11:./Error.h     **** */
  12:./Error.h     **** #ifndef ERROR_H
  13:./Error.h     ****     #define ERROR_H
  14:./Error.h     ****     
  15:./Error.h     ****     #include <Nextion.h>
  16:./Error.h     ****     #include <GlobalVariables.h>
  17:./Error.h     ****     
  18:./Error.h     ****     void setError(int code)
  19:./Error.h     ****     {
 544              		.loc 2 19 0
 545              		.cfi_startproc
 546              		@ args = 0, pretend = 0, frame = 8
 547              		@ frame_needed = 1, uses_anonymous_args = 0
 548              		@ link register save eliminated.
 549 0000 80B4     		push	{r7}
 550              		.cfi_def_cfa_offset 4
 551              		.cfi_offset 7, -4
 552 0002 83B0     		sub	sp, sp, #12
 553              		.cfi_def_cfa_offset 16
 554 0004 00AF     		add	r7, sp, #0
 555              		.cfi_def_cfa_register 7
 556 0006 7860     		str	r0, [r7, #4]
  20:./Error.h     ****         g_Error_Code = code;
 557              		.loc 2 20 0
 558 0008 034A     		ldr	r2, .L20
 559 000a 7B68     		ldr	r3, [r7, #4]
 560 000c 1360     		str	r3, [r2]
  21:./Error.h     ****     }
 561              		.loc 2 21 0
 562 000e 00BF     		nop
 563 0010 0C37     		adds	r7, r7, #12
 564              		.cfi_def_cfa_offset 4
 565 0012 BD46     		mov	sp, r7
 566              		.cfi_def_cfa_register 13
 567              		@ sp needed
 568 0014 80BC     		pop	{r7}
 569              		.cfi_restore 7
 570              		.cfi_def_cfa_offset 0
 571 0016 7047     		bx	lr
 572              	.L21:
 573              		.align	2
 574              	.L20:
 575 0018 00000000 		.word	g_Error_Code
ARM GAS  C:\Users\LOCALA~1\AppData\Local\Temp\ccsQji0c.s 			page 13


 576              		.cfi_endproc
 577              	.LFE71:
 578              		.size	setError, .-setError
 579              		.section	.rodata
 580 002a 0000     		.align	2
 581              	.LC5:
 582 002c 70616765 		.ascii	"page Error\000"
 582      20457272 
 582      6F7200
 583 0037 00       		.align	2
 584              	.LC6:
 585 0038 6E5F4572 		.ascii	"n_ErrorCode\000"
 585      726F7243 
 585      6F646500 
 586              		.section	.text.Error,"ax",%progbits
 587              		.align	2
 588              		.global	Error
 589              		.thumb
 590              		.thumb_func
 591              		.type	Error, %function
 592              	Error:
 593              	.LFB72:
  22:./Error.h     ****     
  23:./Error.h     ****     void Error()
  24:./Error.h     ****     {
 594              		.loc 2 24 0
 595              		.cfi_startproc
 596              		@ args = 0, pretend = 0, frame = 0
 597              		@ frame_needed = 1, uses_anonymous_args = 0
 598 0000 80B5     		push	{r7, lr}
 599              		.cfi_def_cfa_offset 8
 600              		.cfi_offset 7, -8
 601              		.cfi_offset 14, -4
 602 0002 00AF     		add	r7, sp, #0
 603              		.cfi_def_cfa_register 7
  25:./Error.h     ****         // INIT
  26:./Error.h     ****         
  27:./Error.h     ****         // MAIN
  28:./Error.h     ****         
  29:./Error.h     ****         Nextion_SendString("page Error");
 604              		.loc 2 29 0
 605 0004 0F48     		ldr	r0, .L25
 606 0006 FFF7FEFF 		bl	Nextion_SendString
  30:./Error.h     ****         CyDelay(100);
 607              		.loc 2 30 0
 608 000a 6420     		movs	r0, #100
 609 000c FFF7FEFF 		bl	CyDelay
  31:./Error.h     ****        
  32:./Error.h     ****         Nextion_SendValueToValueBox("n_ErrorCode", g_Error_Code);
 610              		.loc 2 32 0
 611 0010 0D4B     		ldr	r3, .L25+4
 612 0012 1B68     		ldr	r3, [r3]
 613 0014 1946     		mov	r1, r3
 614 0016 0D48     		ldr	r0, .L25+8
 615 0018 FFF7FEFF 		bl	Nextion_SendValueToValueBox
  33:./Error.h     ****         CyDelay(100);
 616              		.loc 2 33 0
ARM GAS  C:\Users\LOCALA~1\AppData\Local\Temp\ccsQji0c.s 			page 14


 617 001c 6420     		movs	r0, #100
 618 001e FFF7FEFF 		bl	CyDelay
  34:./Error.h     ****         g_Error_Code = 0;
 619              		.loc 2 34 0
 620 0022 094B     		ldr	r3, .L25+4
 621 0024 0022     		movs	r2, #0
 622 0026 1A60     		str	r2, [r3]
  35:./Error.h     ****         
  36:./Error.h     ****         while (g_NextionInterrupt != BUTTON_HOME)
 623              		.loc 2 36 0
 624 0028 02E0     		b	.L23
 625              	.L24:
  37:./Error.h     ****         {
  38:./Error.h     ****             CyDelay(5);
 626              		.loc 2 38 0
 627 002a 0520     		movs	r0, #5
 628 002c FFF7FEFF 		bl	CyDelay
 629              	.L23:
  36:./Error.h     ****         {
 630              		.loc 2 36 0
 631 0030 074B     		ldr	r3, .L25+12
 632 0032 1B78     		ldrb	r3, [r3]	@ zero_extendqisi2
 633 0034 482B     		cmp	r3, #72
 634 0036 F8D1     		bne	.L24
  39:./Error.h     ****         }
  40:./Error.h     ****         g_NextionInterrupt = '0';
 635              		.loc 2 40 0
 636 0038 054B     		ldr	r3, .L25+12
 637 003a 3022     		movs	r2, #48
 638 003c 1A70     		strb	r2, [r3]
  41:./Error.h     ****     }
 639              		.loc 2 41 0
 640 003e 00BF     		nop
 641 0040 80BD     		pop	{r7, pc}
 642              	.L26:
 643 0042 00BF     		.align	2
 644              	.L25:
 645 0044 2C000000 		.word	.LC5
 646 0048 00000000 		.word	g_Error_Code
 647 004c 38000000 		.word	.LC6
 648 0050 00000000 		.word	g_NextionInterrupt
 649              		.cfi_endproc
 650              	.LFE72:
 651              		.size	Error, .-Error
 652              		.section	.rodata
 653              		.align	2
 654              	.LC7:
 655 0044 6100     		.ascii	"a\000"
 656              		.global	__aeabi_ddiv
 657 0046 0000     		.align	2
 658              	.LC8:
 659 0048 25640925 		.ascii	"%d\011%f\011%i\012\000"
 659      66092569 
 659      0A00
 660              		.section	.text.LogLifetime,"ax",%progbits
 661              		.align	2
 662              		.global	LogLifetime
ARM GAS  C:\Users\LOCALA~1\AppData\Local\Temp\ccsQji0c.s 			page 15


 663              		.thumb
 664              		.thumb_func
 665              		.type	LogLifetime, %function
 666              	LogLifetime:
 667              	.LFB73:
 668              		.file 3 "./SDCard.h"
   1:./SDCard.h    **** /* ========================================
   2:./SDCard.h    ****  *
   3:./SDCard.h    ****  * Copyright YOUR COMPANY, THE YEAR
   4:./SDCard.h    ****  * All Rights Reserved
   5:./SDCard.h    ****  * UNPUBLISHED, LICENSED SOFTWARE.
   6:./SDCard.h    ****  *
   7:./SDCard.h    ****  * CONFIDENTIAL AND PROPRIETARY INFORMATION
   8:./SDCard.h    ****  * WHICH IS THE PROPERTY OF your company.
   9:./SDCard.h    ****  *
  10:./SDCard.h    ****  * ========================================
  11:./SDCard.h    **** */
  12:./SDCard.h    **** 
  13:./SDCard.h    **** #ifndef SDCARD_H
  14:./SDCard.h    ****     #define SDCARD_H
  15:./SDCard.h    ****     
  16:./SDCard.h    ****     #include <project.h>
  17:./SDCard.h    ****     #include <stdio.h>
  18:./SDCard.h    ****     #include <stdlib.h>
  19:./SDCard.h    ****     #include <FS.h>
  20:./SDCard.h    ****     #include <GlobalVariables.h>
  21:./SDCard.h    ****     #include <Error.h>
  22:./SDCard.h    ****     
  23:./SDCard.h    ****     #define MaxRetriesForFileOpening 100
  24:./SDCard.h    ****     
  25:./SDCard.h    ****     void LogLifetime(char *name, int NumberOfMeasurement, double Lifetime, int ArbitrarilyRuptured)
  26:./SDCard.h    ****     {
 669              		.loc 3 26 0
 670              		.cfi_startproc
 671              		@ args = 4, pretend = 0, frame = 72
 672              		@ frame_needed = 1, uses_anonymous_args = 0
 673 0000 90B5     		push	{r4, r7, lr}
 674              		.cfi_def_cfa_offset 12
 675              		.cfi_offset 4, -12
 676              		.cfi_offset 7, -8
 677              		.cfi_offset 14, -4
 678 0002 97B0     		sub	sp, sp, #92
 679              		.cfi_def_cfa_offset 104
 680 0004 04AF     		add	r7, sp, #16
 681              		.cfi_def_cfa 7, 88
 682 0006 F860     		str	r0, [r7, #12]
 683 0008 B960     		str	r1, [r7, #8]
 684 000a C7E90023 		strd	r2, [r7]
  27:./SDCard.h    ****         FS_FILE *File;
  28:./SDCard.h    ****         
  29:./SDCard.h    ****         #ifdef ChangeFileName
  30:./SDCard.h    ****             char tmp_FileName[13];
  31:./SDCard.h    ****             sprintf(tmp_FileName, "%s.txt", FileName);
  32:./SDCard.h    ****         #endif    
  33:./SDCard.h    ****            
  34:./SDCard.h    ****         char buffer_nextLine[40];
  35:./SDCard.h    **** 
ARM GAS  C:\Users\LOCALA~1\AppData\Local\Temp\ccsQji0c.s 			page 16


  36:./SDCard.h    ****         
  37:./SDCard.h    ****         int retryCount;
  38:./SDCard.h    ****         retryCount = 0; 
 685              		.loc 3 38 0
 686 000e 0023     		movs	r3, #0
 687 0010 3B64     		str	r3, [r7, #64]
  39:./SDCard.h    ****         #ifdef ChangeFileName
  40:./SDCard.h    ****         File = FS_FOpen((char*)tmp_FileName, "a");
  41:./SDCard.h    ****         #else
  42:./SDCard.h    ****             File = FS_FOpen(name, "a");    
 688              		.loc 3 42 0
 689 0012 2F49     		ldr	r1, .L35
 690 0014 F868     		ldr	r0, [r7, #12]
 691 0016 FFF7FEFF 		bl	FS_FOpen
 692 001a 7864     		str	r0, [r7, #68]
  43:./SDCard.h    ****         #endif
  44:./SDCard.h    ****         CyDelay(10);
 693              		.loc 3 44 0
 694 001c 0A20     		movs	r0, #10
 695 001e FFF7FEFF 		bl	CyDelay
  45:./SDCard.h    ****         
  46:./SDCard.h    ****         while (File == 0)
 696              		.loc 3 46 0
 697 0022 12E0     		b	.L28
 698              	.L30:
  47:./SDCard.h    ****         {
  48:./SDCard.h    ****             retryCount++;
 699              		.loc 3 48 0
 700 0024 3B6C     		ldr	r3, [r7, #64]
 701 0026 0133     		adds	r3, r3, #1
 702 0028 3B64     		str	r3, [r7, #64]
  49:./SDCard.h    ****             #ifdef ChangeFileName
  50:./SDCard.h    ****                 File = FS_FOpen((char*)tmp_FileName, "a");
  51:./SDCard.h    ****             #else
  52:./SDCard.h    ****                 File = FS_FOpen(name, "a");    
 703              		.loc 3 52 0
 704 002a 2949     		ldr	r1, .L35
 705 002c F868     		ldr	r0, [r7, #12]
 706 002e FFF7FEFF 		bl	FS_FOpen
 707 0032 7864     		str	r0, [r7, #68]
  53:./SDCard.h    ****             #endif
  54:./SDCard.h    ****             CyDelay(10);
 708              		.loc 3 54 0
 709 0034 0A20     		movs	r0, #10
 710 0036 FFF7FEFF 		bl	CyDelay
  55:./SDCard.h    ****             if (retryCount > MaxRetriesForFileOpening)
 711              		.loc 3 55 0
 712 003a 3B6C     		ldr	r3, [r7, #64]
 713 003c 642B     		cmp	r3, #100
 714 003e 04DD     		ble	.L28
  56:./SDCard.h    ****             {
  57:./SDCard.h    ****                 setError(700);
 715              		.loc 3 57 0
 716 0040 4FF42F70 		mov	r0, #700
 717 0044 FFF7FEFF 		bl	setError
  58:./SDCard.h    ****                 return;                 // Stop logging, file is not open
 718              		.loc 3 58 0
ARM GAS  C:\Users\LOCALA~1\AppData\Local\Temp\ccsQji0c.s 			page 17


 719 0048 3FE0     		b	.L27
 720              	.L28:
  46:./SDCard.h    ****         {
 721              		.loc 3 46 0
 722 004a 7B6C     		ldr	r3, [r7, #68]
 723 004c 002B     		cmp	r3, #0
 724 004e E9D0     		beq	.L30
  59:./SDCard.h    ****             }
  60:./SDCard.h    ****         }
  61:./SDCard.h    ****         
  62:./SDCard.h    ****         sprintf((char*)buffer_nextLine, "%d\t%f\t%i\n", NumberOfMeasurement, Lifetime/1000.0, Arbit
 725              		.loc 3 62 0
 726 0050 4FF00002 		mov	r2, #0
 727 0054 1F4B     		ldr	r3, .L35+4
 728 0056 D7E90001 		ldrd	r0, [r7]
 729 005a FFF7FEFF 		bl	__aeabi_ddiv
 730 005e 0346     		mov	r3, r0
 731 0060 0C46     		mov	r4, r1
 732 0062 07F11400 		add	r0, r7, #20
 733 0066 BA6D     		ldr	r2, [r7, #88]
 734 0068 0292     		str	r2, [sp, #8]
 735 006a CDE90034 		strd	r3, [sp]
 736 006e BA68     		ldr	r2, [r7, #8]
 737 0070 1949     		ldr	r1, .L35+8
 738 0072 FFF7FEFF 		bl	sprintf
  63:./SDCard.h    ****         
  64:./SDCard.h    ****         if (0 != FS_Write(File, buffer_nextLine, strlen(buffer_nextLine)))
 739              		.loc 3 64 0
 740 0076 07F11403 		add	r3, r7, #20
 741 007a 1846     		mov	r0, r3
 742 007c FFF7FEFF 		bl	strlen
 743 0080 0246     		mov	r2, r0
 744 0082 07F11403 		add	r3, r7, #20
 745 0086 1946     		mov	r1, r3
 746 0088 786C     		ldr	r0, [r7, #68]
 747 008a FFF7FEFF 		bl	FS_Write
 748 008e 0346     		mov	r3, r0
 749 0090 002B     		cmp	r3, #0
 750 0092 03D1     		bne	.L31
  65:./SDCard.h    ****         {
  66:./SDCard.h    ****             // Write successfull, do nothing    
  67:./SDCard.h    ****         }
  68:./SDCard.h    ****         else
  69:./SDCard.h    ****         {
  70:./SDCard.h    ****             // Error, Write failed. 
  71:./SDCard.h    ****             setError(701);
 751              		.loc 3 71 0
 752 0094 40F2BD20 		movw	r0, #701
 753 0098 FFF7FEFF 		bl	setError
 754              	.L31:
  72:./SDCard.h    ****         }
  73:./SDCard.h    ****         
  74:./SDCard.h    ****         int retValFS_FClose = 1;
 755              		.loc 3 74 0
 756 009c 0123     		movs	r3, #1
 757 009e FB63     		str	r3, [r7, #60]
  75:./SDCard.h    ****         retryCount = 0;
ARM GAS  C:\Users\LOCALA~1\AppData\Local\Temp\ccsQji0c.s 			page 18


 758              		.loc 3 75 0
 759 00a0 0023     		movs	r3, #0
 760 00a2 3B64     		str	r3, [r7, #64]
  76:./SDCard.h    ****         while (retValFS_FClose)
 761              		.loc 3 76 0
 762 00a4 0EE0     		b	.L32
 763              	.L33:
  77:./SDCard.h    ****         {
  78:./SDCard.h    ****             retryCount++;
 764              		.loc 3 78 0
 765 00a6 3B6C     		ldr	r3, [r7, #64]
 766 00a8 0133     		adds	r3, r3, #1
 767 00aa 3B64     		str	r3, [r7, #64]
  79:./SDCard.h    ****             retValFS_FClose = FS_FClose(File);
 768              		.loc 3 79 0
 769 00ac 786C     		ldr	r0, [r7, #68]
 770 00ae FFF7FEFF 		bl	FS_FClose
 771 00b2 F863     		str	r0, [r7, #60]
  80:./SDCard.h    ****             
  81:./SDCard.h    ****             if (retryCount > 100)
 772              		.loc 3 81 0
 773 00b4 3B6C     		ldr	r3, [r7, #64]
 774 00b6 642B     		cmp	r3, #100
 775 00b8 04DD     		ble	.L32
  82:./SDCard.h    ****             {
  83:./SDCard.h    ****                 setError(702);
 776              		.loc 3 83 0
 777 00ba 40F2BE20 		movw	r0, #702
 778 00be FFF7FEFF 		bl	setError
  84:./SDCard.h    ****                 return;
 779              		.loc 3 84 0
 780 00c2 02E0     		b	.L27
 781              	.L32:
  76:./SDCard.h    ****         {
 782              		.loc 3 76 0
 783 00c4 FB6B     		ldr	r3, [r7, #60]
 784 00c6 002B     		cmp	r3, #0
 785 00c8 EDD1     		bne	.L33
 786              	.L27:
  85:./SDCard.h    ****             }
  86:./SDCard.h    ****         }
  87:./SDCard.h    ****     }
 787              		.loc 3 87 0
 788 00ca 4C37     		adds	r7, r7, #76
 789              		.cfi_def_cfa_offset 12
 790 00cc BD46     		mov	sp, r7
 791              		.cfi_def_cfa_register 13
 792              		@ sp needed
 793 00ce 90BD     		pop	{r4, r7, pc}
 794              	.L36:
 795              		.align	2
 796              	.L35:
 797 00d0 44000000 		.word	.LC7
 798 00d4 00408F40 		.word	1083129856
 799 00d8 48000000 		.word	.LC8
 800              		.cfi_endproc
 801              	.LFE73:
ARM GAS  C:\Users\LOCALA~1\AppData\Local\Temp\ccsQji0c.s 			page 19


 802              		.size	LogLifetime, .-LogLifetime
 803              		.section	.rodata
 804 0052 0000     		.align	2
 805              	.LC9:
 806 0054 53702530 		.ascii	"Sp%04i.txt\000"
 806      34692E74 
 806      787400
 807 005f 00       		.align	2
 808              	.LC10:
 809 0060 25302E33 		.ascii	"%0.3f\012\000"
 809      660A00
 810              		.section	.text.WriteSpeedTest,"ax",%progbits
 811              		.align	2
 812              		.global	WriteSpeedTest
 813              		.thumb
 814              		.thumb_func
 815              		.type	WriteSpeedTest, %function
 816              	WriteSpeedTest:
 817              	.LFB74:
  88:./SDCard.h    ****     
  89:./SDCard.h    ****     
  90:./SDCard.h    ****     void WriteSpeedTest()
  91:./SDCard.h    ****     {
 818              		.loc 3 91 0
 819              		.cfi_startproc
 820              		@ args = 0, pretend = 0, frame = 72
 821              		@ frame_needed = 1, uses_anonymous_args = 0
 822 0000 90B5     		push	{r4, r7, lr}
 823              		.cfi_def_cfa_offset 12
 824              		.cfi_offset 4, -12
 825              		.cfi_offset 7, -8
 826              		.cfi_offset 14, -4
 827 0002 93B0     		sub	sp, sp, #76
 828              		.cfi_def_cfa_offset 88
 829 0004 00AF     		add	r7, sp, #0
 830              		.cfi_def_cfa_register 7
  92:./SDCard.h    ****         FS_FILE *File;
  93:./SDCard.h    ****         char buffer_FileName[12];
  94:./SDCard.h    ****         char buffer_nextLine[40];
  95:./SDCard.h    **** 
  96:./SDCard.h    ****         v_timer_Lifetime_ms = 0;
 831              		.loc 3 96 0
 832 0006 3E4A     		ldr	r2, .L49
 833 0008 4FF00003 		mov	r3, #0
 834 000c 4FF00004 		mov	r4, #0
 835 0010 C2E90034 		strd	r3, [r2]
 836              	.LBB2:
  97:./SDCard.h    ****         for (int j = 100; j > 0; j = j-10)
 837              		.loc 3 97 0
 838 0014 6423     		movs	r3, #100
 839 0016 3B64     		str	r3, [r7, #64]
 840 0018 6BE0     		b	.L38
 841              	.L47:
 842              	.LBB3:
  98:./SDCard.h    ****         {
  99:./SDCard.h    ****             for (int i = 0; i < 1000; i++)
 843              		.loc 3 99 0
ARM GAS  C:\Users\LOCALA~1\AppData\Local\Temp\ccsQji0c.s 			page 20


 844 001a 0023     		movs	r3, #0
 845 001c FB63     		str	r3, [r7, #60]
 846 001e 61E0     		b	.L39
 847              	.L46:
 848              	.LBB4:
 100:./SDCard.h    ****             {
 101:./SDCard.h    ****                 sprintf((char*)buffer_FileName, "Sp%04i.txt", j);
 849              		.loc 3 101 0
 850 0020 07F12803 		add	r3, r7, #40
 851 0024 3A6C     		ldr	r2, [r7, #64]
 852 0026 3749     		ldr	r1, .L49+4
 853 0028 1846     		mov	r0, r3
 854 002a FFF7FEFF 		bl	sprintf
 102:./SDCard.h    ****                 
 103:./SDCard.h    ****                 File = FS_FOpen(buffer_FileName, "a");
 855              		.loc 3 103 0
 856 002e 07F12803 		add	r3, r7, #40
 857 0032 3549     		ldr	r1, .L49+8
 858 0034 1846     		mov	r0, r3
 859 0036 FFF7FEFF 		bl	FS_FOpen
 860 003a 7864     		str	r0, [r7, #68]
 104:./SDCard.h    ****                 CyDelay(j);
 861              		.loc 3 104 0
 862 003c 3B6C     		ldr	r3, [r7, #64]
 863 003e 1846     		mov	r0, r3
 864 0040 FFF7FEFF 		bl	CyDelay
 105:./SDCard.h    ****                 
 106:./SDCard.h    ****                 int retryCount;
 107:./SDCard.h    ****                 retryCount = 0;
 865              		.loc 3 107 0
 866 0044 0023     		movs	r3, #0
 867 0046 BB63     		str	r3, [r7, #56]
 108:./SDCard.h    ****                 
 109:./SDCard.h    ****                 while (File == 0)
 868              		.loc 3 109 0
 869 0048 15E0     		b	.L40
 870              	.L42:
 110:./SDCard.h    ****                 {
 111:./SDCard.h    ****                     retryCount++;
 871              		.loc 3 111 0
 872 004a BB6B     		ldr	r3, [r7, #56]
 873 004c 0133     		adds	r3, r3, #1
 874 004e BB63     		str	r3, [r7, #56]
 112:./SDCard.h    ****                     File = FS_FOpen(buffer_FileName, "a");
 875              		.loc 3 112 0
 876 0050 07F12803 		add	r3, r7, #40
 877 0054 2C49     		ldr	r1, .L49+8
 878 0056 1846     		mov	r0, r3
 879 0058 FFF7FEFF 		bl	FS_FOpen
 880 005c 7864     		str	r0, [r7, #68]
 113:./SDCard.h    ****                     CyDelay(j);
 881              		.loc 3 113 0
 882 005e 3B6C     		ldr	r3, [r7, #64]
 883 0060 1846     		mov	r0, r3
 884 0062 FFF7FEFF 		bl	CyDelay
 114:./SDCard.h    ****                     if (retryCount > MaxRetriesForFileOpening)
 885              		.loc 3 114 0
ARM GAS  C:\Users\LOCALA~1\AppData\Local\Temp\ccsQji0c.s 			page 21


 886 0066 BB6B     		ldr	r3, [r7, #56]
 887 0068 642B     		cmp	r3, #100
 888 006a 04DD     		ble	.L40
 115:./SDCard.h    ****                     {
 116:./SDCard.h    ****                         setError(710);
 889              		.loc 3 116 0
 890 006c 40F2C620 		movw	r0, #710
 891 0070 FFF7FEFF 		bl	setError
 117:./SDCard.h    ****                         return;                 // Stop logging, file is not open
 892              		.loc 3 117 0
 893 0074 40E0     		b	.L37
 894              	.L40:
 109:./SDCard.h    ****                 {
 895              		.loc 3 109 0
 896 0076 7B6C     		ldr	r3, [r7, #68]
 897 0078 002B     		cmp	r3, #0
 898 007a E6D0     		beq	.L42
 118:./SDCard.h    ****                     }
 119:./SDCard.h    ****                 }
 120:./SDCard.h    ****                 
 121:./SDCard.h    ****                 sprintf((char*)buffer_nextLine, "%0.3f\n", v_timer_Lifetime_ms);
 899              		.loc 3 121 0
 900 007c 204B     		ldr	r3, .L49
 901 007e 18CB     		ldmia	r3, {r3-r4}
 902 0080 3846     		mov	r0, r7
 903 0082 1A46     		mov	r2, r3
 904 0084 2346     		mov	r3, r4
 905 0086 2149     		ldr	r1, .L49+12
 906 0088 FFF7FEFF 		bl	sprintf
 122:./SDCard.h    ****                 
 123:./SDCard.h    ****                 
 124:./SDCard.h    ****                 if (0 != FS_Write(File, buffer_nextLine, strlen(buffer_nextLine)))
 907              		.loc 3 124 0
 908 008c 3B46     		mov	r3, r7
 909 008e 1846     		mov	r0, r3
 910 0090 FFF7FEFF 		bl	strlen
 911 0094 0246     		mov	r2, r0
 912 0096 3B46     		mov	r3, r7
 913 0098 1946     		mov	r1, r3
 914 009a 786C     		ldr	r0, [r7, #68]
 915 009c FFF7FEFF 		bl	FS_Write
 916 00a0 0346     		mov	r3, r0
 917 00a2 002B     		cmp	r3, #0
 918 00a4 04D1     		bne	.L43
 125:./SDCard.h    ****                 {
 126:./SDCard.h    ****                     // Write successfull, do nothing    
 127:./SDCard.h    ****                 }
 128:./SDCard.h    ****                 else
 129:./SDCard.h    ****                 {
 130:./SDCard.h    ****                     // Error, Write failed. 
 131:./SDCard.h    ****                     setError(711);
 919              		.loc 3 131 0
 920 00a6 40F2C720 		movw	r0, #711
 921 00aa FFF7FEFF 		bl	setError
 132:./SDCard.h    ****                     return;
 922              		.loc 3 132 0
 923 00ae 23E0     		b	.L37
ARM GAS  C:\Users\LOCALA~1\AppData\Local\Temp\ccsQji0c.s 			page 22


 924              	.L43:
 133:./SDCard.h    ****                 }
 134:./SDCard.h    ****                 
 135:./SDCard.h    ****                 int retValFS_FClose = 1;
 925              		.loc 3 135 0
 926 00b0 0123     		movs	r3, #1
 927 00b2 7B63     		str	r3, [r7, #52]
 136:./SDCard.h    ****                 retryCount = 0;
 928              		.loc 3 136 0
 929 00b4 0023     		movs	r3, #0
 930 00b6 BB63     		str	r3, [r7, #56]
 137:./SDCard.h    ****                 while (retValFS_FClose)
 931              		.loc 3 137 0
 932 00b8 0EE0     		b	.L44
 933              	.L45:
 138:./SDCard.h    ****                 {
 139:./SDCard.h    ****                     retryCount++;
 934              		.loc 3 139 0
 935 00ba BB6B     		ldr	r3, [r7, #56]
 936 00bc 0133     		adds	r3, r3, #1
 937 00be BB63     		str	r3, [r7, #56]
 140:./SDCard.h    ****                     retValFS_FClose = FS_FClose(File);
 938              		.loc 3 140 0
 939 00c0 786C     		ldr	r0, [r7, #68]
 940 00c2 FFF7FEFF 		bl	FS_FClose
 941 00c6 7863     		str	r0, [r7, #52]
 141:./SDCard.h    ****                     
 142:./SDCard.h    ****                     if (retryCount > 100)
 942              		.loc 3 142 0
 943 00c8 BB6B     		ldr	r3, [r7, #56]
 944 00ca 642B     		cmp	r3, #100
 945 00cc 04DD     		ble	.L44
 143:./SDCard.h    ****                     {
 144:./SDCard.h    ****                         setError(712);
 946              		.loc 3 144 0
 947 00ce 4FF43270 		mov	r0, #712
 948 00d2 FFF7FEFF 		bl	setError
 145:./SDCard.h    ****                         return;
 949              		.loc 3 145 0
 950 00d6 0FE0     		b	.L37
 951              	.L44:
 137:./SDCard.h    ****                 {
 952              		.loc 3 137 0
 953 00d8 7B6B     		ldr	r3, [r7, #52]
 954 00da 002B     		cmp	r3, #0
 955 00dc EDD1     		bne	.L45
 956              	.LBE4:
  99:./SDCard.h    ****             {
 957              		.loc 3 99 0 discriminator 2
 958 00de FB6B     		ldr	r3, [r7, #60]
 959 00e0 0133     		adds	r3, r3, #1
 960 00e2 FB63     		str	r3, [r7, #60]
 961              	.L39:
  99:./SDCard.h    ****             {
 962              		.loc 3 99 0 is_stmt 0 discriminator 1
 963 00e4 FB6B     		ldr	r3, [r7, #60]
 964 00e6 B3F57A7F 		cmp	r3, #1000
ARM GAS  C:\Users\LOCALA~1\AppData\Local\Temp\ccsQji0c.s 			page 23


 965 00ea 99DB     		blt	.L46
 966              	.LBE3:
  97:./SDCard.h    ****         {
 967              		.loc 3 97 0 is_stmt 1 discriminator 2
 968 00ec 3B6C     		ldr	r3, [r7, #64]
 969 00ee 0A3B     		subs	r3, r3, #10
 970 00f0 3B64     		str	r3, [r7, #64]
 971              	.L38:
  97:./SDCard.h    ****         {
 972              		.loc 3 97 0 is_stmt 0 discriminator 1
 973 00f2 3B6C     		ldr	r3, [r7, #64]
 974 00f4 002B     		cmp	r3, #0
 975 00f6 90DC     		bgt	.L47
 976              	.L37:
 977              	.LBE2:
 146:./SDCard.h    ****                     }
 147:./SDCard.h    ****                 }
 148:./SDCard.h    ****             }
 149:./SDCard.h    ****         }
 150:./SDCard.h    ****     }
 978              		.loc 3 150 0 is_stmt 1
 979 00f8 4C37     		adds	r7, r7, #76
 980              		.cfi_def_cfa_offset 12
 981 00fa BD46     		mov	sp, r7
 982              		.cfi_def_cfa_register 13
 983              		@ sp needed
 984 00fc 90BD     		pop	{r4, r7, pc}
 985              	.L50:
 986 00fe 00BF     		.align	2
 987              	.L49:
 988 0100 00000000 		.word	v_timer_Lifetime_ms
 989 0104 54000000 		.word	.LC9
 990 0108 44000000 		.word	.LC7
 991 010c 60000000 		.word	.LC10
 992              		.cfi_endproc
 993              	.LFE74:
 994              		.size	WriteSpeedTest, .-WriteSpeedTest
 995              		.section	.rodata
 996 0067 00       		.align	2
 997              	.LC11:
 998 0068 25303864 		.ascii	"%08d.raw\000"
 998      2E726177 
 998      00
 999 0071 000000   		.align	2
 1000              	.LC12:
 1001 0074 25690925 		.ascii	"%i\011%i\011%i\011%0.0f\011%i\012\000"
 1001      69092569 
 1001      0925302E 
 1001      30660925 
 1001      690A00
 1002              		.section	.text.LogIntensity,"ax",%progbits
 1003              		.align	2
 1004              		.global	LogIntensity
 1005              		.thumb
 1006              		.thumb_func
 1007              		.type	LogIntensity, %function
 1008              	LogIntensity:
ARM GAS  C:\Users\LOCALA~1\AppData\Local\Temp\ccsQji0c.s 			page 24


 1009              	.LFB75:
 151:./SDCard.h    ****     
 152:./SDCard.h    ****     void LogIntensity(int MeasNo, char State1, char State2, char State3, double timer, int ADCValue
 153:./SDCard.h    ****     {
 1010              		.loc 3 153 0
 1011              		.cfi_startproc
 1012              		@ args = 12, pretend = 0, frame = 72
 1013              		@ frame_needed = 1, uses_anonymous_args = 0
 1014 0000 B0B5     		push	{r4, r5, r7, lr}
 1015              		.cfi_def_cfa_offset 16
 1016              		.cfi_offset 4, -16
 1017              		.cfi_offset 5, -12
 1018              		.cfi_offset 7, -8
 1019              		.cfi_offset 14, -4
 1020 0002 98B0     		sub	sp, sp, #96
 1021              		.cfi_def_cfa_offset 112
 1022 0004 06AF     		add	r7, sp, #24
 1023              		.cfi_def_cfa 7, 88
 1024 0006 7860     		str	r0, [r7, #4]
 1025 0008 0846     		mov	r0, r1
 1026 000a 1146     		mov	r1, r2
 1027 000c 1A46     		mov	r2, r3
 1028 000e 0346     		mov	r3, r0
 1029 0010 FB70     		strb	r3, [r7, #3]
 1030 0012 0B46     		mov	r3, r1
 1031 0014 BB70     		strb	r3, [r7, #2]
 1032 0016 1346     		mov	r3, r2
 1033 0018 7B70     		strb	r3, [r7, #1]
 154:./SDCard.h    ****         FS_FILE *File;
 155:./SDCard.h    ****         
 156:./SDCard.h    ****         char tmp_FileName[12];
 157:./SDCard.h    ****         char buffer_nextLine[40];
 158:./SDCard.h    ****         #ifdef ChangeFileName
 159:./SDCard.h    ****             sprintf((char*)tmp_FileName, "%s%04d.raw", FileName, MeasNo);
 160:./SDCard.h    ****         #else
 161:./SDCard.h    ****             sprintf((char*)tmp_FileName, "%08d.raw", MeasNo);
 1034              		.loc 3 161 0
 1035 001a 07F13003 		add	r3, r7, #48
 1036 001e 7A68     		ldr	r2, [r7, #4]
 1037 0020 3349     		ldr	r1, .L59
 1038 0022 1846     		mov	r0, r3
 1039 0024 FFF7FEFF 		bl	sprintf
 162:./SDCard.h    ****             
 163:./SDCard.h    ****         #endif
 164:./SDCard.h    ****         File = FS_FOpen(tmp_FileName, "a");
 1040              		.loc 3 164 0
 1041 0028 07F13003 		add	r3, r7, #48
 1042 002c 3149     		ldr	r1, .L59+4
 1043 002e 1846     		mov	r0, r3
 1044 0030 FFF7FEFF 		bl	FS_FOpen
 1045 0034 7864     		str	r0, [r7, #68]
 165:./SDCard.h    ****         CyDelay(10);
 1046              		.loc 3 165 0
 1047 0036 0A20     		movs	r0, #10
 1048 0038 FFF7FEFF 		bl	CyDelay
 166:./SDCard.h    ****         
 167:./SDCard.h    ****         int retryCount;
ARM GAS  C:\Users\LOCALA~1\AppData\Local\Temp\ccsQji0c.s 			page 25


 168:./SDCard.h    **** 
 169:./SDCard.h    ****         
 170:./SDCard.h    ****         retryCount = 0;
 1049              		.loc 3 170 0
 1050 003c 0023     		movs	r3, #0
 1051 003e 3B64     		str	r3, [r7, #64]
 171:./SDCard.h    ****         
 172:./SDCard.h    ****         while (File == 0)
 1052              		.loc 3 172 0
 1053 0040 14E0     		b	.L52
 1054              	.L54:
 173:./SDCard.h    ****         {
 174:./SDCard.h    ****             retryCount++;
 1055              		.loc 3 174 0
 1056 0042 3B6C     		ldr	r3, [r7, #64]
 1057 0044 0133     		adds	r3, r3, #1
 1058 0046 3B64     		str	r3, [r7, #64]
 175:./SDCard.h    ****             File = FS_FOpen(tmp_FileName, "a");
 1059              		.loc 3 175 0
 1060 0048 07F13003 		add	r3, r7, #48
 1061 004c 2949     		ldr	r1, .L59+4
 1062 004e 1846     		mov	r0, r3
 1063 0050 FFF7FEFF 		bl	FS_FOpen
 1064 0054 7864     		str	r0, [r7, #68]
 176:./SDCard.h    ****             CyDelay(10);
 1065              		.loc 3 176 0
 1066 0056 0A20     		movs	r0, #10
 1067 0058 FFF7FEFF 		bl	CyDelay
 177:./SDCard.h    ****             if (retryCount > MaxRetriesForFileOpening)
 1068              		.loc 3 177 0
 1069 005c 3B6C     		ldr	r3, [r7, #64]
 1070 005e 642B     		cmp	r3, #100
 1071 0060 04DD     		ble	.L52
 178:./SDCard.h    ****             {
 179:./SDCard.h    ****                 setError(720);
 1072              		.loc 3 179 0
 1073 0062 4FF43470 		mov	r0, #720
 1074 0066 FFF7FEFF 		bl	setError
 180:./SDCard.h    ****                 return;                 // Stop logging, file is not open
 1075              		.loc 3 180 0
 1076 006a 3DE0     		b	.L51
 1077              	.L52:
 172:./SDCard.h    ****         {
 1078              		.loc 3 172 0
 1079 006c 7B6C     		ldr	r3, [r7, #68]
 1080 006e 002B     		cmp	r3, #0
 1081 0070 E7D0     		beq	.L54
 181:./SDCard.h    ****             }
 182:./SDCard.h    ****         }
 183:./SDCard.h    ****         
 184:./SDCard.h    ****         sprintf((char*)buffer_nextLine, "%i\t%i\t%i\t%0.0f\t%i\n", State1, State2, State3, timer, A
 1082              		.loc 3 184 0
 1083 0072 F978     		ldrb	r1, [r7, #3]	@ zero_extendqisi2
 1084 0074 BD78     		ldrb	r5, [r7, #2]	@ zero_extendqisi2
 1085 0076 7A78     		ldrb	r2, [r7, #1]	@ zero_extendqisi2
 1086 0078 07F10800 		add	r0, r7, #8
 1087 007c 3B6E     		ldr	r3, [r7, #96]
ARM GAS  C:\Users\LOCALA~1\AppData\Local\Temp\ccsQji0c.s 			page 26


 1088 007e 0493     		str	r3, [sp, #16]
 1089 0080 D7E91634 		ldrd	r3, [r7, #88]
 1090 0084 CDE90234 		strd	r3, [sp, #8]
 1091 0088 0092     		str	r2, [sp]
 1092 008a 2B46     		mov	r3, r5
 1093 008c 0A46     		mov	r2, r1
 1094 008e 1A49     		ldr	r1, .L59+8
 1095 0090 FFF7FEFF 		bl	sprintf
 185:./SDCard.h    ****         
 186:./SDCard.h    ****         if (0 != FS_Write(File, buffer_nextLine, strlen(buffer_nextLine)))
 1096              		.loc 3 186 0
 1097 0094 07F10803 		add	r3, r7, #8
 1098 0098 1846     		mov	r0, r3
 1099 009a FFF7FEFF 		bl	strlen
 1100 009e 0246     		mov	r2, r0
 1101 00a0 07F10803 		add	r3, r7, #8
 1102 00a4 1946     		mov	r1, r3
 1103 00a6 786C     		ldr	r0, [r7, #68]
 1104 00a8 FFF7FEFF 		bl	FS_Write
 1105 00ac 0346     		mov	r3, r0
 1106 00ae 002B     		cmp	r3, #0
 1107 00b0 03D1     		bne	.L55
 187:./SDCard.h    ****         {
 188:./SDCard.h    ****             // Write successfull, do nothing    
 189:./SDCard.h    ****         }
 190:./SDCard.h    ****         else
 191:./SDCard.h    ****         {
 192:./SDCard.h    ****             // Error, Write failed. 
 193:./SDCard.h    ****             setError(721);
 1108              		.loc 3 193 0
 1109 00b2 40F2D120 		movw	r0, #721
 1110 00b6 FFF7FEFF 		bl	setError
 1111              	.L55:
 194:./SDCard.h    ****         }
 195:./SDCard.h    ****         
 196:./SDCard.h    ****         int retValFS_FClose = 1;
 1112              		.loc 3 196 0
 1113 00ba 0123     		movs	r3, #1
 1114 00bc FB63     		str	r3, [r7, #60]
 197:./SDCard.h    ****         retryCount = 0;
 1115              		.loc 3 197 0
 1116 00be 0023     		movs	r3, #0
 1117 00c0 3B64     		str	r3, [r7, #64]
 198:./SDCard.h    ****         while (retValFS_FClose)
 1118              		.loc 3 198 0
 1119 00c2 0EE0     		b	.L56
 1120              	.L57:
 199:./SDCard.h    ****         {
 200:./SDCard.h    ****             retryCount++;
 1121              		.loc 3 200 0
 1122 00c4 3B6C     		ldr	r3, [r7, #64]
 1123 00c6 0133     		adds	r3, r3, #1
 1124 00c8 3B64     		str	r3, [r7, #64]
 201:./SDCard.h    ****             retValFS_FClose = FS_FClose(File);
 1125              		.loc 3 201 0
 1126 00ca 786C     		ldr	r0, [r7, #68]
 1127 00cc FFF7FEFF 		bl	FS_FClose
ARM GAS  C:\Users\LOCALA~1\AppData\Local\Temp\ccsQji0c.s 			page 27


 1128 00d0 F863     		str	r0, [r7, #60]
 202:./SDCard.h    ****             
 203:./SDCard.h    ****             if (retryCount > 100)
 1129              		.loc 3 203 0
 1130 00d2 3B6C     		ldr	r3, [r7, #64]
 1131 00d4 642B     		cmp	r3, #100
 1132 00d6 04DD     		ble	.L56
 204:./SDCard.h    ****             {
 205:./SDCard.h    ****                 setError(722);
 1133              		.loc 3 205 0
 1134 00d8 40F2D220 		movw	r0, #722
 1135 00dc FFF7FEFF 		bl	setError
 206:./SDCard.h    ****                 return;
 1136              		.loc 3 206 0
 1137 00e0 02E0     		b	.L51
 1138              	.L56:
 198:./SDCard.h    ****         {
 1139              		.loc 3 198 0
 1140 00e2 FB6B     		ldr	r3, [r7, #60]
 1141 00e4 002B     		cmp	r3, #0
 1142 00e6 EDD1     		bne	.L57
 1143              	.L51:
 207:./SDCard.h    ****             }
 208:./SDCard.h    ****         }
 209:./SDCard.h    ****     }
 1144              		.loc 3 209 0
 1145 00e8 4837     		adds	r7, r7, #72
 1146              		.cfi_def_cfa_offset 16
 1147 00ea BD46     		mov	sp, r7
 1148              		.cfi_def_cfa_register 13
 1149              		@ sp needed
 1150 00ec B0BD     		pop	{r4, r5, r7, pc}
 1151              	.L60:
 1152 00ee 00BF     		.align	2
 1153              	.L59:
 1154 00f0 68000000 		.word	.LC11
 1155 00f4 44000000 		.word	.LC7
 1156 00f8 74000000 		.word	.LC12
 1157              		.cfi_endproc
 1158              	.LFE75:
 1159              		.size	LogIntensity, .-LogIntensity
 1160              		.section	.text.Init_SDCard,"ax",%progbits
 1161              		.align	2
 1162              		.global	Init_SDCard
 1163              		.thumb
 1164              		.thumb_func
 1165              		.type	Init_SDCard, %function
 1166              	Init_SDCard:
 1167              	.LFB76:
 210:./SDCard.h    ****     
 211:./SDCard.h    ****     void Init_SDCard()
 212:./SDCard.h    ****     {
 1168              		.loc 3 212 0
 1169              		.cfi_startproc
 1170              		@ args = 0, pretend = 0, frame = 0
 1171              		@ frame_needed = 1, uses_anonymous_args = 0
 1172 0000 80B5     		push	{r7, lr}
ARM GAS  C:\Users\LOCALA~1\AppData\Local\Temp\ccsQji0c.s 			page 28


 1173              		.cfi_def_cfa_offset 8
 1174              		.cfi_offset 7, -8
 1175              		.cfi_offset 14, -4
 1176 0002 00AF     		add	r7, sp, #0
 1177              		.cfi_def_cfa_register 7
 213:./SDCard.h    ****         FS_Init();   
 1178              		.loc 3 213 0
 1179 0004 FFF7FEFF 		bl	FS_Init
 214:./SDCard.h    ****     }
 1180              		.loc 3 214 0
 1181 0008 00BF     		nop
 1182 000a 80BD     		pop	{r7, pc}
 1183              		.cfi_endproc
 1184              	.LFE76:
 1185              		.size	Init_SDCard, .-Init_SDCard
 1186              		.section	.text.GetADCValue,"ax",%progbits
 1187              		.align	2
 1188              		.global	GetADCValue
 1189              		.thumb
 1190              		.thumb_func
 1191              		.type	GetADCValue, %function
 1192              	GetADCValue:
 1193              	.LFB77:
 1194              		.file 4 "./ADC.h"
   1:./ADC.h       **** /* ========================================
   2:./ADC.h       ****  *
   3:./ADC.h       ****  * Copyright YOUR COMPANY, THE YEAR
   4:./ADC.h       ****  * All Rights Reserved
   5:./ADC.h       ****  * UNPUBLISHED, LICENSED SOFTWARE.
   6:./ADC.h       ****  *
   7:./ADC.h       ****  * CONFIDENTIAL AND PROPRIETARY INFORMATION
   8:./ADC.h       ****  * WHICH IS THE PROPERTY OF your company.
   9:./ADC.h       ****  *
  10:./ADC.h       ****  * ========================================
  11:./ADC.h       **** */
  12:./ADC.h       **** 
  13:./ADC.h       **** #ifndef ADC_H
  14:./ADC.h       ****     #define ADC_H
  15:./ADC.h       **** 
  16:./ADC.h       ****     #include <project.h>
  17:./ADC.h       ****     
  18:./ADC.h       ****     short GetADCValue()
  19:./ADC.h       ****     {
 1195              		.loc 4 19 0
 1196              		.cfi_startproc
 1197              		@ args = 0, pretend = 0, frame = 0
 1198              		@ frame_needed = 1, uses_anonymous_args = 0
 1199 0000 80B5     		push	{r7, lr}
 1200              		.cfi_def_cfa_offset 8
 1201              		.cfi_offset 7, -8
 1202              		.cfi_offset 14, -4
 1203 0002 00AF     		add	r7, sp, #0
 1204              		.cfi_def_cfa_register 7
  20:./ADC.h       ****         Analog_Digital_Converter_IsEndConversion(Analog_Digital_Converter_WAIT_FOR_RESULT);
 1205              		.loc 4 20 0
 1206 0004 0020     		movs	r0, #0
 1207 0006 FFF7FEFF 		bl	Analog_Digital_Converter_IsEndConversion
ARM GAS  C:\Users\LOCALA~1\AppData\Local\Temp\ccsQji0c.s 			page 29


  21:./ADC.h       ****         return Analog_Digital_Converter_GetResult16()/2;
 1208              		.loc 4 21 0
 1209 000a FFF7FEFF 		bl	Analog_Digital_Converter_GetResult16
 1210 000e 0346     		mov	r3, r0
 1211 0010 DA0F     		lsrs	r2, r3, #31
 1212 0012 1344     		add	r3, r3, r2
 1213 0014 5B10     		asrs	r3, r3, #1
 1214 0016 1BB2     		sxth	r3, r3
  22:./ADC.h       ****     }
 1215              		.loc 4 22 0
 1216 0018 1846     		mov	r0, r3
 1217 001a 80BD     		pop	{r7, pc}
 1218              		.cfi_endproc
 1219              	.LFE77:
 1220              		.size	GetADCValue, .-GetADCValue
 1221              		.section	.text.Init_ADC,"ax",%progbits
 1222              		.align	2
 1223              		.global	Init_ADC
 1224              		.thumb
 1225              		.thumb_func
 1226              		.type	Init_ADC, %function
 1227              	Init_ADC:
 1228              	.LFB78:
  23:./ADC.h       ****     
  24:./ADC.h       ****     void Init_ADC()
  25:./ADC.h       ****     {
 1229              		.loc 4 25 0
 1230              		.cfi_startproc
 1231              		@ args = 0, pretend = 0, frame = 0
 1232              		@ frame_needed = 1, uses_anonymous_args = 0
 1233 0000 80B5     		push	{r7, lr}
 1234              		.cfi_def_cfa_offset 8
 1235              		.cfi_offset 7, -8
 1236              		.cfi_offset 14, -4
 1237 0002 00AF     		add	r7, sp, #0
 1238              		.cfi_def_cfa_register 7
  26:./ADC.h       ****         TIA_1_Start();
 1239              		.loc 4 26 0
 1240 0004 FFF7FEFF 		bl	TIA_1_Start
  27:./ADC.h       ****         PGA_Photo_Start();
 1241              		.loc 4 27 0
 1242 0008 FFF7FEFF 		bl	PGA_Photo_Start
  28:./ADC.h       ****         
  29:./ADC.h       ****         Analog_Digital_Converter_Start();
 1243              		.loc 4 29 0
 1244 000c FFF7FEFF 		bl	Analog_Digital_Converter_Start
  30:./ADC.h       ****         Analog_Digital_Converter_StartConvert();
 1245              		.loc 4 30 0
 1246 0010 FFF7FEFF 		bl	Analog_Digital_Converter_StartConvert
  31:./ADC.h       ****     }
 1247              		.loc 4 31 0
 1248 0014 00BF     		nop
 1249 0016 80BD     		pop	{r7, pc}
 1250              		.cfi_endproc
 1251              	.LFE78:
 1252              		.size	Init_ADC, .-Init_ADC
 1253              		.global	MeasurementLaser
ARM GAS  C:\Users\LOCALA~1\AppData\Local\Temp\ccsQji0c.s 			page 30


 1254              		.section	.rodata
 1255 0087 00       		.align	2
 1256              		.type	MeasurementLaser, %object
 1257              		.size	MeasurementLaser, 12
 1258              	MeasurementLaser:
 1259 0088 61       		.byte	97
 1260 0089 62       		.byte	98
 1261 008a 63       		.byte	99
 1262 008b 64       		.byte	100
 1263 008c 65       		.byte	101
 1264 008d 66       		.byte	102
 1265 008e 67       		.byte	103
 1266 008f 68       		.byte	104
 1267 0090 69       		.byte	105
 1268 0091 6A       		.byte	106
 1269 0092 6B       		.byte	107
 1270 0093 6C       		.byte	108
 1271              		.section	.text.Init_MeasurementLasers,"ax",%progbits
 1272              		.align	2
 1273              		.global	Init_MeasurementLasers
 1274              		.thumb
 1275              		.thumb_func
 1276              		.type	Init_MeasurementLasers, %function
 1277              	Init_MeasurementLasers:
 1278              	.LFB79:
 1279              		.file 5 "./LaserSelect.h"
   1:./LaserSelect.h **** /* ========================================
   2:./LaserSelect.h ****  *
   3:./LaserSelect.h ****  * Copyright YOUR COMPANY, THE YEAR
   4:./LaserSelect.h ****  * All Rights Reserved
   5:./LaserSelect.h ****  * UNPUBLISHED, LICENSED SOFTWARE.
   6:./LaserSelect.h ****  *
   7:./LaserSelect.h ****  * CONFIDENTIAL AND PROPRIETARY INFORMATION
   8:./LaserSelect.h ****  * WHICH IS THE PROPERTY OF your company.
   9:./LaserSelect.h ****  *
  10:./LaserSelect.h ****  * ========================================
  11:./LaserSelect.h **** */
  12:./LaserSelect.h **** 
  13:./LaserSelect.h **** #ifndef LASERSELECT_H
  14:./LaserSelect.h ****     #define LASERSELECT_H
  15:./LaserSelect.h **** 
  16:./LaserSelect.h ****     #include <project.h>
  17:./LaserSelect.h ****     #include <GlobalVariables.h>
  18:./LaserSelect.h ****     #include <Nextion.h>
  19:./LaserSelect.h ****     
  20:./LaserSelect.h ****     
  21:./LaserSelect.h ****     const char MeasurementLaser[3][4] = {
  22:./LaserSelect.h ****         {BUTTON_L1_1, BUTTON_L1_2, BUTTON_L1_3, BUTTON_L1_4},
  23:./LaserSelect.h ****         {BUTTON_L2_1, BUTTON_L2_2, BUTTON_L2_3, BUTTON_L2_4},
  24:./LaserSelect.h ****         {BUTTON_L3_1, BUTTON_L3_2, BUTTON_L3_3, BUTTON_L3_4}
  25:./LaserSelect.h ****     };
  26:./LaserSelect.h ****     
  27:./LaserSelect.h ****     void Init_MeasurementLasers()
  28:./LaserSelect.h ****     {
 1280              		.loc 5 28 0
 1281              		.cfi_startproc
 1282              		@ args = 0, pretend = 0, frame = 8
ARM GAS  C:\Users\LOCALA~1\AppData\Local\Temp\ccsQji0c.s 			page 31


 1283              		@ frame_needed = 1, uses_anonymous_args = 0
 1284 0000 80B5     		push	{r7, lr}
 1285              		.cfi_def_cfa_offset 8
 1286              		.cfi_offset 7, -8
 1287              		.cfi_offset 14, -4
 1288 0002 82B0     		sub	sp, sp, #8
 1289              		.cfi_def_cfa_offset 16
 1290 0004 00AF     		add	r7, sp, #0
 1291              		.cfi_def_cfa_register 7
 1292              	.LBB5:
  29:./LaserSelect.h ****         for (int i = 0; i < 3; ++i)
 1293              		.loc 5 29 0
 1294 0006 0023     		movs	r3, #0
 1295 0008 7B60     		str	r3, [r7, #4]
 1296 000a 1FE0     		b	.L66
 1297              	.L69:
 1298              	.LBB6:
  30:./LaserSelect.h ****         {
  31:./LaserSelect.h ****             for (int j = 0; j < 4; ++j)
 1299              		.loc 5 31 0
 1300 000c 0023     		movs	r3, #0
 1301 000e 3B60     		str	r3, [r7]
 1302 0010 16E0     		b	.L67
 1303              	.L68:
  32:./LaserSelect.h ****             {
  33:./LaserSelect.h ****                 g_measurementLasers[i][j] = 0;
 1304              		.loc 5 33 0 discriminator 3
 1305 0012 124A     		ldr	r2, .L70
 1306 0014 7B68     		ldr	r3, [r7, #4]
 1307 0016 9B00     		lsls	r3, r3, #2
 1308 0018 1A44     		add	r2, r2, r3
 1309 001a 3B68     		ldr	r3, [r7]
 1310 001c 1344     		add	r3, r3, r2
 1311 001e 0022     		movs	r2, #0
 1312 0020 1A70     		strb	r2, [r3]
  34:./LaserSelect.h ****                 Nextion_SendBackgroundColorToButton((char*)MeasurementLaser[i][j], NextionColor_Red
 1313              		.loc 5 34 0 discriminator 3
 1314 0022 0F4A     		ldr	r2, .L70+4
 1315 0024 7B68     		ldr	r3, [r7, #4]
 1316 0026 9B00     		lsls	r3, r3, #2
 1317 0028 1A44     		add	r2, r2, r3
 1318 002a 3B68     		ldr	r3, [r7]
 1319 002c 1344     		add	r3, r3, r2
 1320 002e 1B78     		ldrb	r3, [r3]	@ zero_extendqisi2
 1321 0030 4FF47841 		mov	r1, #63488
 1322 0034 1846     		mov	r0, r3
 1323 0036 FFF7FEFF 		bl	Nextion_SendBackgroundColorToButton
  31:./LaserSelect.h ****             {
 1324              		.loc 5 31 0 discriminator 3
 1325 003a 3B68     		ldr	r3, [r7]
 1326 003c 0133     		adds	r3, r3, #1
 1327 003e 3B60     		str	r3, [r7]
 1328              	.L67:
  31:./LaserSelect.h ****             {
 1329              		.loc 5 31 0 is_stmt 0 discriminator 1
 1330 0040 3B68     		ldr	r3, [r7]
 1331 0042 032B     		cmp	r3, #3
ARM GAS  C:\Users\LOCALA~1\AppData\Local\Temp\ccsQji0c.s 			page 32


 1332 0044 E5DD     		ble	.L68
 1333              	.LBE6:
  29:./LaserSelect.h ****         {
 1334              		.loc 5 29 0 is_stmt 1 discriminator 2
 1335 0046 7B68     		ldr	r3, [r7, #4]
 1336 0048 0133     		adds	r3, r3, #1
 1337 004a 7B60     		str	r3, [r7, #4]
 1338              	.L66:
  29:./LaserSelect.h ****         {
 1339              		.loc 5 29 0 is_stmt 0 discriminator 1
 1340 004c 7B68     		ldr	r3, [r7, #4]
 1341 004e 022B     		cmp	r3, #2
 1342 0050 DCDD     		ble	.L69
 1343              	.LBE5:
  35:./LaserSelect.h ****             }
  36:./LaserSelect.h ****         }
  37:./LaserSelect.h ****     }
 1344              		.loc 5 37 0 is_stmt 1
 1345 0052 00BF     		nop
 1346 0054 0837     		adds	r7, r7, #8
 1347              		.cfi_def_cfa_offset 8
 1348 0056 BD46     		mov	sp, r7
 1349              		.cfi_def_cfa_register 13
 1350              		@ sp needed
 1351 0058 80BD     		pop	{r7, pc}
 1352              	.L71:
 1353 005a 00BF     		.align	2
 1354              	.L70:
 1355 005c 00000000 		.word	g_measurementLasers
 1356 0060 00000000 		.word	MeasurementLaser
 1357              		.cfi_endproc
 1358              	.LFE79:
 1359              		.size	Init_MeasurementLasers, .-Init_MeasurementLasers
 1360              		.section	.text.ToggleLaser,"ax",%progbits
 1361              		.align	2
 1362              		.global	ToggleLaser
 1363              		.thumb
 1364              		.thumb_func
 1365              		.type	ToggleLaser, %function
 1366              	ToggleLaser:
 1367              	.LFB80:
  38:./LaserSelect.h ****     
  39:./LaserSelect.h ****     int ToggleLaser(char interrupt)
  40:./LaserSelect.h ****     {
 1368              		.loc 5 40 0
 1369              		.cfi_startproc
 1370              		@ args = 0, pretend = 0, frame = 24
 1371              		@ frame_needed = 1, uses_anonymous_args = 0
 1372 0000 80B5     		push	{r7, lr}
 1373              		.cfi_def_cfa_offset 8
 1374              		.cfi_offset 7, -8
 1375              		.cfi_offset 14, -4
 1376 0002 86B0     		sub	sp, sp, #24
 1377              		.cfi_def_cfa_offset 32
 1378 0004 00AF     		add	r7, sp, #0
 1379              		.cfi_def_cfa_register 7
 1380 0006 0346     		mov	r3, r0
ARM GAS  C:\Users\LOCALA~1\AppData\Local\Temp\ccsQji0c.s 			page 33


 1381 0008 FB71     		strb	r3, [r7, #7]
  41:./LaserSelect.h ****         int returnValue = 0;
 1382              		.loc 5 41 0
 1383 000a 0023     		movs	r3, #0
 1384 000c FB60     		str	r3, [r7, #12]
 1385              	.LBB7:
  42:./LaserSelect.h ****         
  43:./LaserSelect.h ****         for (int i = 0; i < 3; ++i)
 1386              		.loc 5 43 0
 1387 000e 0023     		movs	r3, #0
 1388 0010 7B61     		str	r3, [r7, #20]
 1389 0012 4CE0     		b	.L73
 1390              	.L78:
 1391              	.LBB8:
  44:./LaserSelect.h ****         {
  45:./LaserSelect.h ****             for (int j = 0; j < 4; ++j)
 1392              		.loc 5 45 0
 1393 0014 0023     		movs	r3, #0
 1394 0016 3B61     		str	r3, [r7, #16]
 1395 0018 43E0     		b	.L74
 1396              	.L77:
  46:./LaserSelect.h ****             {           
  47:./LaserSelect.h ****                 if (MeasurementLaser[i][j] == interrupt)
 1397              		.loc 5 47 0
 1398 001a 294A     		ldr	r2, .L80
 1399 001c 7B69     		ldr	r3, [r7, #20]
 1400 001e 9B00     		lsls	r3, r3, #2
 1401 0020 1A44     		add	r2, r2, r3
 1402 0022 3B69     		ldr	r3, [r7, #16]
 1403 0024 1344     		add	r3, r3, r2
 1404 0026 1B78     		ldrb	r3, [r3]	@ zero_extendqisi2
 1405 0028 FA79     		ldrb	r2, [r7, #7]	@ zero_extendqisi2
 1406 002a 9A42     		cmp	r2, r3
 1407 002c 36D1     		bne	.L75
  48:./LaserSelect.h ****                 {
  49:./LaserSelect.h ****                     g_measurementLasers[i][j] = !g_measurementLasers[i][j];
 1408              		.loc 5 49 0
 1409 002e 254A     		ldr	r2, .L80+4
 1410 0030 7B69     		ldr	r3, [r7, #20]
 1411 0032 9B00     		lsls	r3, r3, #2
 1412 0034 1A44     		add	r2, r2, r3
 1413 0036 3B69     		ldr	r3, [r7, #16]
 1414 0038 1344     		add	r3, r3, r2
 1415 003a 1B78     		ldrb	r3, [r3]	@ zero_extendqisi2
 1416 003c 002B     		cmp	r3, #0
 1417 003e 0CBF     		ite	eq
 1418 0040 0123     		moveq	r3, #1
 1419 0042 0023     		movne	r3, #0
 1420 0044 DBB2     		uxtb	r3, r3
 1421 0046 1946     		mov	r1, r3
 1422 0048 1E4A     		ldr	r2, .L80+4
 1423 004a 7B69     		ldr	r3, [r7, #20]
 1424 004c 9B00     		lsls	r3, r3, #2
 1425 004e 1A44     		add	r2, r2, r3
 1426 0050 3B69     		ldr	r3, [r7, #16]
 1427 0052 1344     		add	r3, r3, r2
 1428 0054 0A46     		mov	r2, r1
ARM GAS  C:\Users\LOCALA~1\AppData\Local\Temp\ccsQji0c.s 			page 34


 1429 0056 1A70     		strb	r2, [r3]
  50:./LaserSelect.h ****                     if (g_measurementLasers[i][j])
 1430              		.loc 5 50 0
 1431 0058 1A4A     		ldr	r2, .L80+4
 1432 005a 7B69     		ldr	r3, [r7, #20]
 1433 005c 9B00     		lsls	r3, r3, #2
 1434 005e 1A44     		add	r2, r2, r3
 1435 0060 3B69     		ldr	r3, [r7, #16]
 1436 0062 1344     		add	r3, r3, r2
 1437 0064 1B78     		ldrb	r3, [r3]	@ zero_extendqisi2
 1438 0066 002B     		cmp	r3, #0
 1439 0068 0CD0     		beq	.L76
  51:./LaserSelect.h ****                     {
  52:./LaserSelect.h ****                         Nextion_SendBackgroundColorToButton((char*)MeasurementLaser[i][j], NextionC
 1440              		.loc 5 52 0
 1441 006a 154A     		ldr	r2, .L80
 1442 006c 7B69     		ldr	r3, [r7, #20]
 1443 006e 9B00     		lsls	r3, r3, #2
 1444 0070 1A44     		add	r2, r2, r3
 1445 0072 3B69     		ldr	r3, [r7, #16]
 1446 0074 1344     		add	r3, r3, r2
 1447 0076 1B78     		ldrb	r3, [r3]	@ zero_extendqisi2
 1448 0078 48F2E071 		movw	r1, #34784
 1449 007c 1846     		mov	r0, r3
 1450 007e FFF7FEFF 		bl	Nextion_SendBackgroundColorToButton
 1451 0082 0BE0     		b	.L75
 1452              	.L76:
  53:./LaserSelect.h ****                     }
  54:./LaserSelect.h ****                     else
  55:./LaserSelect.h ****                     {
  56:./LaserSelect.h ****                         Nextion_SendBackgroundColorToButton((char*)MeasurementLaser[i][j], NextionC
 1453              		.loc 5 56 0
 1454 0084 0E4A     		ldr	r2, .L80
 1455 0086 7B69     		ldr	r3, [r7, #20]
 1456 0088 9B00     		lsls	r3, r3, #2
 1457 008a 1A44     		add	r2, r2, r3
 1458 008c 3B69     		ldr	r3, [r7, #16]
 1459 008e 1344     		add	r3, r3, r2
 1460 0090 1B78     		ldrb	r3, [r3]	@ zero_extendqisi2
 1461 0092 4FF47841 		mov	r1, #63488
 1462 0096 1846     		mov	r0, r3
 1463 0098 FFF7FEFF 		bl	Nextion_SendBackgroundColorToButton
 1464              	.L75:
  45:./LaserSelect.h ****             {           
 1465              		.loc 5 45 0 discriminator 2
 1466 009c 3B69     		ldr	r3, [r7, #16]
 1467 009e 0133     		adds	r3, r3, #1
 1468 00a0 3B61     		str	r3, [r7, #16]
 1469              	.L74:
  45:./LaserSelect.h ****             {           
 1470              		.loc 5 45 0 is_stmt 0 discriminator 1
 1471 00a2 3B69     		ldr	r3, [r7, #16]
 1472 00a4 032B     		cmp	r3, #3
 1473 00a6 B8DD     		ble	.L77
 1474              	.LBE8:
  43:./LaserSelect.h ****         {
 1475              		.loc 5 43 0 is_stmt 1 discriminator 2
ARM GAS  C:\Users\LOCALA~1\AppData\Local\Temp\ccsQji0c.s 			page 35


 1476 00a8 7B69     		ldr	r3, [r7, #20]
 1477 00aa 0133     		adds	r3, r3, #1
 1478 00ac 7B61     		str	r3, [r7, #20]
 1479              	.L73:
  43:./LaserSelect.h ****         {
 1480              		.loc 5 43 0 is_stmt 0 discriminator 1
 1481 00ae 7B69     		ldr	r3, [r7, #20]
 1482 00b0 022B     		cmp	r3, #2
 1483 00b2 AFDD     		ble	.L78
 1484              	.LBE7:
  57:./LaserSelect.h ****                     }
  58:./LaserSelect.h ****                 
  59:./LaserSelect.h ****                 }
  60:./LaserSelect.h ****             }
  61:./LaserSelect.h ****         }
  62:./LaserSelect.h ****         
  63:./LaserSelect.h ****         return returnValue;
 1485              		.loc 5 63 0 is_stmt 1
 1486 00b4 FB68     		ldr	r3, [r7, #12]
  64:./LaserSelect.h ****     }
 1487              		.loc 5 64 0
 1488 00b6 1846     		mov	r0, r3
 1489 00b8 1837     		adds	r7, r7, #24
 1490              		.cfi_def_cfa_offset 8
 1491 00ba BD46     		mov	sp, r7
 1492              		.cfi_def_cfa_register 13
 1493              		@ sp needed
 1494 00bc 80BD     		pop	{r7, pc}
 1495              	.L81:
 1496 00be 00BF     		.align	2
 1497              	.L80:
 1498 00c0 00000000 		.word	MeasurementLaser
 1499 00c4 00000000 		.word	g_measurementLasers
 1500              		.cfi_endproc
 1501              	.LFE80:
 1502              		.size	ToggleLaser, .-ToggleLaser
 1503              		.section	.rodata
 1504              		.align	2
 1505              	.LC13:
 1506 0094 70616765 		.ascii	"page LaserSelect\000"
 1506      204C6173 
 1506      65725365 
 1506      6C656374 
 1506      00
 1507              		.section	.text.Laserselect,"ax",%progbits
 1508              		.align	2
 1509              		.global	Laserselect
 1510              		.thumb
 1511              		.thumb_func
 1512              		.type	Laserselect, %function
 1513              	Laserselect:
 1514              	.LFB81:
  65:./LaserSelect.h ****     
  66:./LaserSelect.h ****     int Laserselect()
  67:./LaserSelect.h ****     {   
 1515              		.loc 5 67 0
 1516              		.cfi_startproc
ARM GAS  C:\Users\LOCALA~1\AppData\Local\Temp\ccsQji0c.s 			page 36


 1517              		@ args = 0, pretend = 0, frame = 0
 1518              		@ frame_needed = 1, uses_anonymous_args = 0
 1519 0000 80B5     		push	{r7, lr}
 1520              		.cfi_def_cfa_offset 8
 1521              		.cfi_offset 7, -8
 1522              		.cfi_offset 14, -4
 1523 0002 00AF     		add	r7, sp, #0
 1524              		.cfi_def_cfa_register 7
  68:./LaserSelect.h ****         Init_MeasurementLasers();
 1525              		.loc 5 68 0
 1526 0004 FFF7FEFF 		bl	Init_MeasurementLasers
  69:./LaserSelect.h ****         
  70:./LaserSelect.h ****         g_NextionInterrupt = '0';
 1527              		.loc 5 70 0
 1528 0008 0F4B     		ldr	r3, .L92
 1529 000a 3022     		movs	r2, #48
 1530 000c 1A70     		strb	r2, [r3]
  71:./LaserSelect.h ****         Nextion_SendString("page LaserSelect");
 1531              		.loc 5 71 0
 1532 000e 0F48     		ldr	r0, .L92+4
 1533 0010 FFF7FEFF 		bl	Nextion_SendString
 1534              	.L89:
  72:./LaserSelect.h ****         
  73:./LaserSelect.h ****         while (1)
  74:./LaserSelect.h ****         {
  75:./LaserSelect.h ****             switch (g_NextionInterrupt)
 1535              		.loc 5 75 0
 1536 0014 0C4B     		ldr	r3, .L92
 1537 0016 1B78     		ldrb	r3, [r3]	@ zero_extendqisi2
 1538 0018 482B     		cmp	r3, #72
 1539 001a 06D0     		beq	.L84
 1540 001c 592B     		cmp	r3, #89
 1541 001e 02D0     		beq	.L85
 1542 0020 302B     		cmp	r3, #48
 1543 0022 0AD0     		beq	.L91
 1544 0024 03E0     		b	.L90
 1545              	.L85:
  76:./LaserSelect.h ****             {
  77:./LaserSelect.h ****                 case '0':
  78:./LaserSelect.h ****                     // Do nothing
  79:./LaserSelect.h ****                     break;
  80:./LaserSelect.h ****                 case BUTTON_CONFIRM:
  81:./LaserSelect.h ****                     return 0;
 1546              		.loc 5 81 0
 1547 0026 0023     		movs	r3, #0
 1548 0028 0CE0     		b	.L88
 1549              	.L84:
  82:./LaserSelect.h ****                     break;
  83:./LaserSelect.h ****                 case 'H':
  84:./LaserSelect.h ****                     return 1;
 1550              		.loc 5 84 0
 1551 002a 0123     		movs	r3, #1
 1552 002c 0AE0     		b	.L88
 1553              	.L90:
  85:./LaserSelect.h ****                     break;
  86:./LaserSelect.h ****                 default:
  87:./LaserSelect.h ****                     ToggleLaser(g_NextionInterrupt);
ARM GAS  C:\Users\LOCALA~1\AppData\Local\Temp\ccsQji0c.s 			page 37


 1554              		.loc 5 87 0
 1555 002e 064B     		ldr	r3, .L92
 1556 0030 1B78     		ldrb	r3, [r3]	@ zero_extendqisi2
 1557 0032 1846     		mov	r0, r3
 1558 0034 FFF7FEFF 		bl	ToggleLaser
  88:./LaserSelect.h ****                     break;
 1559              		.loc 5 88 0
 1560 0038 00E0     		b	.L87
 1561              	.L91:
  79:./LaserSelect.h ****                 case BUTTON_CONFIRM:
 1562              		.loc 5 79 0
 1563 003a 00BF     		nop
 1564              	.L87:
  89:./LaserSelect.h ****             }
  90:./LaserSelect.h ****             g_NextionInterrupt = '0';
 1565              		.loc 5 90 0
 1566 003c 024B     		ldr	r3, .L92
 1567 003e 3022     		movs	r2, #48
 1568 0040 1A70     		strb	r2, [r3]
  91:./LaserSelect.h ****         }
 1569              		.loc 5 91 0
 1570 0042 E7E7     		b	.L89
 1571              	.L88:
  92:./LaserSelect.h ****     }
 1572              		.loc 5 92 0
 1573 0044 1846     		mov	r0, r3
 1574 0046 80BD     		pop	{r7, pc}
 1575              	.L93:
 1576              		.align	2
 1577              	.L92:
 1578 0048 00000000 		.word	g_NextionInterrupt
 1579 004c 94000000 		.word	.LC13
 1580              		.cfi_endproc
 1581              	.LFE81:
 1582              		.size	Laserselect, .-Laserselect
 1583              		.bss
 1584              		.align	2
 1585              	counter:
 1586 0060 00000000 		.space	4
 1587              		.section	.text.Nextion_Interrupt_Function,"ax",%progbits
 1588              		.align	2
 1589              		.global	Nextion_Interrupt_Function
 1590              		.thumb
 1591              		.thumb_func
 1592              		.type	Nextion_Interrupt_Function, %function
 1593              	Nextion_Interrupt_Function:
 1594              	.LFB82:
 1595              		.file 6 "./CY_ISR_Nextion.h"
   1:./CY_ISR_Nextion.h **** /* ========================================
   2:./CY_ISR_Nextion.h ****  *
   3:./CY_ISR_Nextion.h ****  * Copyright YOUR COMPANY, THE YEAR
   4:./CY_ISR_Nextion.h ****  * All Rights Reserved
   5:./CY_ISR_Nextion.h ****  * UNPUBLISHED, LICENSED SOFTWARE.
   6:./CY_ISR_Nextion.h ****  *
   7:./CY_ISR_Nextion.h ****  * CONFIDENTIAL AND PROPRIETARY INFORMATION
   8:./CY_ISR_Nextion.h ****  * WHICH IS THE PROPERTY OF your company.
   9:./CY_ISR_Nextion.h ****  *
ARM GAS  C:\Users\LOCALA~1\AppData\Local\Temp\ccsQji0c.s 			page 38


  10:./CY_ISR_Nextion.h ****  * ========================================
  11:./CY_ISR_Nextion.h **** */
  12:./CY_ISR_Nextion.h **** 
  13:./CY_ISR_Nextion.h **** #ifndef CYISRNEXTION_H
  14:./CY_ISR_Nextion.h ****     #define CYISRNEXTION_H
  15:./CY_ISR_Nextion.h ****    
  16:./CY_ISR_Nextion.h ****     #include <project.h>
  17:./CY_ISR_Nextion.h ****     
  18:./CY_ISR_Nextion.h ****     #include <GlobalVariables.h>
  19:./CY_ISR_Nextion.h ****     
  20:./CY_ISR_Nextion.h ****     static int counter = 0;
  21:./CY_ISR_Nextion.h ****     
  22:./CY_ISR_Nextion.h ****     
  23:./CY_ISR_Nextion.h ****     CY_ISR(Nextion_Interrupt_Function)
  24:./CY_ISR_Nextion.h ****     {
 1596              		.loc 6 24 0
 1597              		.cfi_startproc
 1598              		@ args = 0, pretend = 0, frame = 8
 1599              		@ frame_needed = 1, uses_anonymous_args = 0
 1600 0000 80B5     		push	{r7, lr}
 1601              		.cfi_def_cfa_offset 8
 1602              		.cfi_offset 7, -8
 1603              		.cfi_offset 14, -4
 1604 0002 82B0     		sub	sp, sp, #8
 1605              		.cfi_def_cfa_offset 16
 1606 0004 00AF     		add	r7, sp, #0
 1607              		.cfi_def_cfa_register 7
  25:./CY_ISR_Nextion.h ****         char last_byte;
  26:./CY_ISR_Nextion.h ****         last_byte = UART_TFT_GetByte();
 1608              		.loc 6 26 0
 1609 0006 FFF7FEFF 		bl	UART_TFT_GetByte
 1610 000a 0346     		mov	r3, r0
 1611 000c FB71     		strb	r3, [r7, #7]
  27:./CY_ISR_Nextion.h ****         
  28:./CY_ISR_Nextion.h ****         if (last_byte != 0xFF)                      // 0xFF indicates end of communication from/to 
 1612              		.loc 6 28 0
 1613 000e FB79     		ldrb	r3, [r7, #7]	@ zero_extendqisi2
 1614 0010 FF2B     		cmp	r3, #255
 1615 0012 2CD0     		beq	.L100
  29:./CY_ISR_Nextion.h ****         {             
  30:./CY_ISR_Nextion.h ****             if (g_SliderValueReceiving == 1)
 1616              		.loc 6 30 0
 1617 0014 184B     		ldr	r3, .L101
 1618 0016 1B78     		ldrb	r3, [r3]	@ zero_extendqisi2
 1619 0018 012B     		cmp	r3, #1
 1620 001a 14D1     		bne	.L96
  31:./CY_ISR_Nextion.h ****             {
  32:./CY_ISR_Nextion.h ****                 g_SliderValueBuffer[counter] = last_byte;
 1621              		.loc 6 32 0
 1622 001c 174B     		ldr	r3, .L101+4
 1623 001e 1B68     		ldr	r3, [r3]
 1624 0020 1749     		ldr	r1, .L101+8
 1625 0022 FA79     		ldrb	r2, [r7, #7]
 1626 0024 CA54     		strb	r2, [r1, r3]
  33:./CY_ISR_Nextion.h ****                 counter++;
 1627              		.loc 6 33 0
 1628 0026 154B     		ldr	r3, .L101+4
ARM GAS  C:\Users\LOCALA~1\AppData\Local\Temp\ccsQji0c.s 			page 39


 1629 0028 1B68     		ldr	r3, [r3]
 1630 002a 0133     		adds	r3, r3, #1
 1631 002c 134A     		ldr	r2, .L101+4
 1632 002e 1360     		str	r3, [r2]
  34:./CY_ISR_Nextion.h ****                 if (counter == 4){
 1633              		.loc 6 34 0
 1634 0030 124B     		ldr	r3, .L101+4
 1635 0032 1B68     		ldr	r3, [r3]
 1636 0034 042B     		cmp	r3, #4
 1637 0036 1AD1     		bne	.L100
  35:./CY_ISR_Nextion.h ****                     g_SliderValueReceiving = 2;     // indicates that all slider values got receive
 1638              		.loc 6 35 0
 1639 0038 0F4B     		ldr	r3, .L101
 1640 003a 0222     		movs	r2, #2
 1641 003c 1A70     		strb	r2, [r3]
  36:./CY_ISR_Nextion.h ****                     counter = 0;                    // counter reset for finished transmission
 1642              		.loc 6 36 0
 1643 003e 0F4B     		ldr	r3, .L101+4
 1644 0040 0022     		movs	r2, #0
 1645 0042 1A60     		str	r2, [r3]
  37:./CY_ISR_Nextion.h ****                 }
  38:./CY_ISR_Nextion.h ****             }
  39:./CY_ISR_Nextion.h ****             else if (last_byte == '&')                   // Slider value will be sent
  40:./CY_ISR_Nextion.h ****             {
  41:./CY_ISR_Nextion.h ****                 g_SliderValueReceiving = 1;              
  42:./CY_ISR_Nextion.h ****                 counter = 0;                            // Counter reset, if transmission gets inte
  43:./CY_ISR_Nextion.h ****                 
  44:./CY_ISR_Nextion.h ****             }else if (last_byte == 'H')             // Stop everything and return to home!
  45:./CY_ISR_Nextion.h ****             {
  46:./CY_ISR_Nextion.h ****                 g_ActivePage = 'H';
  47:./CY_ISR_Nextion.h ****             }
  48:./CY_ISR_Nextion.h ****             else 
  49:./CY_ISR_Nextion.h ****             {
  50:./CY_ISR_Nextion.h ****                 g_NextionInterrupt = last_byte;   
  51:./CY_ISR_Nextion.h ****             }
  52:./CY_ISR_Nextion.h ****         }
  53:./CY_ISR_Nextion.h ****     }
 1646              		.loc 6 53 0
 1647 0044 13E0     		b	.L100
 1648              	.L96:
  39:./CY_ISR_Nextion.h ****             {
 1649              		.loc 6 39 0
 1650 0046 FB79     		ldrb	r3, [r7, #7]	@ zero_extendqisi2
 1651 0048 262B     		cmp	r3, #38
 1652 004a 06D1     		bne	.L98
  41:./CY_ISR_Nextion.h ****                 counter = 0;                            // Counter reset, if transmission gets inte
 1653              		.loc 6 41 0
 1654 004c 0A4B     		ldr	r3, .L101
 1655 004e 0122     		movs	r2, #1
 1656 0050 1A70     		strb	r2, [r3]
  42:./CY_ISR_Nextion.h ****                 
 1657              		.loc 6 42 0
 1658 0052 0A4B     		ldr	r3, .L101+4
 1659 0054 0022     		movs	r2, #0
 1660 0056 1A60     		str	r2, [r3]
 1661              		.loc 6 53 0
 1662 0058 09E0     		b	.L100
ARM GAS  C:\Users\LOCALA~1\AppData\Local\Temp\ccsQji0c.s 			page 40


 1663              	.L98:
  44:./CY_ISR_Nextion.h ****             {
 1664              		.loc 6 44 0
 1665 005a FB79     		ldrb	r3, [r7, #7]	@ zero_extendqisi2
 1666 005c 482B     		cmp	r3, #72
 1667 005e 03D1     		bne	.L99
  46:./CY_ISR_Nextion.h ****             }
 1668              		.loc 6 46 0
 1669 0060 084B     		ldr	r3, .L101+12
 1670 0062 4822     		movs	r2, #72
 1671 0064 1A70     		strb	r2, [r3]
 1672              		.loc 6 53 0
 1673 0066 02E0     		b	.L100
 1674              	.L99:
  50:./CY_ISR_Nextion.h ****             }
 1675              		.loc 6 50 0
 1676 0068 074A     		ldr	r2, .L101+16
 1677 006a FB79     		ldrb	r3, [r7, #7]
 1678 006c 1370     		strb	r3, [r2]
 1679              	.L100:
 1680              		.loc 6 53 0
 1681 006e 00BF     		nop
 1682 0070 0837     		adds	r7, r7, #8
 1683              		.cfi_def_cfa_offset 8
 1684 0072 BD46     		mov	sp, r7
 1685              		.cfi_def_cfa_register 13
 1686              		@ sp needed
 1687 0074 80BD     		pop	{r7, pc}
 1688              	.L102:
 1689 0076 00BF     		.align	2
 1690              	.L101:
 1691 0078 00000000 		.word	g_SliderValueReceiving
 1692 007c 60000000 		.word	counter
 1693 0080 00000000 		.word	g_SliderValueBuffer
 1694 0084 00000000 		.word	g_ActivePage
 1695 0088 00000000 		.word	g_NextionInterrupt
 1696              		.cfi_endproc
 1697              	.LFE82:
 1698              		.size	Nextion_Interrupt_Function, .-Nextion_Interrupt_Function
 1699              		.section	.text.PC_Interrupt_Function,"ax",%progbits
 1700              		.align	2
 1701              		.global	PC_Interrupt_Function
 1702              		.thumb
 1703              		.thumb_func
 1704              		.type	PC_Interrupt_Function, %function
 1705              	PC_Interrupt_Function:
 1706              	.LFB83:
 1707              		.file 7 "./CY_ISR_PC.h"
   1:./CY_ISR_PC.h **** /* ========================================
   2:./CY_ISR_PC.h ****  *
   3:./CY_ISR_PC.h ****  * Copyright YOUR COMPANY, THE YEAR
   4:./CY_ISR_PC.h ****  * All Rights Reserved
   5:./CY_ISR_PC.h ****  * UNPUBLISHED, LICENSED SOFTWARE.
   6:./CY_ISR_PC.h ****  *
   7:./CY_ISR_PC.h ****  * CONFIDENTIAL AND PROPRIETARY INFORMATION
   8:./CY_ISR_PC.h ****  * WHICH IS THE PROPERTY OF your company.
   9:./CY_ISR_PC.h ****  *
ARM GAS  C:\Users\LOCALA~1\AppData\Local\Temp\ccsQji0c.s 			page 41


  10:./CY_ISR_PC.h ****  * ========================================
  11:./CY_ISR_PC.h **** */
  12:./CY_ISR_PC.h **** 
  13:./CY_ISR_PC.h **** #ifndef CY_ISR_PC_H
  14:./CY_ISR_PC.h ****     #define CY_ISR_PC_H
  15:./CY_ISR_PC.h ****     
  16:./CY_ISR_PC.h ****     #include <project.h>
  17:./CY_ISR_PC.h ****     #include <GlobalVariables.h>
  18:./CY_ISR_PC.h ****     
  19:./CY_ISR_PC.h ****     CY_ISR(PC_Interrupt_Function)
  20:./CY_ISR_PC.h ****     {
 1708              		.loc 7 20 0
 1709              		.cfi_startproc
 1710              		@ args = 0, pretend = 0, frame = 8
 1711              		@ frame_needed = 1, uses_anonymous_args = 0
 1712 0000 80B5     		push	{r7, lr}
 1713              		.cfi_def_cfa_offset 8
 1714              		.cfi_offset 7, -8
 1715              		.cfi_offset 14, -4
 1716 0002 82B0     		sub	sp, sp, #8
 1717              		.cfi_def_cfa_offset 16
 1718 0004 00AF     		add	r7, sp, #0
 1719              		.cfi_def_cfa_register 7
  21:./CY_ISR_PC.h ****         if (g_ActivePage == 'P')
 1720              		.loc 7 21 0
 1721 0006 0B4B     		ldr	r3, .L107
 1722 0008 1B78     		ldrb	r3, [r3]	@ zero_extendqisi2
 1723 000a 502B     		cmp	r3, #80
 1724 000c 0DD1     		bne	.L106
 1725              	.LBB9:
  22:./CY_ISR_PC.h ****         {
  23:./CY_ISR_PC.h ****             char last_byte;
  24:./CY_ISR_PC.h ****             last_byte = UART_PC_GetByte();
 1726              		.loc 7 24 0
 1727 000e FFF7FEFF 		bl	UART_PC_GetByte
 1728 0012 0346     		mov	r3, r0
 1729 0014 FB71     		strb	r3, [r7, #7]
  25:./CY_ISR_PC.h ****             // Provisorisch
  26:./CY_ISR_PC.h ****             if (last_byte == 'H')             // Stop everything and return to home!
 1730              		.loc 7 26 0
 1731 0016 FB79     		ldrb	r3, [r7, #7]	@ zero_extendqisi2
 1732 0018 482B     		cmp	r3, #72
 1733 001a 03D1     		bne	.L105
  27:./CY_ISR_PC.h ****             {
  28:./CY_ISR_PC.h ****                 g_ActivePage = 'H';
 1734              		.loc 7 28 0
 1735 001c 054B     		ldr	r3, .L107
 1736 001e 4822     		movs	r2, #72
 1737 0020 1A70     		strb	r2, [r3]
 1738              	.LBE9:
  29:./CY_ISR_PC.h ****             }
  30:./CY_ISR_PC.h ****             else
  31:./CY_ISR_PC.h ****             {
  32:./CY_ISR_PC.h ****                 g_PCInterrupt = last_byte;
  33:./CY_ISR_PC.h ****             } 
  34:./CY_ISR_PC.h ****         }
  35:./CY_ISR_PC.h ****         
ARM GAS  C:\Users\LOCALA~1\AppData\Local\Temp\ccsQji0c.s 			page 42


  36:./CY_ISR_PC.h ****     }
 1739              		.loc 7 36 0
 1740 0022 02E0     		b	.L106
 1741              	.L105:
 1742              	.LBB10:
  32:./CY_ISR_PC.h ****             } 
 1743              		.loc 7 32 0
 1744 0024 044A     		ldr	r2, .L107+4
 1745 0026 FB79     		ldrb	r3, [r7, #7]
 1746 0028 1370     		strb	r3, [r2]
 1747              	.L106:
 1748              	.LBE10:
 1749              		.loc 7 36 0
 1750 002a 00BF     		nop
 1751 002c 0837     		adds	r7, r7, #8
 1752              		.cfi_def_cfa_offset 8
 1753 002e BD46     		mov	sp, r7
 1754              		.cfi_def_cfa_register 13
 1755              		@ sp needed
 1756 0030 80BD     		pop	{r7, pc}
 1757              	.L108:
 1758 0032 00BF     		.align	2
 1759              	.L107:
 1760 0034 00000000 		.word	g_ActivePage
 1761 0038 00000000 		.word	g_PCInterrupt
 1762              		.cfi_endproc
 1763              	.LFE83:
 1764              		.size	PC_Interrupt_Function, .-PC_Interrupt_Function
 1765              		.global	__aeabi_dadd
 1766              		.section	.text.Timer_Interrupt_Function,"ax",%progbits
 1767              		.align	2
 1768              		.global	Timer_Interrupt_Function
 1769              		.thumb
 1770              		.thumb_func
 1771              		.type	Timer_Interrupt_Function, %function
 1772              	Timer_Interrupt_Function:
 1773              	.LFB84:
 1774              		.file 8 "./CY_ISR_Timer.h"
   1:./CY_ISR_Timer.h **** /* ========================================
   2:./CY_ISR_Timer.h ****  *
   3:./CY_ISR_Timer.h ****  * Copyright YOUR COMPANY, THE YEAR
   4:./CY_ISR_Timer.h ****  * All Rights Reserved
   5:./CY_ISR_Timer.h ****  * UNPUBLISHED, LICENSED SOFTWARE.
   6:./CY_ISR_Timer.h ****  *
   7:./CY_ISR_Timer.h ****  * CONFIDENTIAL AND PROPRIETARY INFORMATION
   8:./CY_ISR_Timer.h ****  * WHICH IS THE PROPERTY OF your company.
   9:./CY_ISR_Timer.h ****  *
  10:./CY_ISR_Timer.h ****  * ========================================
  11:./CY_ISR_Timer.h **** */
  12:./CY_ISR_Timer.h **** 
  13:./CY_ISR_Timer.h **** #ifndef CY_ISR_TIMER_H
  14:./CY_ISR_Timer.h ****     #define CY_ISR_TIMER_H
  15:./CY_ISR_Timer.h ****     
  16:./CY_ISR_Timer.h ****     #include <project.h>
  17:./CY_ISR_Timer.h ****     #include <GlobalVariables.h>
  18:./CY_ISR_Timer.h ****     
  19:./CY_ISR_Timer.h ****     CY_ISR(Timer_Interrupt_Function)
ARM GAS  C:\Users\LOCALA~1\AppData\Local\Temp\ccsQji0c.s 			page 43


  20:./CY_ISR_Timer.h ****     {
 1775              		.loc 8 20 0
 1776              		.cfi_startproc
 1777              		@ args = 0, pretend = 0, frame = 0
 1778              		@ frame_needed = 1, uses_anonymous_args = 0
 1779 0000 98B5     		push	{r3, r4, r7, lr}
 1780              		.cfi_def_cfa_offset 16
 1781              		.cfi_offset 3, -16
 1782              		.cfi_offset 4, -12
 1783              		.cfi_offset 7, -8
 1784              		.cfi_offset 14, -4
 1785 0002 00AF     		add	r7, sp, #0
 1786              		.cfi_def_cfa_register 7
  21:./CY_ISR_Timer.h ****         v_timer_100ms++;
 1787              		.loc 8 21 0
 1788 0004 2A4B     		ldr	r3, .L115
 1789 0006 1B68     		ldr	r3, [r3]
 1790 0008 0133     		adds	r3, r3, #1
 1791 000a 294A     		ldr	r2, .L115
 1792 000c 1360     		str	r3, [r2]
  22:./CY_ISR_Timer.h ****         if (v_timer_100ms >= 100)
 1793              		.loc 8 22 0
 1794 000e 284B     		ldr	r3, .L115
 1795 0010 1B68     		ldr	r3, [r3]
 1796 0012 632B     		cmp	r3, #99
 1797 0014 05DD     		ble	.L110
  23:./CY_ISR_Timer.h ****         {
  24:./CY_ISR_Timer.h ****             v_timerflag_100ms = 1;   
 1798              		.loc 8 24 0
 1799 0016 274B     		ldr	r3, .L115+4
 1800 0018 0122     		movs	r2, #1
 1801 001a 1A70     		strb	r2, [r3]
  25:./CY_ISR_Timer.h ****             v_timer_100ms = 0;
 1802              		.loc 8 25 0
 1803 001c 244B     		ldr	r3, .L115
 1804 001e 0022     		movs	r2, #0
 1805 0020 1A60     		str	r2, [r3]
 1806              	.L110:
  26:./CY_ISR_Timer.h ****         }
  27:./CY_ISR_Timer.h ****         
  28:./CY_ISR_Timer.h ****         v_timer_waiting++;
 1807              		.loc 8 28 0
 1808 0022 254B     		ldr	r3, .L115+8
 1809 0024 1B68     		ldr	r3, [r3]
 1810 0026 0133     		adds	r3, r3, #1
 1811 0028 234A     		ldr	r2, .L115+8
 1812 002a 1360     		str	r3, [r2]
  29:./CY_ISR_Timer.h ****         
  30:./CY_ISR_Timer.h ****         v_timer_Lifetime_ms++;
 1813              		.loc 8 30 0
 1814 002c 234B     		ldr	r3, .L115+12
 1815 002e D3E90001 		ldrd	r0, [r3]
 1816 0032 4FF00002 		mov	r2, #0
 1817 0036 224B     		ldr	r3, .L115+16
 1818 0038 FFF7FEFF 		bl	__aeabi_dadd
 1819 003c 0346     		mov	r3, r0
 1820 003e 0C46     		mov	r4, r1
ARM GAS  C:\Users\LOCALA~1\AppData\Local\Temp\ccsQji0c.s 			page 44


 1821 0040 1E4A     		ldr	r2, .L115+12
 1822 0042 C2E90034 		strd	r3, [r2]
  31:./CY_ISR_Timer.h ****         
  32:./CY_ISR_Timer.h ****         v_timer_Measurement++;
 1823              		.loc 8 32 0
 1824 0046 1F4B     		ldr	r3, .L115+20
 1825 0048 1B68     		ldr	r3, [r3]
 1826 004a 0133     		adds	r3, r3, #1
 1827 004c 1D4A     		ldr	r2, .L115+20
 1828 004e 1360     		str	r3, [r2]
  33:./CY_ISR_Timer.h ****         
  34:./CY_ISR_Timer.h ****         if (v_timer_Measurement >= (g_SwitchPeriodOfLaser_ms/2))
 1829              		.loc 8 34 0
 1830 0050 1D4B     		ldr	r3, .L115+24
 1831 0052 1B68     		ldr	r3, [r3]
 1832 0054 DA0F     		lsrs	r2, r3, #31
 1833 0056 1344     		add	r3, r3, r2
 1834 0058 5B10     		asrs	r3, r3, #1
 1835 005a 1A46     		mov	r2, r3
 1836 005c 194B     		ldr	r3, .L115+20
 1837 005e 1B68     		ldr	r3, [r3]
 1838 0060 9A42     		cmp	r2, r3
 1839 0062 02DC     		bgt	.L111
  35:./CY_ISR_Timer.h ****         {
  36:./CY_ISR_Timer.h ****             v_timerflag_Measurement = 1;
 1840              		.loc 8 36 0
 1841 0064 194B     		ldr	r3, .L115+28
 1842 0066 0122     		movs	r2, #1
 1843 0068 1A60     		str	r2, [r3]
 1844              	.L111:
  37:./CY_ISR_Timer.h ****             // Reset is done, after the laser gets switched -> easier for obtaining the time in the
  38:./CY_ISR_Timer.h ****         }
  39:./CY_ISR_Timer.h ****         
  40:./CY_ISR_Timer.h ****         v_timer_LaserSwitch++;
 1845              		.loc 8 40 0
 1846 006a 194B     		ldr	r3, .L115+32
 1847 006c 1B68     		ldr	r3, [r3]
 1848 006e 0133     		adds	r3, r3, #1
 1849 0070 174A     		ldr	r2, .L115+32
 1850 0072 1360     		str	r3, [r2]
  41:./CY_ISR_Timer.h ****         if (v_timer_LaserSwitch >= g_SwitchPeriodOfLaser_ms)
 1851              		.loc 8 41 0
 1852 0074 164B     		ldr	r3, .L115+32
 1853 0076 1A68     		ldr	r2, [r3]
 1854 0078 134B     		ldr	r3, .L115+24
 1855 007a 1B68     		ldr	r3, [r3]
 1856 007c 9A42     		cmp	r2, r3
 1857 007e 05DB     		blt	.L112
  42:./CY_ISR_Timer.h ****         {
  43:./CY_ISR_Timer.h ****             v_timer_LaserSwitch = 0;
 1858              		.loc 8 43 0
 1859 0080 134B     		ldr	r3, .L115+32
 1860 0082 0022     		movs	r2, #0
 1861 0084 1A60     		str	r2, [r3]
  44:./CY_ISR_Timer.h ****             v_timerflag_LaserSwitch = 1;
 1862              		.loc 8 44 0
 1863 0086 134B     		ldr	r3, .L115+36
ARM GAS  C:\Users\LOCALA~1\AppData\Local\Temp\ccsQji0c.s 			page 45


 1864 0088 0122     		movs	r2, #1
 1865 008a 1A60     		str	r2, [r3]
 1866              	.L112:
  45:./CY_ISR_Timer.h ****         }
  46:./CY_ISR_Timer.h ****         
  47:./CY_ISR_Timer.h ****         v_timer_500ms++;
 1867              		.loc 8 47 0
 1868 008c 124B     		ldr	r3, .L115+40
 1869 008e 1B68     		ldr	r3, [r3]
 1870 0090 0133     		adds	r3, r3, #1
 1871 0092 114A     		ldr	r2, .L115+40
 1872 0094 1360     		str	r3, [r2]
  48:./CY_ISR_Timer.h ****         if (v_timer_500ms >= 500)
 1873              		.loc 8 48 0
 1874 0096 104B     		ldr	r3, .L115+40
 1875 0098 1B68     		ldr	r3, [r3]
 1876 009a B3F5FA7F 		cmp	r3, #500
 1877 009e 05DB     		blt	.L114
  49:./CY_ISR_Timer.h ****         {
  50:./CY_ISR_Timer.h ****             v_timer_500ms = 0;
 1878              		.loc 8 50 0
 1879 00a0 0D4B     		ldr	r3, .L115+40
 1880 00a2 0022     		movs	r2, #0
 1881 00a4 1A60     		str	r2, [r3]
  51:./CY_ISR_Timer.h ****             v_timerflag_500ms = 1;
 1882              		.loc 8 51 0
 1883 00a6 0D4B     		ldr	r3, .L115+44
 1884 00a8 0122     		movs	r2, #1
 1885 00aa 1A60     		str	r2, [r3]
 1886              	.L114:
  52:./CY_ISR_Timer.h ****         }
  53:./CY_ISR_Timer.h ****     }
 1887              		.loc 8 53 0
 1888 00ac 00BF     		nop
 1889 00ae 98BD     		pop	{r3, r4, r7, pc}
 1890              	.L116:
 1891              		.align	2
 1892              	.L115:
 1893 00b0 00000000 		.word	v_timer_100ms
 1894 00b4 00000000 		.word	v_timerflag_100ms
 1895 00b8 00000000 		.word	v_timer_waiting
 1896 00bc 00000000 		.word	v_timer_Lifetime_ms
 1897 00c0 0000F03F 		.word	1072693248
 1898 00c4 00000000 		.word	v_timer_Measurement
 1899 00c8 00000000 		.word	g_SwitchPeriodOfLaser_ms
 1900 00cc 00000000 		.word	v_timerflag_Measurement
 1901 00d0 00000000 		.word	v_timer_LaserSwitch
 1902 00d4 00000000 		.word	v_timerflag_LaserSwitch
 1903 00d8 00000000 		.word	v_timer_500ms
 1904 00dc 00000000 		.word	v_timerflag_500ms
 1905              		.cfi_endproc
 1906              	.LFE84:
 1907              		.size	Timer_Interrupt_Function, .-Timer_Interrupt_Function
 1908              		.section	.text.Init_LED,"ax",%progbits
 1909              		.align	2
 1910              		.global	Init_LED
 1911              		.thumb
ARM GAS  C:\Users\LOCALA~1\AppData\Local\Temp\ccsQji0c.s 			page 46


 1912              		.thumb_func
 1913              		.type	Init_LED, %function
 1914              	Init_LED:
 1915              	.LFB85:
 1916              		.file 9 "./Init.h"
   1:./Init.h      **** /* ========================================
   2:./Init.h      ****  *
   3:./Init.h      ****  * Copyright YOUR COMPANY, THE YEAR
   4:./Init.h      ****  * All Rights Reserved
   5:./Init.h      ****  * UNPUBLISHED, LICENSED SOFTWARE.
   6:./Init.h      ****  *
   7:./Init.h      ****  * CONFIDENTIAL AND PROPRIETARY INFORMATION
   8:./Init.h      ****  * WHICH IS THE PROPERTY OF your company.
   9:./Init.h      ****  *
  10:./Init.h      ****  * ========================================
  11:./Init.h      **** */
  12:./Init.h      **** #ifndef INIT_H
  13:./Init.h      ****     #define INIT_H
  14:./Init.h      ****     
  15:./Init.h      ****     #include <project.h>
  16:./Init.h      ****     
  17:./Init.h      ****     #include <ProgramParts.h>
  18:./Init.h      ****     #include <SDCard.h>
  19:./Init.h      ****     #include <ADC.h>
  20:./Init.h      ****     #include <LaserSelect.h>
  21:./Init.h      ****     #include <Nextion.h>
  22:./Init.h      ****     #include <CY_ISR_Nextion.h>
  23:./Init.h      ****     #include <CY_ISR_PC.h>
  24:./Init.h      ****     #include <CY_ISR_Timer.h>
  25:./Init.h      ****     
  26:./Init.h      ****     
  27:./Init.h      ****     
  28:./Init.h      ****     void Init_LED(char state)
  29:./Init.h      ****     {
 1917              		.loc 9 29 0
 1918              		.cfi_startproc
 1919              		@ args = 0, pretend = 0, frame = 8
 1920              		@ frame_needed = 1, uses_anonymous_args = 0
 1921 0000 80B5     		push	{r7, lr}
 1922              		.cfi_def_cfa_offset 8
 1923              		.cfi_offset 7, -8
 1924              		.cfi_offset 14, -4
 1925 0002 82B0     		sub	sp, sp, #8
 1926              		.cfi_def_cfa_offset 16
 1927 0004 00AF     		add	r7, sp, #0
 1928              		.cfi_def_cfa_register 7
 1929 0006 0346     		mov	r3, r0
 1930 0008 FB71     		strb	r3, [r7, #7]
  30:./Init.h      ****         Pin_LED_Write(state);
 1931              		.loc 9 30 0
 1932 000a FB79     		ldrb	r3, [r7, #7]	@ zero_extendqisi2
 1933 000c 1846     		mov	r0, r3
 1934 000e FFF7FEFF 		bl	Pin_LED_Write
  31:./Init.h      ****     }
 1935              		.loc 9 31 0
 1936 0012 00BF     		nop
 1937 0014 0837     		adds	r7, r7, #8
ARM GAS  C:\Users\LOCALA~1\AppData\Local\Temp\ccsQji0c.s 			page 47


 1938              		.cfi_def_cfa_offset 8
 1939 0016 BD46     		mov	sp, r7
 1940              		.cfi_def_cfa_register 13
 1941              		@ sp needed
 1942 0018 80BD     		pop	{r7, pc}
 1943              		.cfi_endproc
 1944              	.LFE85:
 1945              		.size	Init_LED, .-Init_LED
 1946 001a 00BF     		.section	.text.Init,"ax",%progbits
 1947              		.align	2
 1948              		.global	Init
 1949              		.thumb
 1950              		.thumb_func
 1951              		.type	Init, %function
 1952              	Init:
 1953              	.LFB86:
  32:./Init.h      ****     
  33:./Init.h      ****     
  34:./Init.h      ****     
  35:./Init.h      ****     void Init(){
 1954              		.loc 9 35 0
 1955              		.cfi_startproc
 1956              		@ args = 0, pretend = 0, frame = 0
 1957              		@ frame_needed = 1, uses_anonymous_args = 0
 1958 0000 80B5     		push	{r7, lr}
 1959              		.cfi_def_cfa_offset 8
 1960              		.cfi_offset 7, -8
 1961              		.cfi_offset 14, -4
 1962 0002 00AF     		add	r7, sp, #0
 1963              		.cfi_def_cfa_register 7
  36:./Init.h      ****         Init_LED(1);
 1964              		.loc 9 36 0
 1965 0004 0120     		movs	r0, #1
 1966 0006 FFF7FEFF 		bl	Init_LED
  37:./Init.h      ****         
  38:./Init.h      ****         Init_MeasurementLasers();
 1967              		.loc 9 38 0
 1968 000a FFF7FEFF 		bl	Init_MeasurementLasers
  39:./Init.h      ****         
  40:./Init.h      ****         UART_PC_Start();
 1969              		.loc 9 40 0
 1970 000e FFF7FEFF 		bl	UART_PC_Start
  41:./Init.h      **** 
  42:./Init.h      ****         Init_ADC();    
 1971              		.loc 9 42 0
 1972 0012 FFF7FEFF 		bl	Init_ADC
  43:./Init.h      ****         
  44:./Init.h      ****         Timer1_Start();
 1973              		.loc 9 44 0
 1974 0016 FFF7FEFF 		bl	Timer1_Start
  45:./Init.h      ****         Timer1_Function_StartEx(Timer_Interrupt_Function);
 1975              		.loc 9 45 0
 1976 001a 0848     		ldr	r0, .L119
 1977 001c FFF7FEFF 		bl	Timer1_Function_StartEx
  46:./Init.h      ****         
  47:./Init.h      ****         
  48:./Init.h      ****         
ARM GAS  C:\Users\LOCALA~1\AppData\Local\Temp\ccsQji0c.s 			page 48


  49:./Init.h      ****         Init_Nextion();    
 1978              		.loc 9 49 0
 1979 0020 FFF7FEFF 		bl	Init_Nextion
  50:./Init.h      ****         
  51:./Init.h      ****         Interr_TFT_StartEx(Nextion_Interrupt_Function);
 1980              		.loc 9 51 0
 1981 0024 0648     		ldr	r0, .L119+4
 1982 0026 FFF7FEFF 		bl	Interr_TFT_StartEx
  52:./Init.h      ****         
  53:./Init.h      ****         #ifdef PC_CONTROL
  54:./Init.h      ****         Interr_PC_StartEx(PC_Interrupt_Function);
  55:./Init.h      ****         #endif
  56:./Init.h      ****         
  57:./Init.h      ****         Init_SDCard();
 1983              		.loc 9 57 0
 1984 002a FFF7FEFF 		bl	Init_SDCard
  58:./Init.h      ****         
  59:./Init.h      ****         CyGlobalIntEnable;      // Enable Global Interrupts for Timer, Communication with Nextion a
 1985              		.loc 9 59 0
 1986              		.syntax unified
 1987              	@ 59 "./Init.h" 1
 1988 002e 62B6     		CPSIE   i
 1989              	@ 0 "" 2
  60:./Init.h      ****         
  61:./Init.h      ****         Init_LED(0);
 1990              		.loc 9 61 0
 1991              		.thumb
 1992              		.syntax unified
 1993 0030 0020     		movs	r0, #0
 1994 0032 FFF7FEFF 		bl	Init_LED
  62:./Init.h      ****     }
 1995              		.loc 9 62 0
 1996 0036 00BF     		nop
 1997 0038 80BD     		pop	{r7, pc}
 1998              	.L120:
 1999 003a 00BF     		.align	2
 2000              	.L119:
 2001 003c 00000000 		.word	Timer_Interrupt_Function
 2002 0040 00000000 		.word	Nextion_Interrupt_Function
 2003              		.cfi_endproc
 2004              	.LFE86:
 2005              		.size	Init, .-Init
 2006              		.section	.text.Laser1,"ax",%progbits
 2007              		.align	2
 2008              		.global	Laser1
 2009              		.thumb
 2010              		.thumb_func
 2011              		.type	Laser1, %function
 2012              	Laser1:
 2013              	.LFB87:
 2014              		.file 10 "./Laser.h"
   1:./Laser.h     **** /* ========================================
   2:./Laser.h     ****  *
   3:./Laser.h     ****  * Copyright YOUR COMPANY, THE YEAR
   4:./Laser.h     ****  * All Rights Reserved
   5:./Laser.h     ****  * UNPUBLISHED, LICENSED SOFTWARE.
   6:./Laser.h     ****  *
ARM GAS  C:\Users\LOCALA~1\AppData\Local\Temp\ccsQji0c.s 			page 49


   7:./Laser.h     ****  * CONFIDENTIAL AND PROPRIETARY INFORMATION
   8:./Laser.h     ****  * WHICH IS THE PROPERTY OF your company.
   9:./Laser.h     ****  *
  10:./Laser.h     ****  * ========================================
  11:./Laser.h     **** */
  12:./Laser.h     **** 
  13:./Laser.h     **** #ifndef LASER_H
  14:./Laser.h     ****     #define LASER_H
  15:./Laser.h     **** 
  16:./Laser.h     ****     #include <project.h>
  17:./Laser.h     ****     #include <GlobalVariables.h>
  18:./Laser.h     ****     
  19:./Laser.h     ****     
  20:./Laser.h     ****     void Laser1(int Status)
  21:./Laser.h     ****     {
 2015              		.loc 10 21 0
 2016              		.cfi_startproc
 2017              		@ args = 0, pretend = 0, frame = 8
 2018              		@ frame_needed = 1, uses_anonymous_args = 0
 2019 0000 80B5     		push	{r7, lr}
 2020              		.cfi_def_cfa_offset 8
 2021              		.cfi_offset 7, -8
 2022              		.cfi_offset 14, -4
 2023 0002 82B0     		sub	sp, sp, #8
 2024              		.cfi_def_cfa_offset 16
 2025 0004 00AF     		add	r7, sp, #0
 2026              		.cfi_def_cfa_register 7
 2027 0006 7860     		str	r0, [r7, #4]
  22:./Laser.h     ****         Pin_LaserEN1_Write(Status);
 2028              		.loc 10 22 0
 2029 0008 7B68     		ldr	r3, [r7, #4]
 2030 000a DBB2     		uxtb	r3, r3
 2031 000c 1846     		mov	r0, r3
 2032 000e FFF7FEFF 		bl	Pin_LaserEN1_Write
  23:./Laser.h     ****         LaserState1 = Status;
 2033              		.loc 10 23 0
 2034 0012 7B68     		ldr	r3, [r7, #4]
 2035 0014 DAB2     		uxtb	r2, r3
 2036 0016 034B     		ldr	r3, .L122
 2037 0018 1A70     		strb	r2, [r3]
  24:./Laser.h     ****     }
 2038              		.loc 10 24 0
 2039 001a 00BF     		nop
 2040 001c 0837     		adds	r7, r7, #8
 2041              		.cfi_def_cfa_offset 8
 2042 001e BD46     		mov	sp, r7
 2043              		.cfi_def_cfa_register 13
 2044              		@ sp needed
 2045 0020 80BD     		pop	{r7, pc}
 2046              	.L123:
 2047 0022 00BF     		.align	2
 2048              	.L122:
 2049 0024 00000000 		.word	LaserState1
 2050              		.cfi_endproc
 2051              	.LFE87:
 2052              		.size	Laser1, .-Laser1
 2053              		.section	.text.Laser1_Toggle,"ax",%progbits
ARM GAS  C:\Users\LOCALA~1\AppData\Local\Temp\ccsQji0c.s 			page 50


 2054              		.align	2
 2055              		.global	Laser1_Toggle
 2056              		.thumb
 2057              		.thumb_func
 2058              		.type	Laser1_Toggle, %function
 2059              	Laser1_Toggle:
 2060              	.LFB88:
  25:./Laser.h     ****     
  26:./Laser.h     ****     void Laser1_Toggle()
  27:./Laser.h     ****     {
 2061              		.loc 10 27 0
 2062              		.cfi_startproc
 2063              		@ args = 0, pretend = 0, frame = 0
 2064              		@ frame_needed = 1, uses_anonymous_args = 0
 2065 0000 80B5     		push	{r7, lr}
 2066              		.cfi_def_cfa_offset 8
 2067              		.cfi_offset 7, -8
 2068              		.cfi_offset 14, -4
 2069 0002 00AF     		add	r7, sp, #0
 2070              		.cfi_def_cfa_register 7
  28:./Laser.h     ****         Pin_LaserEN1_Write(!Pin_LaserEN1_Read());
 2071              		.loc 10 28 0
 2072 0004 FFF7FEFF 		bl	Pin_LaserEN1_Read
 2073 0008 0346     		mov	r3, r0
 2074 000a 002B     		cmp	r3, #0
 2075 000c 0CBF     		ite	eq
 2076 000e 0123     		moveq	r3, #1
 2077 0010 0023     		movne	r3, #0
 2078 0012 DBB2     		uxtb	r3, r3
 2079 0014 1846     		mov	r0, r3
 2080 0016 FFF7FEFF 		bl	Pin_LaserEN1_Write
  29:./Laser.h     ****         LaserState1 = Pin_LaserEN1_Read();
 2081              		.loc 10 29 0
 2082 001a FFF7FEFF 		bl	Pin_LaserEN1_Read
 2083 001e 0346     		mov	r3, r0
 2084 0020 1A46     		mov	r2, r3
 2085 0022 024B     		ldr	r3, .L125
 2086 0024 1A70     		strb	r2, [r3]
  30:./Laser.h     ****     }
 2087              		.loc 10 30 0
 2088 0026 00BF     		nop
 2089 0028 80BD     		pop	{r7, pc}
 2090              	.L126:
 2091 002a 00BF     		.align	2
 2092              	.L125:
 2093 002c 00000000 		.word	LaserState1
 2094              		.cfi_endproc
 2095              	.LFE88:
 2096              		.size	Laser1_Toggle, .-Laser1_Toggle
 2097              		.section	.text.Laser2,"ax",%progbits
 2098              		.align	2
 2099              		.global	Laser2
 2100              		.thumb
 2101              		.thumb_func
 2102              		.type	Laser2, %function
 2103              	Laser2:
 2104              	.LFB89:
ARM GAS  C:\Users\LOCALA~1\AppData\Local\Temp\ccsQji0c.s 			page 51


  31:./Laser.h     ****     
  32:./Laser.h     ****     void Laser2(int Status)
  33:./Laser.h     ****     {
 2105              		.loc 10 33 0
 2106              		.cfi_startproc
 2107              		@ args = 0, pretend = 0, frame = 8
 2108              		@ frame_needed = 1, uses_anonymous_args = 0
 2109 0000 80B5     		push	{r7, lr}
 2110              		.cfi_def_cfa_offset 8
 2111              		.cfi_offset 7, -8
 2112              		.cfi_offset 14, -4
 2113 0002 82B0     		sub	sp, sp, #8
 2114              		.cfi_def_cfa_offset 16
 2115 0004 00AF     		add	r7, sp, #0
 2116              		.cfi_def_cfa_register 7
 2117 0006 7860     		str	r0, [r7, #4]
  34:./Laser.h     ****         Pin_LaserEN2_Write(Status);
 2118              		.loc 10 34 0
 2119 0008 7B68     		ldr	r3, [r7, #4]
 2120 000a DBB2     		uxtb	r3, r3
 2121 000c 1846     		mov	r0, r3
 2122 000e FFF7FEFF 		bl	Pin_LaserEN2_Write
  35:./Laser.h     ****         LaserState2 = Status;
 2123              		.loc 10 35 0
 2124 0012 7B68     		ldr	r3, [r7, #4]
 2125 0014 DAB2     		uxtb	r2, r3
 2126 0016 034B     		ldr	r3, .L128
 2127 0018 1A70     		strb	r2, [r3]
  36:./Laser.h     ****     }
 2128              		.loc 10 36 0
 2129 001a 00BF     		nop
 2130 001c 0837     		adds	r7, r7, #8
 2131              		.cfi_def_cfa_offset 8
 2132 001e BD46     		mov	sp, r7
 2133              		.cfi_def_cfa_register 13
 2134              		@ sp needed
 2135 0020 80BD     		pop	{r7, pc}
 2136              	.L129:
 2137 0022 00BF     		.align	2
 2138              	.L128:
 2139 0024 00000000 		.word	LaserState2
 2140              		.cfi_endproc
 2141              	.LFE89:
 2142              		.size	Laser2, .-Laser2
 2143              		.section	.text.Laser2_Toggle,"ax",%progbits
 2144              		.align	2
 2145              		.global	Laser2_Toggle
 2146              		.thumb
 2147              		.thumb_func
 2148              		.type	Laser2_Toggle, %function
 2149              	Laser2_Toggle:
 2150              	.LFB90:
  37:./Laser.h     ****     
  38:./Laser.h     ****     void Laser2_Toggle()
  39:./Laser.h     ****     {
 2151              		.loc 10 39 0
 2152              		.cfi_startproc
ARM GAS  C:\Users\LOCALA~1\AppData\Local\Temp\ccsQji0c.s 			page 52


 2153              		@ args = 0, pretend = 0, frame = 0
 2154              		@ frame_needed = 1, uses_anonymous_args = 0
 2155 0000 80B5     		push	{r7, lr}
 2156              		.cfi_def_cfa_offset 8
 2157              		.cfi_offset 7, -8
 2158              		.cfi_offset 14, -4
 2159 0002 00AF     		add	r7, sp, #0
 2160              		.cfi_def_cfa_register 7
  40:./Laser.h     ****         Pin_LaserEN2_Write(!Pin_LaserEN2_Read());   
 2161              		.loc 10 40 0
 2162 0004 FFF7FEFF 		bl	Pin_LaserEN2_Read
 2163 0008 0346     		mov	r3, r0
 2164 000a 002B     		cmp	r3, #0
 2165 000c 0CBF     		ite	eq
 2166 000e 0123     		moveq	r3, #1
 2167 0010 0023     		movne	r3, #0
 2168 0012 DBB2     		uxtb	r3, r3
 2169 0014 1846     		mov	r0, r3
 2170 0016 FFF7FEFF 		bl	Pin_LaserEN2_Write
  41:./Laser.h     ****         LaserState2 = Pin_LaserEN2_Read();
 2171              		.loc 10 41 0
 2172 001a FFF7FEFF 		bl	Pin_LaserEN2_Read
 2173 001e 0346     		mov	r3, r0
 2174 0020 1A46     		mov	r2, r3
 2175 0022 024B     		ldr	r3, .L131
 2176 0024 1A70     		strb	r2, [r3]
  42:./Laser.h     ****     }
 2177              		.loc 10 42 0
 2178 0026 00BF     		nop
 2179 0028 80BD     		pop	{r7, pc}
 2180              	.L132:
 2181 002a 00BF     		.align	2
 2182              	.L131:
 2183 002c 00000000 		.word	LaserState2
 2184              		.cfi_endproc
 2185              	.LFE90:
 2186              		.size	Laser2_Toggle, .-Laser2_Toggle
 2187              		.section	.text.Laser3,"ax",%progbits
 2188              		.align	2
 2189              		.global	Laser3
 2190              		.thumb
 2191              		.thumb_func
 2192              		.type	Laser3, %function
 2193              	Laser3:
 2194              	.LFB91:
  43:./Laser.h     ****     
  44:./Laser.h     ****     void Laser3(int Status)
  45:./Laser.h     ****     {
 2195              		.loc 10 45 0
 2196              		.cfi_startproc
 2197              		@ args = 0, pretend = 0, frame = 8
 2198              		@ frame_needed = 1, uses_anonymous_args = 0
 2199 0000 80B5     		push	{r7, lr}
 2200              		.cfi_def_cfa_offset 8
 2201              		.cfi_offset 7, -8
 2202              		.cfi_offset 14, -4
 2203 0002 82B0     		sub	sp, sp, #8
ARM GAS  C:\Users\LOCALA~1\AppData\Local\Temp\ccsQji0c.s 			page 53


 2204              		.cfi_def_cfa_offset 16
 2205 0004 00AF     		add	r7, sp, #0
 2206              		.cfi_def_cfa_register 7
 2207 0006 7860     		str	r0, [r7, #4]
  46:./Laser.h     ****         Pin_IRLaserEN_Write(Status);
 2208              		.loc 10 46 0
 2209 0008 7B68     		ldr	r3, [r7, #4]
 2210 000a DBB2     		uxtb	r3, r3
 2211 000c 1846     		mov	r0, r3
 2212 000e FFF7FEFF 		bl	Pin_IRLaserEN_Write
  47:./Laser.h     ****         LaserState3 = Status;
 2213              		.loc 10 47 0
 2214 0012 7B68     		ldr	r3, [r7, #4]
 2215 0014 DAB2     		uxtb	r2, r3
 2216 0016 034B     		ldr	r3, .L134
 2217 0018 1A70     		strb	r2, [r3]
  48:./Laser.h     ****     }
 2218              		.loc 10 48 0
 2219 001a 00BF     		nop
 2220 001c 0837     		adds	r7, r7, #8
 2221              		.cfi_def_cfa_offset 8
 2222 001e BD46     		mov	sp, r7
 2223              		.cfi_def_cfa_register 13
 2224              		@ sp needed
 2225 0020 80BD     		pop	{r7, pc}
 2226              	.L135:
 2227 0022 00BF     		.align	2
 2228              	.L134:
 2229 0024 00000000 		.word	LaserState3
 2230              		.cfi_endproc
 2231              	.LFE91:
 2232              		.size	Laser3, .-Laser3
 2233              		.section	.text.Laser3_Toggle,"ax",%progbits
 2234              		.align	2
 2235              		.global	Laser3_Toggle
 2236              		.thumb
 2237              		.thumb_func
 2238              		.type	Laser3_Toggle, %function
 2239              	Laser3_Toggle:
 2240              	.LFB92:
  49:./Laser.h     ****     
  50:./Laser.h     ****     void Laser3_Toggle()
  51:./Laser.h     ****     {
 2241              		.loc 10 51 0
 2242              		.cfi_startproc
 2243              		@ args = 0, pretend = 0, frame = 0
 2244              		@ frame_needed = 1, uses_anonymous_args = 0
 2245 0000 80B5     		push	{r7, lr}
 2246              		.cfi_def_cfa_offset 8
 2247              		.cfi_offset 7, -8
 2248              		.cfi_offset 14, -4
 2249 0002 00AF     		add	r7, sp, #0
 2250              		.cfi_def_cfa_register 7
  52:./Laser.h     ****         Pin_IRLaserEN_Write(!Pin_IRLaserEN_Read());   
 2251              		.loc 10 52 0
 2252 0004 FFF7FEFF 		bl	Pin_IRLaserEN_Read
 2253 0008 0346     		mov	r3, r0
ARM GAS  C:\Users\LOCALA~1\AppData\Local\Temp\ccsQji0c.s 			page 54


 2254 000a 002B     		cmp	r3, #0
 2255 000c 0CBF     		ite	eq
 2256 000e 0123     		moveq	r3, #1
 2257 0010 0023     		movne	r3, #0
 2258 0012 DBB2     		uxtb	r3, r3
 2259 0014 1846     		mov	r0, r3
 2260 0016 FFF7FEFF 		bl	Pin_IRLaserEN_Write
  53:./Laser.h     ****         LaserState3 = Pin_IRLaserEN_Read();
 2261              		.loc 10 53 0
 2262 001a FFF7FEFF 		bl	Pin_IRLaserEN_Read
 2263 001e 0346     		mov	r3, r0
 2264 0020 1A46     		mov	r2, r3
 2265 0022 024B     		ldr	r3, .L137
 2266 0024 1A70     		strb	r2, [r3]
  54:./Laser.h     ****     }
 2267              		.loc 10 54 0
 2268 0026 00BF     		nop
 2269 0028 80BD     		pop	{r7, pc}
 2270              	.L138:
 2271 002a 00BF     		.align	2
 2272              	.L137:
 2273 002c 00000000 		.word	LaserState3
 2274              		.cfi_endproc
 2275              	.LFE92:
 2276              		.size	Laser3_Toggle, .-Laser3_Toggle
 2277              		.section	.text.turnAllLasersOff,"ax",%progbits
 2278              		.align	2
 2279              		.global	turnAllLasersOff
 2280              		.thumb
 2281              		.thumb_func
 2282              		.type	turnAllLasersOff, %function
 2283              	turnAllLasersOff:
 2284              	.LFB93:
  55:./Laser.h     ****     
  56:./Laser.h     ****     void turnAllLasersOff()
  57:./Laser.h     ****     {
 2285              		.loc 10 57 0
 2286              		.cfi_startproc
 2287              		@ args = 0, pretend = 0, frame = 0
 2288              		@ frame_needed = 1, uses_anonymous_args = 0
 2289 0000 80B5     		push	{r7, lr}
 2290              		.cfi_def_cfa_offset 8
 2291              		.cfi_offset 7, -8
 2292              		.cfi_offset 14, -4
 2293 0002 00AF     		add	r7, sp, #0
 2294              		.cfi_def_cfa_register 7
  58:./Laser.h     ****         Laser1(0);
 2295              		.loc 10 58 0
 2296 0004 0020     		movs	r0, #0
 2297 0006 FFF7FEFF 		bl	Laser1
  59:./Laser.h     ****         Laser2(0);
 2298              		.loc 10 59 0
 2299 000a 0020     		movs	r0, #0
 2300 000c FFF7FEFF 		bl	Laser2
  60:./Laser.h     ****         Laser3(0);
 2301              		.loc 10 60 0
 2302 0010 0020     		movs	r0, #0
ARM GAS  C:\Users\LOCALA~1\AppData\Local\Temp\ccsQji0c.s 			page 55


 2303 0012 FFF7FEFF 		bl	Laser3
  61:./Laser.h     ****     }
 2304              		.loc 10 61 0
 2305 0016 00BF     		nop
 2306 0018 80BD     		pop	{r7, pc}
 2307              		.cfi_endproc
 2308              	.LFE93:
 2309              		.size	turnAllLasersOff, .-turnAllLasersOff
 2310 001a 00BF     		.section	.text.home,"ax",%progbits
 2311              		.align	2
 2312              		.global	home
 2313              		.thumb
 2314              		.thumb_func
 2315              		.type	home, %function
 2316              	home:
 2317              	.LFB94:
 2318              		.file 11 "./home.h"
   1:./home.h      **** /* ========================================
   2:./home.h      ****  *
   3:./home.h      ****  * Copyright YOUR COMPANY, THE YEAR
   4:./home.h      ****  * All Rights Reserved
   5:./home.h      ****  * UNPUBLISHED, LICENSED SOFTWARE.
   6:./home.h      ****  *
   7:./home.h      ****  * CONFIDENTIAL AND PROPRIETARY INFORMATION
   8:./home.h      ****  * WHICH IS THE PROPERTY OF your company.
   9:./home.h      ****  *
  10:./home.h      ****  * ========================================
  11:./home.h      **** */
  12:./home.h      **** 
  13:./home.h      **** #ifndef HOME_H
  14:./home.h      ****     #define HOME_H
  15:./home.h      ****     
  16:./home.h      ****     #include <Laser.h>
  17:./home.h      ****     #include <Nextion.h>
  18:./home.h      ****     
  19:./home.h      ****     void home()
  20:./home.h      ****     {
 2319              		.loc 11 20 0
 2320              		.cfi_startproc
 2321              		@ args = 0, pretend = 0, frame = 0
 2322              		@ frame_needed = 1, uses_anonymous_args = 0
 2323 0000 80B5     		push	{r7, lr}
 2324              		.cfi_def_cfa_offset 8
 2325              		.cfi_offset 7, -8
 2326              		.cfi_offset 14, -4
 2327 0002 00AF     		add	r7, sp, #0
 2328              		.cfi_def_cfa_register 7
  21:./home.h      ****         turnAllLasersOff();
 2329              		.loc 11 21 0
 2330 0004 FFF7FEFF 		bl	turnAllLasersOff
  22:./home.h      ****         CyDelay(10);
 2331              		.loc 11 22 0
 2332 0008 0A20     		movs	r0, #10
 2333 000a FFF7FEFF 		bl	CyDelay
  23:./home.h      ****         Nextion_SendString("page Home");
 2334              		.loc 11 23 0
 2335 000e 0248     		ldr	r0, .L141
ARM GAS  C:\Users\LOCALA~1\AppData\Local\Temp\ccsQji0c.s 			page 56


 2336 0010 FFF7FEFF 		bl	Nextion_SendString
  24:./home.h      ****     }
 2337              		.loc 11 24 0
 2338 0014 00BF     		nop
 2339 0016 80BD     		pop	{r7, pc}
 2340              	.L142:
 2341              		.align	2
 2342              	.L141:
 2343 0018 20000000 		.word	.LC4
 2344              		.cfi_endproc
 2345              	.LFE94:
 2346              		.size	home, .-home
 2347              		.section	.rodata
 2348 00a5 000000   		.align	2
 2349              	.LC14:
 2350 00a8 70616765 		.ascii	"page Parameters\000"
 2350      20506172 
 2350      616D6574 
 2350      65727300 
 2351              		.align	2
 2352              	.LC15:
 2353 00b8 6E5F4E75 		.ascii	"n_Number\000"
 2353      6D626572 
 2353      00
 2354 00c1 000000   		.align	2
 2355              	.LC16:
 2356 00c4 685F4E75 		.ascii	"h_Number\000"
 2356      6D626572 
 2356      00
 2357 00cd 000000   		.align	2
 2358              	.LC17:
 2359 00d0 6E5F5065 		.ascii	"n_Period\000"
 2359      72696F64 
 2359      00
 2360 00d9 000000   		.align	2
 2361              	.LC18:
 2362 00dc 685F5065 		.ascii	"h_Period\000"
 2362      72696F64 
 2362      00
 2363 00e5 000000   		.align	2
 2364              	.LC19:
 2365 00e8 6E5F4D61 		.ascii	"n_MaxTime\000"
 2365      7854696D 
 2365      6500
 2366 00f2 0000     		.align	2
 2367              	.LC20:
 2368 00f4 685F4D61 		.ascii	"h_MaxTime\000"
 2368      7854696D 
 2368      6500
 2369 00fe 0000     		.align	2
 2370              	.LC21:
 2371 0100 6E5F466F 		.ascii	"n_Formation\000"
 2371      726D6174 
 2371      696F6E00 
 2372              		.align	2
 2373              	.LC22:
 2374 010c 685F466F 		.ascii	"h_Formation\000"
ARM GAS  C:\Users\LOCALA~1\AppData\Local\Temp\ccsQji0c.s 			page 57


 2374      726D6174 
 2374      696F6E00 
 2375              		.align	2
 2376              	.LC23:
 2377 0118 6E5F5265 		.ascii	"n_Relaxation\000"
 2377      6C617861 
 2377      74696F6E 
 2377      00
 2378 0125 000000   		.align	2
 2379              	.LC24:
 2380 0128 685F5265 		.ascii	"h_Relaxation\000"
 2380      6C617861 
 2380      74696F6E 
 2380      00
 2381 0135 000000   		.align	2
 2382              	.LC25:
 2383 0138 6E5F436F 		.ascii	"n_Confirmation\000"
 2383      6E666972 
 2383      6D617469 
 2383      6F6E00
 2384 0147 00       		.align	2
 2385              	.LC26:
 2386 0148 685F436F 		.ascii	"h_Confirmation\000"
 2386      6E666972 
 2386      6D617469 
 2386      6F6E00
 2387 0157 00       		.align	2
 2388              	.LC27:
 2389 0158 6E5F5468 		.ascii	"n_Threshold\000"
 2389      72657368 
 2389      6F6C6400 
 2390              		.align	2
 2391              	.LC28:
 2392 0164 685F5468 		.ascii	"h_Threshold\000"
 2392      72657368 
 2392      6F6C6400 
 2393              		.align	2
 2394              	.LC29:
 2395 0170 70616765 		.ascii	"page AddParameters\000"
 2395      20416464 
 2395      50617261 
 2395      6D657465 
 2395      727300
 2396              		.section	.text.ConfigurationOfMeasurement,"ax",%progbits
 2397              		.align	2
 2398              		.global	ConfigurationOfMeasurement
 2399              		.thumb
 2400              		.thumb_func
 2401              		.type	ConfigurationOfMeasurement, %function
 2402              	ConfigurationOfMeasurement:
 2403              	.LFB95:
 2404              		.file 12 "./ConfigurationOfMeasurement.h"
   1:./ConfigurationOfMeasurement.h **** /* ========================================
   2:./ConfigurationOfMeasurement.h ****  *
   3:./ConfigurationOfMeasurement.h ****  * Copyright YOUR COMPANY, THE YEAR
   4:./ConfigurationOfMeasurement.h ****  * All Rights Reserved
   5:./ConfigurationOfMeasurement.h ****  * UNPUBLISHED, LICENSED SOFTWARE.
ARM GAS  C:\Users\LOCALA~1\AppData\Local\Temp\ccsQji0c.s 			page 58


   6:./ConfigurationOfMeasurement.h ****  *
   7:./ConfigurationOfMeasurement.h ****  * CONFIDENTIAL AND PROPRIETARY INFORMATION
   8:./ConfigurationOfMeasurement.h ****  * WHICH IS THE PROPERTY OF your company.
   9:./ConfigurationOfMeasurement.h ****  *
  10:./ConfigurationOfMeasurement.h ****  * ========================================
  11:./ConfigurationOfMeasurement.h **** */
  12:./ConfigurationOfMeasurement.h **** 
  13:./ConfigurationOfMeasurement.h **** #ifndef CONFIGURATIONOFMEASUREMENT_H
  14:./ConfigurationOfMeasurement.h ****     #define CONFIGURATIONOFMEASUREMENT_H
  15:./ConfigurationOfMeasurement.h ****     
  16:./ConfigurationOfMeasurement.h ****     #include <Nextion.h>
  17:./ConfigurationOfMeasurement.h ****     #include <GlobalVariables.h>
  18:./ConfigurationOfMeasurement.h ****     #include <Error.h>
  19:./ConfigurationOfMeasurement.h ****     #include <ProgramParts.h>
  20:./ConfigurationOfMeasurement.h ****     
  21:./ConfigurationOfMeasurement.h ****     #ifdef ChangeFileName
  22:./ConfigurationOfMeasurement.h ****     #include <FileName.h>    
  23:./ConfigurationOfMeasurement.h ****     #endif
  24:./ConfigurationOfMeasurement.h ****     
  25:./ConfigurationOfMeasurement.h ****     int ConfigurationOfMeasurement(const char measurementMode)
  26:./ConfigurationOfMeasurement.h ****     {
 2405              		.loc 12 26 0
 2406              		.cfi_startproc
 2407              		@ args = 0, pretend = 0, frame = 16
 2408              		@ frame_needed = 1, uses_anonymous_args = 0
 2409 0000 80B5     		push	{r7, lr}
 2410              		.cfi_def_cfa_offset 8
 2411              		.cfi_offset 7, -8
 2412              		.cfi_offset 14, -4
 2413 0002 84B0     		sub	sp, sp, #16
 2414              		.cfi_def_cfa_offset 24
 2415 0004 00AF     		add	r7, sp, #0
 2416              		.cfi_def_cfa_register 7
 2417 0006 0346     		mov	r3, r0
 2418 0008 FB71     		strb	r3, [r7, #7]
  27:./ConfigurationOfMeasurement.h ****         // Init
  28:./ConfigurationOfMeasurement.h ****         g_NextionInterrupt = '0';
 2419              		.loc 12 28 0
 2420 000a B24B     		ldr	r3, .L181
 2421 000c 3022     		movs	r2, #48
 2422 000e 1A70     		strb	r2, [r3]
  29:./ConfigurationOfMeasurement.h ****         Nextion_SendString("page Parameters");
 2423              		.loc 12 29 0
 2424 0010 B148     		ldr	r0, .L181+4
 2425 0012 FFF7FEFF 		bl	Nextion_SendString
  30:./ConfigurationOfMeasurement.h ****         
  31:./ConfigurationOfMeasurement.h ****         int number = 0;
 2426              		.loc 12 31 0
 2427 0016 0023     		movs	r3, #0
 2428 0018 FB60     		str	r3, [r7, #12]
  32:./ConfigurationOfMeasurement.h ****         char ActivePage = '1';
 2429              		.loc 12 32 0
 2430 001a 3123     		movs	r3, #49
 2431 001c FB72     		strb	r3, [r7, #11]
  33:./ConfigurationOfMeasurement.h ****         char UpdateNecessary = 1;
 2432              		.loc 12 33 0
 2433 001e 0123     		movs	r3, #1
ARM GAS  C:\Users\LOCALA~1\AppData\Local\Temp\ccsQji0c.s 			page 59


 2434 0020 BB72     		strb	r3, [r7, #10]
  34:./ConfigurationOfMeasurement.h ****         
  35:./ConfigurationOfMeasurement.h ****         switch (measurementMode)
 2435              		.loc 12 35 0
 2436 0022 FB79     		ldrb	r3, [r7, #7]	@ zero_extendqisi2
 2437 0024 4C2B     		cmp	r3, #76
 2438 0026 04D0     		beq	.L145
 2439 0028 542B     		cmp	r3, #84
 2440 002a 0ED0     		beq	.L146
 2441 002c 432B     		cmp	r3, #67
 2442 002e 17D0     		beq	.L147
 2443 0030 23E0     		b	.L179
 2444              	.L145:
  36:./ConfigurationOfMeasurement.h ****         {
  37:./ConfigurationOfMeasurement.h ****             case MODE_LIFETIME:
  38:./ConfigurationOfMeasurement.h ****                 g_NumberOfMeasurements = 300;
 2445              		.loc 12 38 0
 2446 0032 AA4B     		ldr	r3, .L181+8
 2447 0034 4FF49672 		mov	r2, #300
 2448 0038 1A60     		str	r2, [r3]
  39:./ConfigurationOfMeasurement.h ****                 g_SwitchPeriodOfLaser_ms = 50;
 2449              		.loc 12 39 0
 2450 003a A94B     		ldr	r3, .L181+12
 2451 003c 3222     		movs	r2, #50
 2452 003e 1A60     		str	r2, [r3]
  40:./ConfigurationOfMeasurement.h ****                 g_MaxMeasurementTime_min = 300;
 2453              		.loc 12 40 0
 2454 0040 A84B     		ldr	r3, .L181+16
 2455 0042 4FF49672 		mov	r2, #300
 2456 0046 1A60     		str	r2, [r3]
  41:./ConfigurationOfMeasurement.h ****                 break;
 2457              		.loc 12 41 0
 2458 0048 1CE0     		b	.L148
 2459              	.L146:
  42:./ConfigurationOfMeasurement.h ****             case MODE_THICKNESS:
  43:./ConfigurationOfMeasurement.h ****                 g_NumberOfMeasurements = 50;
 2460              		.loc 12 43 0
 2461 004a A44B     		ldr	r3, .L181+8
 2462 004c 3222     		movs	r2, #50
 2463 004e 1A60     		str	r2, [r3]
  44:./ConfigurationOfMeasurement.h ****                 g_SwitchPeriodOfLaser_ms = 500;
 2464              		.loc 12 44 0
 2465 0050 A34B     		ldr	r3, .L181+12
 2466 0052 4FF4FA72 		mov	r2, #500
 2467 0056 1A60     		str	r2, [r3]
  45:./ConfigurationOfMeasurement.h ****                 g_MaxMeasurementTime_min = 60;
 2468              		.loc 12 45 0
 2469 0058 A24B     		ldr	r3, .L181+16
 2470 005a 3C22     		movs	r2, #60
 2471 005c 1A60     		str	r2, [r3]
  46:./ConfigurationOfMeasurement.h ****                 break;
 2472              		.loc 12 46 0
 2473 005e 11E0     		b	.L148
 2474              	.L147:
  47:./ConfigurationOfMeasurement.h ****             case MODE_LIFETIMEANDTHICKNESS:
  48:./ConfigurationOfMeasurement.h ****                 g_NumberOfMeasurements = 300;
 2475              		.loc 12 48 0
ARM GAS  C:\Users\LOCALA~1\AppData\Local\Temp\ccsQji0c.s 			page 60


 2476 0060 9E4B     		ldr	r3, .L181+8
 2477 0062 4FF49672 		mov	r2, #300
 2478 0066 1A60     		str	r2, [r3]
  49:./ConfigurationOfMeasurement.h ****                 g_SwitchPeriodOfLaser_ms = 500;
 2479              		.loc 12 49 0
 2480 0068 9D4B     		ldr	r3, .L181+12
 2481 006a 4FF4FA72 		mov	r2, #500
 2482 006e 1A60     		str	r2, [r3]
  50:./ConfigurationOfMeasurement.h ****                 g_MaxMeasurementTime_min = 300;
 2483              		.loc 12 50 0
 2484 0070 9C4B     		ldr	r3, .L181+16
 2485 0072 4FF49672 		mov	r2, #300
 2486 0076 1A60     		str	r2, [r3]
  51:./ConfigurationOfMeasurement.h ****                 break;
 2487              		.loc 12 51 0
 2488 0078 04E0     		b	.L148
 2489              	.L179:
  52:./ConfigurationOfMeasurement.h ****             default:
  53:./ConfigurationOfMeasurement.h ****                 setError(1);
 2490              		.loc 12 53 0
 2491 007a 0120     		movs	r0, #1
 2492 007c FFF7FEFF 		bl	setError
  54:./ConfigurationOfMeasurement.h ****                 return 1;
 2493              		.loc 12 54 0
 2494 0080 0123     		movs	r3, #1
 2495 0082 D6E1     		b	.L149
 2496              	.L148:
  55:./ConfigurationOfMeasurement.h ****                 break;
  56:./ConfigurationOfMeasurement.h ****         }
  57:./ConfigurationOfMeasurement.h ****         g_FormationTime_ms = 5000;
 2497              		.loc 12 57 0
 2498 0084 984B     		ldr	r3, .L181+20
 2499 0086 41F28832 		movw	r2, #5000
 2500 008a 1A60     		str	r2, [r3]
  58:./ConfigurationOfMeasurement.h ****         g_RelaxationTime_ms = 5000;
 2501              		.loc 12 58 0
 2502 008c 974B     		ldr	r3, .L181+24
 2503 008e 41F28832 		movw	r2, #5000
 2504 0092 1A60     		str	r2, [r3]
  59:./ConfigurationOfMeasurement.h ****         g_ConfirmationTime_ms = 5000;
 2505              		.loc 12 59 0
 2506 0094 964B     		ldr	r3, .L181+28
 2507 0096 41F28832 		movw	r2, #5000
 2508 009a 1A60     		str	r2, [r3]
  60:./ConfigurationOfMeasurement.h ****         g_ThresholdValue_mV = 55; 
 2509              		.loc 12 60 0
 2510 009c 954B     		ldr	r3, .L181+32
 2511 009e 3722     		movs	r2, #55
 2512 00a0 1A60     		str	r2, [r3]
 2513              	.L178:
  61:./ConfigurationOfMeasurement.h ****         
  62:./ConfigurationOfMeasurement.h ****         while (1)
  63:./ConfigurationOfMeasurement.h ****         {
  64:./ConfigurationOfMeasurement.h ****             if (UpdateNecessary)
 2514              		.loc 12 64 0
 2515 00a2 BB7A     		ldrb	r3, [r7, #10]	@ zero_extendqisi2
 2516 00a4 002B     		cmp	r3, #0
ARM GAS  C:\Users\LOCALA~1\AppData\Local\Temp\ccsQji0c.s 			page 61


 2517 00a6 7ED0     		beq	.L150
  65:./ConfigurationOfMeasurement.h ****             {
  66:./ConfigurationOfMeasurement.h ****                 UpdateNecessary = 0;   
 2518              		.loc 12 66 0
 2519 00a8 0023     		movs	r3, #0
 2520 00aa BB72     		strb	r3, [r7, #10]
  67:./ConfigurationOfMeasurement.h ****                 // send the most recent values to the sliders
  68:./ConfigurationOfMeasurement.h ****                 if (ActivePage == '1')                  // First parameter page
 2521              		.loc 12 68 0
 2522 00ac FB7A     		ldrb	r3, [r7, #11]	@ zero_extendqisi2
 2523 00ae 312B     		cmp	r3, #49
 2524 00b0 37D1     		bne	.L151
  69:./ConfigurationOfMeasurement.h ****                 {
  70:./ConfigurationOfMeasurement.h ****                     Nextion_SendValueToValueBox("n_Number", g_NumberOfMeasurements);
 2525              		.loc 12 70 0
 2526 00b2 8A4B     		ldr	r3, .L181+8
 2527 00b4 1B68     		ldr	r3, [r3]
 2528 00b6 1946     		mov	r1, r3
 2529 00b8 8F48     		ldr	r0, .L181+36
 2530 00ba FFF7FEFF 		bl	Nextion_SendValueToValueBox
  71:./ConfigurationOfMeasurement.h ****                     Nextion_SendValueToValueBox("h_Number", g_NumberOfMeasurements/SliderFactor_Num
 2531              		.loc 12 71 0
 2532 00be 874B     		ldr	r3, .L181+8
 2533 00c0 1B68     		ldr	r3, [r3]
 2534 00c2 8E4A     		ldr	r2, .L181+40
 2535 00c4 82FB0312 		smull	r1, r2, r2, r3
 2536 00c8 9210     		asrs	r2, r2, #2
 2537 00ca DB17     		asrs	r3, r3, #31
 2538 00cc D31A     		subs	r3, r2, r3
 2539 00ce 1946     		mov	r1, r3
 2540 00d0 8B48     		ldr	r0, .L181+44
 2541 00d2 FFF7FEFF 		bl	Nextion_SendValueToValueBox
  72:./ConfigurationOfMeasurement.h ****                     Nextion_SendValueToValueBox("n_Period", g_SwitchPeriodOfLaser_ms);
 2542              		.loc 12 72 0
 2543 00d6 824B     		ldr	r3, .L181+12
 2544 00d8 1B68     		ldr	r3, [r3]
 2545 00da 1946     		mov	r1, r3
 2546 00dc 8948     		ldr	r0, .L181+48
 2547 00de FFF7FEFF 		bl	Nextion_SendValueToValueBox
  73:./ConfigurationOfMeasurement.h ****                     Nextion_SendValueToValueBox("h_Period", g_SwitchPeriodOfLaser_ms/SliderFactor_S
 2548              		.loc 12 73 0
 2549 00e2 7F4B     		ldr	r3, .L181+12
 2550 00e4 1B68     		ldr	r3, [r3]
 2551 00e6 854A     		ldr	r2, .L181+40
 2552 00e8 82FB0312 		smull	r1, r2, r2, r3
 2553 00ec 9210     		asrs	r2, r2, #2
 2554 00ee DB17     		asrs	r3, r3, #31
 2555 00f0 D31A     		subs	r3, r2, r3
 2556 00f2 1946     		mov	r1, r3
 2557 00f4 8448     		ldr	r0, .L181+52
 2558 00f6 FFF7FEFF 		bl	Nextion_SendValueToValueBox
  74:./ConfigurationOfMeasurement.h ****                     Nextion_SendValueToValueBox("n_MaxTime", g_MaxMeasurementTime_min);
 2559              		.loc 12 74 0
 2560 00fa 7A4B     		ldr	r3, .L181+16
 2561 00fc 1B68     		ldr	r3, [r3]
 2562 00fe 1946     		mov	r1, r3
 2563 0100 8248     		ldr	r0, .L181+56
ARM GAS  C:\Users\LOCALA~1\AppData\Local\Temp\ccsQji0c.s 			page 62


 2564 0102 FFF7FEFF 		bl	Nextion_SendValueToValueBox
  75:./ConfigurationOfMeasurement.h ****                     Nextion_SendValueToValueBox("h_MaxTime", g_MaxMeasurementTime_min/SliderFactor_
 2565              		.loc 12 75 0
 2566 0106 774B     		ldr	r3, .L181+16
 2567 0108 1B68     		ldr	r3, [r3]
 2568 010a 814A     		ldr	r2, .L181+60
 2569 010c 82FB0312 		smull	r1, r2, r2, r3
 2570 0110 1A44     		add	r2, r2, r3
 2571 0112 D210     		asrs	r2, r2, #3
 2572 0114 DB17     		asrs	r3, r3, #31
 2573 0116 D31A     		subs	r3, r2, r3
 2574 0118 1946     		mov	r1, r3
 2575 011a 7E48     		ldr	r0, .L181+64
 2576 011c FFF7FEFF 		bl	Nextion_SendValueToValueBox
 2577 0120 41E0     		b	.L150
 2578              	.L151:
  76:./ConfigurationOfMeasurement.h ****                     }
  77:./ConfigurationOfMeasurement.h ****                 else                                    // Additional parameter page
  78:./ConfigurationOfMeasurement.h ****                 {
  79:./ConfigurationOfMeasurement.h ****                     Nextion_SendValueToValueBox("n_Formation", g_FormationTime_ms);
 2579              		.loc 12 79 0
 2580 0122 714B     		ldr	r3, .L181+20
 2581 0124 1B68     		ldr	r3, [r3]
 2582 0126 1946     		mov	r1, r3
 2583 0128 7B48     		ldr	r0, .L181+68
 2584 012a FFF7FEFF 		bl	Nextion_SendValueToValueBox
  80:./ConfigurationOfMeasurement.h ****                     Nextion_SendValueToValueBox("h_Formation", g_FormationTime_ms/SliderFactor_Form
 2585              		.loc 12 80 0
 2586 012e 6E4B     		ldr	r3, .L181+20
 2587 0130 1B68     		ldr	r3, [r3]
 2588 0132 7A4A     		ldr	r2, .L181+72
 2589 0134 82FB0312 		smull	r1, r2, r2, r3
 2590 0138 5211     		asrs	r2, r2, #5
 2591 013a DB17     		asrs	r3, r3, #31
 2592 013c D31A     		subs	r3, r2, r3
 2593 013e 1946     		mov	r1, r3
 2594 0140 7748     		ldr	r0, .L181+76
 2595 0142 FFF7FEFF 		bl	Nextion_SendValueToValueBox
  81:./ConfigurationOfMeasurement.h ****                     Nextion_SendValueToValueBox("n_Relaxation", g_RelaxationTime_ms);
 2596              		.loc 12 81 0
 2597 0146 694B     		ldr	r3, .L181+24
 2598 0148 1B68     		ldr	r3, [r3]
 2599 014a 1946     		mov	r1, r3
 2600 014c 7548     		ldr	r0, .L181+80
 2601 014e FFF7FEFF 		bl	Nextion_SendValueToValueBox
  82:./ConfigurationOfMeasurement.h ****                     Nextion_SendValueToValueBox("h_Relaxation", g_RelaxationTime_ms/SliderFactor_Re
 2602              		.loc 12 82 0
 2603 0152 664B     		ldr	r3, .L181+24
 2604 0154 1B68     		ldr	r3, [r3]
 2605 0156 714A     		ldr	r2, .L181+72
 2606 0158 82FB0312 		smull	r1, r2, r2, r3
 2607 015c 1211     		asrs	r2, r2, #4
 2608 015e DB17     		asrs	r3, r3, #31
 2609 0160 D31A     		subs	r3, r2, r3
 2610 0162 1946     		mov	r1, r3
 2611 0164 7048     		ldr	r0, .L181+84
 2612 0166 FFF7FEFF 		bl	Nextion_SendValueToValueBox
ARM GAS  C:\Users\LOCALA~1\AppData\Local\Temp\ccsQji0c.s 			page 63


  83:./ConfigurationOfMeasurement.h ****                     Nextion_SendValueToValueBox("n_Confirmation", g_ConfirmationTime_ms);
 2613              		.loc 12 83 0
 2614 016a 614B     		ldr	r3, .L181+28
 2615 016c 1B68     		ldr	r3, [r3]
 2616 016e 1946     		mov	r1, r3
 2617 0170 6E48     		ldr	r0, .L181+88
 2618 0172 FFF7FEFF 		bl	Nextion_SendValueToValueBox
  84:./ConfigurationOfMeasurement.h ****                     Nextion_SendValueToValueBox("h_Confirmation", g_ConfirmationTime_ms/SliderFacto
 2619              		.loc 12 84 0
 2620 0176 5E4B     		ldr	r3, .L181+28
 2621 0178 1B68     		ldr	r3, [r3]
 2622 017a 684A     		ldr	r2, .L181+72
 2623 017c 82FB0312 		smull	r1, r2, r2, r3
 2624 0180 5211     		asrs	r2, r2, #5
 2625 0182 DB17     		asrs	r3, r3, #31
 2626 0184 D31A     		subs	r3, r2, r3
 2627 0186 1946     		mov	r1, r3
 2628 0188 6948     		ldr	r0, .L181+92
 2629 018a FFF7FEFF 		bl	Nextion_SendValueToValueBox
  85:./ConfigurationOfMeasurement.h ****                     Nextion_SendValueToValueBox("n_Threshold", g_ThresholdValue_mV);
 2630              		.loc 12 85 0
 2631 018e 594B     		ldr	r3, .L181+32
 2632 0190 1B68     		ldr	r3, [r3]
 2633 0192 1946     		mov	r1, r3
 2634 0194 6748     		ldr	r0, .L181+96
 2635 0196 FFF7FEFF 		bl	Nextion_SendValueToValueBox
  86:./ConfigurationOfMeasurement.h ****                     Nextion_SendValueToValueBox("h_Threshold", g_ThresholdValue_mV/SliderFactor_Thr
 2636              		.loc 12 86 0
 2637 019a 564B     		ldr	r3, .L181+32
 2638 019c 1B68     		ldr	r3, [r3]
 2639 019e 1946     		mov	r1, r3
 2640 01a0 6548     		ldr	r0, .L181+100
 2641 01a2 FFF7FEFF 		bl	Nextion_SendValueToValueBox
 2642              	.L150:
  87:./ConfigurationOfMeasurement.h ****                 }
  88:./ConfigurationOfMeasurement.h ****             }
  89:./ConfigurationOfMeasurement.h ****             
  90:./ConfigurationOfMeasurement.h **** 
  91:./ConfigurationOfMeasurement.h ****             if (g_NextionInterrupt != '0')
 2643              		.loc 12 91 0
 2644 01a6 4B4B     		ldr	r3, .L181
 2645 01a8 1B78     		ldrb	r3, [r3]	@ zero_extendqisi2
 2646 01aa 302B     		cmp	r3, #48
 2647 01ac 02D0     		beq	.L152
  92:./ConfigurationOfMeasurement.h ****             {
  93:./ConfigurationOfMeasurement.h ****                 // Get Number from slider
  94:./ConfigurationOfMeasurement.h ****                number = Nextion_GetSliderValue();
 2648              		.loc 12 94 0
 2649 01ae FFF7FEFF 		bl	Nextion_GetSliderValue
 2650 01b2 F860     		str	r0, [r7, #12]
 2651              	.L152:
  95:./ConfigurationOfMeasurement.h ****             }
  96:./ConfigurationOfMeasurement.h ****             switch (g_NextionInterrupt)
 2652              		.loc 12 96 0
 2653 01b4 474B     		ldr	r3, .L181
 2654 01b6 1B78     		ldrb	r3, [r3]	@ zero_extendqisi2
 2655 01b8 303B     		subs	r3, r3, #48
ARM GAS  C:\Users\LOCALA~1\AppData\Local\Temp\ccsQji0c.s 			page 64


 2656 01ba 292B     		cmp	r3, #41
 2657 01bc 00F22C81 		bhi	.L153
 2658 01c0 01A2     		adr	r2, .L155
 2659 01c2 52F823F0 		ldr	pc, [r2, r3, lsl #2]
 2660 01c6 00BF     		.p2align 2
 2661              	.L155:
 2662 01c8 23040000 		.word	.L180+1
 2663 01cc 19040000 		.word	.L153+1
 2664 01d0 19040000 		.word	.L153+1
 2665 01d4 19040000 		.word	.L153+1
 2666 01d8 19040000 		.word	.L153+1
 2667 01dc 19040000 		.word	.L153+1
 2668 01e0 19040000 		.word	.L153+1
 2669 01e4 19040000 		.word	.L153+1
 2670 01e8 19040000 		.word	.L153+1
 2671 01ec 19040000 		.word	.L153+1
 2672 01f0 19040000 		.word	.L153+1
 2673 01f4 19040000 		.word	.L153+1
 2674 01f8 19040000 		.word	.L153+1
 2675 01fc 19040000 		.word	.L153+1
 2676 0200 19040000 		.word	.L153+1
 2677 0204 19040000 		.word	.L153+1
 2678 0208 19040000 		.word	.L153+1
 2679 020c 19040000 		.word	.L153+1
 2680 0210 19040000 		.word	.L153+1
 2681 0214 AB030000 		.word	.L156+1
 2682 0218 19040000 		.word	.L153+1
 2683 021c 19040000 		.word	.L153+1
 2684 0220 61030000 		.word	.L157+1
 2685 0224 19040000 		.word	.L153+1
 2686 0228 15040000 		.word	.L158+1
 2687 022c 19040000 		.word	.L153+1
 2688 0230 19040000 		.word	.L153+1
 2689 0234 19040000 		.word	.L153+1
 2690 0238 19040000 		.word	.L153+1
 2691 023c 3D030000 		.word	.L159+1
 2692 0240 71020000 		.word	.L160+1
 2693 0244 19040000 		.word	.L153+1
 2694 0248 99020000 		.word	.L161+1
 2695 024c 19040000 		.word	.L153+1
 2696 0250 87030000 		.word	.L162+1
 2697 0254 19040000 		.word	.L153+1
 2698 0258 D1030000 		.word	.L163+1
 2699 025c 19040000 		.word	.L153+1
 2700 0260 19040000 		.word	.L153+1
 2701 0264 19040000 		.word	.L153+1
 2702 0268 EF030000 		.word	.L164+1
 2703 026c 11040000 		.word	.L165+1
 2704              		.p2align 1
 2705              	.L160:
  97:./ConfigurationOfMeasurement.h ****             {
  98:./ConfigurationOfMeasurement.h ****                 case '0':
  99:./ConfigurationOfMeasurement.h ****                     // Do nothing
 100:./ConfigurationOfMeasurement.h ****                     break;
 101:./ConfigurationOfMeasurement.h ****                 
 102:./ConfigurationOfMeasurement.h ****                 case SLIDER_NUMBER:
 103:./ConfigurationOfMeasurement.h ****                     if (number == 0)
ARM GAS  C:\Users\LOCALA~1\AppData\Local\Temp\ccsQji0c.s 			page 65


 2706              		.loc 12 103 0
 2707 0270 FB68     		ldr	r3, [r7, #12]
 2708 0272 002B     		cmp	r3, #0
 2709 0274 01D1     		bne	.L167
 104:./ConfigurationOfMeasurement.h ****                     {
 105:./ConfigurationOfMeasurement.h ****                         number = 1;             // minimum value: 10 lamellas
 2710              		.loc 12 105 0
 2711 0276 0123     		movs	r3, #1
 2712 0278 FB60     		str	r3, [r7, #12]
 2713              	.L167:
 106:./ConfigurationOfMeasurement.h ****                     }
 107:./ConfigurationOfMeasurement.h ****                     g_NumberOfMeasurements = number * SliderFactor_NumberOfMeasurements;
 2714              		.loc 12 107 0
 2715 027a FA68     		ldr	r2, [r7, #12]
 2716 027c 1346     		mov	r3, r2
 2717 027e 9B00     		lsls	r3, r3, #2
 2718 0280 1344     		add	r3, r3, r2
 2719 0282 5B00     		lsls	r3, r3, #1
 2720 0284 1A46     		mov	r2, r3
 2721 0286 154B     		ldr	r3, .L181+8
 2722 0288 1A60     		str	r2, [r3]
 108:./ConfigurationOfMeasurement.h ****                     Nextion_SendValueToValueBox("n_Number", g_NumberOfMeasurements);
 2723              		.loc 12 108 0
 2724 028a 144B     		ldr	r3, .L181+8
 2725 028c 1B68     		ldr	r3, [r3]
 2726 028e 1946     		mov	r1, r3
 2727 0290 1948     		ldr	r0, .L181+36
 2728 0292 FFF7FEFF 		bl	Nextion_SendValueToValueBox
 109:./ConfigurationOfMeasurement.h ****                     break;
 2729              		.loc 12 109 0
 2730 0296 C5E0     		b	.L166
 2731              	.L161:
 110:./ConfigurationOfMeasurement.h ****                 
 111:./ConfigurationOfMeasurement.h ****                 case SLIDER_PERIOD:
 112:./ConfigurationOfMeasurement.h ****                     if (measurementMode != MODE_LIFETIME)
 2732              		.loc 12 112 0
 2733 0298 FB79     		ldrb	r3, [r7, #7]	@ zero_extendqisi2
 2734 029a 4C2B     		cmp	r3, #76
 2735 029c 05D0     		beq	.L168
 113:./ConfigurationOfMeasurement.h ****                     {
 114:./ConfigurationOfMeasurement.h ****                         if (number <= 50)
 2736              		.loc 12 114 0
 2737 029e FB68     		ldr	r3, [r7, #12]
 2738 02a0 322B     		cmp	r3, #50
 2739 02a2 07DC     		bgt	.L170
 115:./ConfigurationOfMeasurement.h ****                         {
 116:./ConfigurationOfMeasurement.h ****                             number = 50;             // minimum value: 500 ms, less is not possible
 2740              		.loc 12 116 0
 2741 02a4 3223     		movs	r3, #50
 2742 02a6 FB60     		str	r3, [r7, #12]
 2743 02a8 04E0     		b	.L170
 2744              	.L168:
 117:./ConfigurationOfMeasurement.h ****                         }
 118:./ConfigurationOfMeasurement.h ****                     }
 119:./ConfigurationOfMeasurement.h ****                     else
 120:./ConfigurationOfMeasurement.h ****                     {
 121:./ConfigurationOfMeasurement.h ****                         if (number == 0)
ARM GAS  C:\Users\LOCALA~1\AppData\Local\Temp\ccsQji0c.s 			page 66


 2745              		.loc 12 121 0
 2746 02aa FB68     		ldr	r3, [r7, #12]
 2747 02ac 002B     		cmp	r3, #0
 2748 02ae 01D1     		bne	.L170
 122:./ConfigurationOfMeasurement.h ****                         {
 123:./ConfigurationOfMeasurement.h ****                             number = 1;             // minimum value: 10 ms
 2749              		.loc 12 123 0
 2750 02b0 0123     		movs	r3, #1
 2751 02b2 FB60     		str	r3, [r7, #12]
 2752              	.L170:
 124:./ConfigurationOfMeasurement.h ****                         }
 125:./ConfigurationOfMeasurement.h ****                     }
 126:./ConfigurationOfMeasurement.h ****                     g_SwitchPeriodOfLaser_ms = number * SliderFactor_SwitchPeriodOfLaser;
 2753              		.loc 12 126 0
 2754 02b4 FA68     		ldr	r2, [r7, #12]
 2755 02b6 1346     		mov	r3, r2
 2756 02b8 9B00     		lsls	r3, r3, #2
 2757 02ba 1344     		add	r3, r3, r2
 2758 02bc 5B00     		lsls	r3, r3, #1
 2759 02be 1A46     		mov	r2, r3
 2760 02c0 074B     		ldr	r3, .L181+12
 2761 02c2 1A60     		str	r2, [r3]
 127:./ConfigurationOfMeasurement.h ****                     Nextion_SendValueToValueBox("n_Period", g_SwitchPeriodOfLaser_ms);
 2762              		.loc 12 127 0
 2763 02c4 064B     		ldr	r3, .L181+12
 2764 02c6 1B68     		ldr	r3, [r3]
 2765 02c8 1946     		mov	r1, r3
 2766 02ca 0E48     		ldr	r0, .L181+48
 2767 02cc FFF7FEFF 		bl	Nextion_SendValueToValueBox
 128:./ConfigurationOfMeasurement.h ****                     break;
 2768              		.loc 12 128 0
 2769 02d0 A8E0     		b	.L166
 2770              	.L182:
 2771 02d2 00BF     		.align	2
 2772              	.L181:
 2773 02d4 00000000 		.word	g_NextionInterrupt
 2774 02d8 A8000000 		.word	.LC14
 2775 02dc 00000000 		.word	g_NumberOfMeasurements
 2776 02e0 00000000 		.word	g_SwitchPeriodOfLaser_ms
 2777 02e4 00000000 		.word	g_MaxMeasurementTime_min
 2778 02e8 00000000 		.word	g_FormationTime_ms
 2779 02ec 00000000 		.word	g_RelaxationTime_ms
 2780 02f0 00000000 		.word	g_ConfirmationTime_ms
 2781 02f4 00000000 		.word	g_ThresholdValue_mV
 2782 02f8 B8000000 		.word	.LC15
 2783 02fc 67666666 		.word	1717986919
 2784 0300 C4000000 		.word	.LC16
 2785 0304 D0000000 		.word	.LC17
 2786 0308 DC000000 		.word	.LC18
 2787 030c E8000000 		.word	.LC19
 2788 0310 89888888 		.word	-2004318071
 2789 0314 F4000000 		.word	.LC20
 2790 0318 00010000 		.word	.LC21
 2791 031c D34D6210 		.word	274877907
 2792 0320 0C010000 		.word	.LC22
 2793 0324 18010000 		.word	.LC23
 2794 0328 28010000 		.word	.LC24
ARM GAS  C:\Users\LOCALA~1\AppData\Local\Temp\ccsQji0c.s 			page 67


 2795 032c 38010000 		.word	.LC25
 2796 0330 48010000 		.word	.LC26
 2797 0334 58010000 		.word	.LC27
 2798 0338 64010000 		.word	.LC28
 2799              	.L159:
 129:./ConfigurationOfMeasurement.h ****                 
 130:./ConfigurationOfMeasurement.h ****                 case SLIDER_MAXTIME:
 131:./ConfigurationOfMeasurement.h ****                     if (number == 0)
 2800              		.loc 12 131 0
 2801 033c FB68     		ldr	r3, [r7, #12]
 2802 033e 002B     		cmp	r3, #0
 2803 0340 01D1     		bne	.L171
 132:./ConfigurationOfMeasurement.h ****                     {
 133:./ConfigurationOfMeasurement.h ****                         number = 1;             // minimum value: 15 min
 2804              		.loc 12 133 0
 2805 0342 0123     		movs	r3, #1
 2806 0344 FB60     		str	r3, [r7, #12]
 2807              	.L171:
 134:./ConfigurationOfMeasurement.h ****                     }
 135:./ConfigurationOfMeasurement.h ****                     g_MaxMeasurementTime_min = number * SliderFactor_MaxMeasurementTime;
 2808              		.loc 12 135 0
 2809 0346 FA68     		ldr	r2, [r7, #12]
 2810 0348 1346     		mov	r3, r2
 2811 034a 1B01     		lsls	r3, r3, #4
 2812 034c 9B1A     		subs	r3, r3, r2
 2813 034e 3B4A     		ldr	r2, .L183
 2814 0350 1360     		str	r3, [r2]
 136:./ConfigurationOfMeasurement.h ****                     Nextion_SendValueToValueBox("n_MaxTime", g_MaxMeasurementTime_min);
 2815              		.loc 12 136 0
 2816 0352 3A4B     		ldr	r3, .L183
 2817 0354 1B68     		ldr	r3, [r3]
 2818 0356 1946     		mov	r1, r3
 2819 0358 3948     		ldr	r0, .L183+4
 2820 035a FFF7FEFF 		bl	Nextion_SendValueToValueBox
 137:./ConfigurationOfMeasurement.h ****                     
 138:./ConfigurationOfMeasurement.h ****                     break;
 2821              		.loc 12 138 0
 2822 035e 61E0     		b	.L166
 2823              	.L157:
 139:./ConfigurationOfMeasurement.h ****                 
 140:./ConfigurationOfMeasurement.h ****                 case SLIDER_FORMATION:
 141:./ConfigurationOfMeasurement.h ****                     if (number == 0)
 2824              		.loc 12 141 0
 2825 0360 FB68     		ldr	r3, [r7, #12]
 2826 0362 002B     		cmp	r3, #0
 2827 0364 01D1     		bne	.L172
 142:./ConfigurationOfMeasurement.h ****                     {
 143:./ConfigurationOfMeasurement.h ****                         number = 1;             // minimum value: 500 ms
 2828              		.loc 12 143 0
 2829 0366 0123     		movs	r3, #1
 2830 0368 FB60     		str	r3, [r7, #12]
 2831              	.L172:
 144:./ConfigurationOfMeasurement.h ****                     }
 145:./ConfigurationOfMeasurement.h ****                     g_FormationTime_ms = number * SliderFactor_FormationTime;
 2832              		.loc 12 145 0
 2833 036a FB68     		ldr	r3, [r7, #12]
 2834 036c 4FF4FA72 		mov	r2, #500
ARM GAS  C:\Users\LOCALA~1\AppData\Local\Temp\ccsQji0c.s 			page 68


 2835 0370 02FB03F3 		mul	r3, r2, r3
 2836 0374 334A     		ldr	r2, .L183+8
 2837 0376 1360     		str	r3, [r2]
 146:./ConfigurationOfMeasurement.h ****                     Nextion_SendValueToValueBox("n_Formation", g_FormationTime_ms);
 2838              		.loc 12 146 0
 2839 0378 324B     		ldr	r3, .L183+8
 2840 037a 1B68     		ldr	r3, [r3]
 2841 037c 1946     		mov	r1, r3
 2842 037e 3248     		ldr	r0, .L183+12
 2843 0380 FFF7FEFF 		bl	Nextion_SendValueToValueBox
 147:./ConfigurationOfMeasurement.h ****                     
 148:./ConfigurationOfMeasurement.h ****                     break;
 2844              		.loc 12 148 0
 2845 0384 4EE0     		b	.L166
 2846              	.L162:
 149:./ConfigurationOfMeasurement.h ****                 
 150:./ConfigurationOfMeasurement.h ****                 case SLIDER_RELAXATION:
 151:./ConfigurationOfMeasurement.h ****                     if (number == 0)
 2847              		.loc 12 151 0
 2848 0386 FB68     		ldr	r3, [r7, #12]
 2849 0388 002B     		cmp	r3, #0
 2850 038a 01D1     		bne	.L173
 152:./ConfigurationOfMeasurement.h ****                     {
 153:./ConfigurationOfMeasurement.h ****                         number = 1;             // minimum value: 250 ms
 2851              		.loc 12 153 0
 2852 038c 0123     		movs	r3, #1
 2853 038e FB60     		str	r3, [r7, #12]
 2854              	.L173:
 154:./ConfigurationOfMeasurement.h ****                     }
 155:./ConfigurationOfMeasurement.h ****                     g_RelaxationTime_ms = number * SliderFactor_RelaxationTime;
 2855              		.loc 12 155 0
 2856 0390 FB68     		ldr	r3, [r7, #12]
 2857 0392 FA22     		movs	r2, #250
 2858 0394 02FB03F3 		mul	r3, r2, r3
 2859 0398 2C4A     		ldr	r2, .L183+16
 2860 039a 1360     		str	r3, [r2]
 156:./ConfigurationOfMeasurement.h ****                     Nextion_SendValueToValueBox("n_Relaxation", g_RelaxationTime_ms);
 2861              		.loc 12 156 0
 2862 039c 2B4B     		ldr	r3, .L183+16
 2863 039e 1B68     		ldr	r3, [r3]
 2864 03a0 1946     		mov	r1, r3
 2865 03a2 2B48     		ldr	r0, .L183+20
 2866 03a4 FFF7FEFF 		bl	Nextion_SendValueToValueBox
 157:./ConfigurationOfMeasurement.h ****                     
 158:./ConfigurationOfMeasurement.h ****                     break;
 2867              		.loc 12 158 0
 2868 03a8 3CE0     		b	.L166
 2869              	.L156:
 159:./ConfigurationOfMeasurement.h ****                 
 160:./ConfigurationOfMeasurement.h ****                 case SLIDER_CONFIRMATION:
 161:./ConfigurationOfMeasurement.h ****                     if (number == 0)
 2870              		.loc 12 161 0
 2871 03aa FB68     		ldr	r3, [r7, #12]
 2872 03ac 002B     		cmp	r3, #0
 2873 03ae 01D1     		bne	.L174
 162:./ConfigurationOfMeasurement.h ****                     {
 163:./ConfigurationOfMeasurement.h ****                         number = 1;             // minimum value: 500 ms
ARM GAS  C:\Users\LOCALA~1\AppData\Local\Temp\ccsQji0c.s 			page 69


 2874              		.loc 12 163 0
 2875 03b0 0123     		movs	r3, #1
 2876 03b2 FB60     		str	r3, [r7, #12]
 2877              	.L174:
 164:./ConfigurationOfMeasurement.h ****                     }
 165:./ConfigurationOfMeasurement.h ****                     g_ConfirmationTime_ms = number * SliderFactor_ConfirmationTime;
 2878              		.loc 12 165 0
 2879 03b4 FB68     		ldr	r3, [r7, #12]
 2880 03b6 4FF4FA72 		mov	r2, #500
 2881 03ba 02FB03F3 		mul	r3, r2, r3
 2882 03be 254A     		ldr	r2, .L183+24
 2883 03c0 1360     		str	r3, [r2]
 166:./ConfigurationOfMeasurement.h ****                     Nextion_SendValueToValueBox("n_Confirmation", g_ConfirmationTime_ms);
 2884              		.loc 12 166 0
 2885 03c2 244B     		ldr	r3, .L183+24
 2886 03c4 1B68     		ldr	r3, [r3]
 2887 03c6 1946     		mov	r1, r3
 2888 03c8 2348     		ldr	r0, .L183+28
 2889 03ca FFF7FEFF 		bl	Nextion_SendValueToValueBox
 167:./ConfigurationOfMeasurement.h ****                     
 168:./ConfigurationOfMeasurement.h ****                     break;
 2890              		.loc 12 168 0
 2891 03ce 29E0     		b	.L166
 2892              	.L163:
 169:./ConfigurationOfMeasurement.h ****                 
 170:./ConfigurationOfMeasurement.h ****                 case SLIDER_THRESHOLD:
 171:./ConfigurationOfMeasurement.h ****                     if (number == 0)
 2893              		.loc 12 171 0
 2894 03d0 FB68     		ldr	r3, [r7, #12]
 2895 03d2 002B     		cmp	r3, #0
 2896 03d4 01D1     		bne	.L175
 172:./ConfigurationOfMeasurement.h ****                     {
 173:./ConfigurationOfMeasurement.h ****                         number = 1;             // minimum value: 1 mV
 2897              		.loc 12 173 0
 2898 03d6 0123     		movs	r3, #1
 2899 03d8 FB60     		str	r3, [r7, #12]
 2900              	.L175:
 174:./ConfigurationOfMeasurement.h ****                     }
 175:./ConfigurationOfMeasurement.h ****                     g_ThresholdValue_mV = number * SliderFactor_ThresholdValue;
 2901              		.loc 12 175 0
 2902 03da 204A     		ldr	r2, .L183+32
 2903 03dc FB68     		ldr	r3, [r7, #12]
 2904 03de 1360     		str	r3, [r2]
 176:./ConfigurationOfMeasurement.h ****                     Nextion_SendValueToValueBox("n_Threshold", g_ThresholdValue_mV);
 2905              		.loc 12 176 0
 2906 03e0 1E4B     		ldr	r3, .L183+32
 2907 03e2 1B68     		ldr	r3, [r3]
 2908 03e4 1946     		mov	r1, r3
 2909 03e6 1E48     		ldr	r0, .L183+36
 2910 03e8 FFF7FEFF 		bl	Nextion_SendValueToValueBox
 177:./ConfigurationOfMeasurement.h ****                     
 178:./ConfigurationOfMeasurement.h ****                     break;
 2911              		.loc 12 178 0
 2912 03ec 1AE0     		b	.L166
 2913              	.L164:
 179:./ConfigurationOfMeasurement.h ****                 case BUTTON_ADDITIONALSETTINGS:
 180:./ConfigurationOfMeasurement.h ****                     if (ActivePage == '1')
ARM GAS  C:\Users\LOCALA~1\AppData\Local\Temp\ccsQji0c.s 			page 70


 2914              		.loc 12 180 0
 2915 03ee FB7A     		ldrb	r3, [r7, #11]	@ zero_extendqisi2
 2916 03f0 312B     		cmp	r3, #49
 2917 03f2 05D1     		bne	.L176
 181:./ConfigurationOfMeasurement.h ****                     {
 182:./ConfigurationOfMeasurement.h ****                         ActivePage = '2';
 2918              		.loc 12 182 0
 2919 03f4 3223     		movs	r3, #50
 2920 03f6 FB72     		strb	r3, [r7, #11]
 183:./ConfigurationOfMeasurement.h ****                         Nextion_SendString("page AddParameters");
 2921              		.loc 12 183 0
 2922 03f8 1A48     		ldr	r0, .L183+40
 2923 03fa FFF7FEFF 		bl	Nextion_SendString
 2924 03fe 04E0     		b	.L177
 2925              	.L176:
 184:./ConfigurationOfMeasurement.h ****                     }
 185:./ConfigurationOfMeasurement.h ****                     else
 186:./ConfigurationOfMeasurement.h ****                     {
 187:./ConfigurationOfMeasurement.h ****                         ActivePage = '1';  
 2926              		.loc 12 187 0
 2927 0400 3123     		movs	r3, #49
 2928 0402 FB72     		strb	r3, [r7, #11]
 188:./ConfigurationOfMeasurement.h ****                         Nextion_SendString("page Parameters");
 2929              		.loc 12 188 0
 2930 0404 1848     		ldr	r0, .L183+44
 2931 0406 FFF7FEFF 		bl	Nextion_SendString
 2932              	.L177:
 189:./ConfigurationOfMeasurement.h ****                     }
 190:./ConfigurationOfMeasurement.h ****                     UpdateNecessary = 1;
 2933              		.loc 12 190 0
 2934 040a 0123     		movs	r3, #1
 2935 040c BB72     		strb	r3, [r7, #10]
 191:./ConfigurationOfMeasurement.h ****                     break;
 2936              		.loc 12 191 0
 2937 040e 09E0     		b	.L166
 2938              	.L165:
 192:./ConfigurationOfMeasurement.h ****                 
 193:./ConfigurationOfMeasurement.h ****                 case BUTTON_CONFIRM:           // Confirmation of parameters 
 194:./ConfigurationOfMeasurement.h ****                     return 0;
 2939              		.loc 12 194 0
 2940 0410 0023     		movs	r3, #0
 2941 0412 0EE0     		b	.L149
 2942              	.L158:
 195:./ConfigurationOfMeasurement.h ****                     break;
 196:./ConfigurationOfMeasurement.h ****                     
 197:./ConfigurationOfMeasurement.h ****                 case BUTTON_HOME:
 198:./ConfigurationOfMeasurement.h ****                     return 1;
 2943              		.loc 12 198 0
 2944 0414 0123     		movs	r3, #1
 2945 0416 0CE0     		b	.L149
 2946              	.L153:
 199:./ConfigurationOfMeasurement.h ****                     break;
 200:./ConfigurationOfMeasurement.h **** 
 201:./ConfigurationOfMeasurement.h ****                 #ifdef ChangeFileName    
 202:./ConfigurationOfMeasurement.h ****                 case 'D':
 203:./ConfigurationOfMeasurement.h ****                     Filename();
 204:./ConfigurationOfMeasurement.h ****                     Nextion_SendString("page AddParameters");
ARM GAS  C:\Users\LOCALA~1\AppData\Local\Temp\ccsQji0c.s 			page 71


 205:./ConfigurationOfMeasurement.h ****                     ActivePage = '2';
 206:./ConfigurationOfMeasurement.h ****                     UpdateNecessary = 1;
 207:./ConfigurationOfMeasurement.h ****                     CyDelay(200);
 208:./ConfigurationOfMeasurement.h ****                     SendFileNameToNextion();
 209:./ConfigurationOfMeasurement.h ****                     break;
 210:./ConfigurationOfMeasurement.h ****                 #endif
 211:./ConfigurationOfMeasurement.h ****                     
 212:./ConfigurationOfMeasurement.h ****                 default:
 213:./ConfigurationOfMeasurement.h ****                     setError(1);
 2947              		.loc 12 213 0
 2948 0418 0120     		movs	r0, #1
 2949 041a FFF7FEFF 		bl	setError
 214:./ConfigurationOfMeasurement.h ****                     return 2;
 2950              		.loc 12 214 0
 2951 041e 0223     		movs	r3, #2
 2952 0420 07E0     		b	.L149
 2953              	.L180:
 100:./ConfigurationOfMeasurement.h ****                 
 2954              		.loc 12 100 0
 2955 0422 00BF     		nop
 2956              	.L166:
 215:./ConfigurationOfMeasurement.h ****                     break;
 216:./ConfigurationOfMeasurement.h ****             }
 217:./ConfigurationOfMeasurement.h ****             
 218:./ConfigurationOfMeasurement.h ****             g_NextionInterrupt = '0';
 2957              		.loc 12 218 0
 2958 0424 114B     		ldr	r3, .L183+48
 2959 0426 3022     		movs	r2, #48
 2960 0428 1A70     		strb	r2, [r3]
 219:./ConfigurationOfMeasurement.h ****             CyDelay(5);                     // Maybe useful, maybe not. Will see it.
 2961              		.loc 12 219 0
 2962 042a 0520     		movs	r0, #5
 2963 042c FFF7FEFF 		bl	CyDelay
 220:./ConfigurationOfMeasurement.h ****         }
 2964              		.loc 12 220 0
 2965 0430 37E6     		b	.L178
 2966              	.L149:
 221:./ConfigurationOfMeasurement.h ****         
 222:./ConfigurationOfMeasurement.h ****     }
 2967              		.loc 12 222 0
 2968 0432 1846     		mov	r0, r3
 2969 0434 1037     		adds	r7, r7, #16
 2970              		.cfi_def_cfa_offset 8
 2971 0436 BD46     		mov	sp, r7
 2972              		.cfi_def_cfa_register 13
 2973              		@ sp needed
 2974 0438 80BD     		pop	{r7, pc}
 2975              	.L184:
 2976 043a 00BF     		.align	2
 2977              	.L183:
 2978 043c 00000000 		.word	g_MaxMeasurementTime_min
 2979 0440 E8000000 		.word	.LC19
 2980 0444 00000000 		.word	g_FormationTime_ms
 2981 0448 00010000 		.word	.LC21
 2982 044c 00000000 		.word	g_RelaxationTime_ms
 2983 0450 18010000 		.word	.LC23
 2984 0454 00000000 		.word	g_ConfirmationTime_ms
ARM GAS  C:\Users\LOCALA~1\AppData\Local\Temp\ccsQji0c.s 			page 72


 2985 0458 38010000 		.word	.LC25
 2986 045c 00000000 		.word	g_ThresholdValue_mV
 2987 0460 58010000 		.word	.LC27
 2988 0464 70010000 		.word	.LC29
 2989 0468 A8000000 		.word	.LC14
 2990 046c 00000000 		.word	g_NextionInterrupt
 2991              		.cfi_endproc
 2992              	.LFE95:
 2993              		.size	ConfigurationOfMeasurement, .-ConfigurationOfMeasurement
 2994              		.global	__aeabi_f2d
 2995              		.global	__aeabi_dmul
 2996              		.global	__aeabi_d2f
 2997              		.section	.rodata
 2998 0183 00       		.align	2
 2999              	.LC30:
 3000 0184 61646420 		.ascii	"add 1,0,\000"
 3000      312C302C 
 3000      00
 3001              		.global	__aeabi_f2iz
 3002 018d 000000   		.align	2
 3003              	.LC31:
 3004 0190 61646420 		.ascii	"add 1,1,\000"
 3004      312C312C 
 3004      00
 3005 0199 000000   		.align	2
 3006              	.LC32:
 3007 019c 61646420 		.ascii	"add 1,2,\000"
 3007      312C322C 
 3007      00
 3008              		.section	.text.NextionPlot_PointsToSetupAxes,"ax",%progbits
 3009              		.align	2
 3010              		.global	NextionPlot_PointsToSetupAxes
 3011              		.thumb
 3012              		.thumb_func
 3013              		.type	NextionPlot_PointsToSetupAxes, %function
 3014              	NextionPlot_PointsToSetupAxes:
 3015              	.LFB96:
 3016              		.file 13 "./Nextion_PlotSetupData.h"
   1:./Nextion_PlotSetupData.h **** /* ========================================
   2:./Nextion_PlotSetupData.h ****  *
   3:./Nextion_PlotSetupData.h ****  * Copyright YOUR COMPANY, THE YEAR
   4:./Nextion_PlotSetupData.h ****  * All Rights Reserved
   5:./Nextion_PlotSetupData.h ****  * UNPUBLISHED, LICENSED SOFTWARE.
   6:./Nextion_PlotSetupData.h ****  *
   7:./Nextion_PlotSetupData.h ****  * CONFIDENTIAL AND PROPRIETARY INFORMATION
   8:./Nextion_PlotSetupData.h ****  * WHICH IS THE PROPERTY OF your company.
   9:./Nextion_PlotSetupData.h ****  *
  10:./Nextion_PlotSetupData.h ****  * ========================================
  11:./Nextion_PlotSetupData.h **** */
  12:./Nextion_PlotSetupData.h **** 
  13:./Nextion_PlotSetupData.h **** #ifndef NEXTION_PLOTSETUPDATA_H
  14:./Nextion_PlotSetupData.h ****     #define NEXTION_PLOTSETUPDATA_H
  15:./Nextion_PlotSetupData.h **** 
  16:./Nextion_PlotSetupData.h ****     #include <project.h>
  17:./Nextion_PlotSetupData.h ****     #include <stdlib.h>
  18:./Nextion_PlotSetupData.h ****     #include <math.h>
  19:./Nextion_PlotSetupData.h ****     
ARM GAS  C:\Users\LOCALA~1\AppData\Local\Temp\ccsQji0c.s 			page 73


  20:./Nextion_PlotSetupData.h ****     #include <Nextion.h>
  21:./Nextion_PlotSetupData.h ****     
  22:./Nextion_PlotSetupData.h ****     
  23:./Nextion_PlotSetupData.h ****     // NextionPlotSettings:
  24:./Nextion_PlotSetupData.h ****     // Settings of Nextion software
  25:./Nextion_PlotSetupData.h ****     #define Nextion_SetupPlot_Settings_x 180
  26:./Nextion_PlotSetupData.h ****     #define Nextion_SetupPlot_Settings_y 40
  27:./Nextion_PlotSetupData.h ****     #define Nextion_SetupPlot_Settings_w 325
  28:./Nextion_PlotSetupData.h ****     #define Nextion_SetupPlot_Settings_h 200
  29:./Nextion_PlotSetupData.h ****                 
  30:./Nextion_PlotSetupData.h ****     #define Nextion_SetupPlot_Settings_xmax 100          // Immer 100 Messwerte auf x-Achse
  31:./Nextion_PlotSetupData.h ****     #define Nextion_SetupPlot_Settings_ymax 4095         // Maximalwerts des 12bit ADC, also 2^12
  32:./Nextion_PlotSetupData.h ****     
  33:./Nextion_PlotSetupData.h ****     
  34:./Nextion_PlotSetupData.h ****     
  35:./Nextion_PlotSetupData.h ****     void NextionPlot_PointsToSetupAxes(float presence_ths, float ref_ths, float intensity)
  36:./Nextion_PlotSetupData.h ****     {
 3017              		.loc 13 36 0
 3018              		.cfi_startproc
 3019              		@ args = 0, pretend = 0, frame = 40
 3020              		@ frame_needed = 1, uses_anonymous_args = 0
 3021 0000 90B5     		push	{r4, r7, lr}
 3022              		.cfi_def_cfa_offset 12
 3023              		.cfi_offset 4, -12
 3024              		.cfi_offset 7, -8
 3025              		.cfi_offset 14, -4
 3026 0002 8BB0     		sub	sp, sp, #44
 3027              		.cfi_def_cfa_offset 56
 3028 0004 00AF     		add	r7, sp, #0
 3029              		.cfi_def_cfa_register 7
 3030 0006 F860     		str	r0, [r7, #12]	@ float
 3031 0008 B960     		str	r1, [r7, #8]	@ float
 3032 000a 7A60     		str	r2, [r7, #4]	@ float
  37:./Nextion_PlotSetupData.h ****         // Hilfsvariable mit 20 Zeichen
  38:./Nextion_PlotSetupData.h ****         char num_str[20];
  39:./Nextion_PlotSetupData.h **** 
  40:./Nextion_PlotSetupData.h ****         // bescheuerte Skalierung!!!! Hhe im Nextion Editor is massgeblich
  41:./Nextion_PlotSetupData.h ****         presence_ths = 1.0*Nextion_SetupPlot_Settings_h*(1.0*presence_ths/Nextion_SetupPlot_Setting
 3033              		.loc 13 41 0
 3034 000c F868     		ldr	r0, [r7, #12]	@ float
 3035 000e FFF7FEFF 		bl	__aeabi_f2d
 3036 0012 43A3     		adr	r3, .L186
 3037 0014 D3E90023 		ldrd	r2, [r3]
 3038 0018 FFF7FEFF 		bl	__aeabi_ddiv
 3039 001c 0346     		mov	r3, r0
 3040 001e 0C46     		mov	r4, r1
 3041 0020 1846     		mov	r0, r3
 3042 0022 2146     		mov	r1, r4
 3043 0024 4FF00002 		mov	r2, #0
 3044 0028 3F4B     		ldr	r3, .L186+8
 3045 002a FFF7FEFF 		bl	__aeabi_dmul
 3046 002e 0346     		mov	r3, r0
 3047 0030 0C46     		mov	r4, r1
 3048 0032 1846     		mov	r0, r3
 3049 0034 2146     		mov	r1, r4
 3050 0036 FFF7FEFF 		bl	__aeabi_d2f
 3051 003a 0346     		mov	r3, r0
ARM GAS  C:\Users\LOCALA~1\AppData\Local\Temp\ccsQji0c.s 			page 74


 3052 003c FB60     		str	r3, [r7, #12]	@ float
  42:./Nextion_PlotSetupData.h ****         ref_ths = 1.0*Nextion_SetupPlot_Settings_h*(1.0*ref_ths/Nextion_SetupPlot_Settings_ymax);
 3053              		.loc 13 42 0
 3054 003e B868     		ldr	r0, [r7, #8]	@ float
 3055 0040 FFF7FEFF 		bl	__aeabi_f2d
 3056 0044 36A3     		adr	r3, .L186
 3057 0046 D3E90023 		ldrd	r2, [r3]
 3058 004a FFF7FEFF 		bl	__aeabi_ddiv
 3059 004e 0346     		mov	r3, r0
 3060 0050 0C46     		mov	r4, r1
 3061 0052 1846     		mov	r0, r3
 3062 0054 2146     		mov	r1, r4
 3063 0056 4FF00002 		mov	r2, #0
 3064 005a 334B     		ldr	r3, .L186+8
 3065 005c FFF7FEFF 		bl	__aeabi_dmul
 3066 0060 0346     		mov	r3, r0
 3067 0062 0C46     		mov	r4, r1
 3068 0064 1846     		mov	r0, r3
 3069 0066 2146     		mov	r1, r4
 3070 0068 FFF7FEFF 		bl	__aeabi_d2f
 3071 006c 0346     		mov	r3, r0
 3072 006e BB60     		str	r3, [r7, #8]	@ float
  43:./Nextion_PlotSetupData.h ****         intensity = 1.0*Nextion_SetupPlot_Settings_h*(1.0*intensity/Nextion_SetupPlot_Settings_ymax
 3073              		.loc 13 43 0
 3074 0070 7868     		ldr	r0, [r7, #4]	@ float
 3075 0072 FFF7FEFF 		bl	__aeabi_f2d
 3076 0076 2AA3     		adr	r3, .L186
 3077 0078 D3E90023 		ldrd	r2, [r3]
 3078 007c FFF7FEFF 		bl	__aeabi_ddiv
 3079 0080 0346     		mov	r3, r0
 3080 0082 0C46     		mov	r4, r1
 3081 0084 1846     		mov	r0, r3
 3082 0086 2146     		mov	r1, r4
 3083 0088 4FF00002 		mov	r2, #0
 3084 008c 264B     		ldr	r3, .L186+8
 3085 008e FFF7FEFF 		bl	__aeabi_dmul
 3086 0092 0346     		mov	r3, r0
 3087 0094 0C46     		mov	r4, r1
 3088 0096 1846     		mov	r0, r3
 3089 0098 2146     		mov	r1, r4
 3090 009a FFF7FEFF 		bl	__aeabi_d2f
 3091 009e 0346     		mov	r3, r0
 3092 00a0 7B60     		str	r3, [r7, #4]	@ float
  44:./Nextion_PlotSetupData.h ****         
  45:./Nextion_PlotSetupData.h ****         // -> setze jeweiligen Wert in Kanle 0, 1 und 2 der Zeichenflche mit ID 2
  46:./Nextion_PlotSetupData.h ****         
  47:./Nextion_PlotSetupData.h ****         // Wert fr Detektionsgrenze -> darunter wird die Zeitmessung gestoppt
  48:./Nextion_PlotSetupData.h ****         UART_TFT_PutString("add 1,0,"); // Nextion Befehl: add ID, Channel, Value
 3093              		.loc 13 48 0
 3094 00a2 2248     		ldr	r0, .L186+12
 3095 00a4 FFF7FEFF 		bl	UART_TFT_PutString
  49:./Nextion_PlotSetupData.h ****         // Umwandlung Integer -> Array of char ("String") x_str im Decimalsystem
  50:./Nextion_PlotSetupData.h ****         itoa((int)presence_ths, num_str, 10);
 3096              		.loc 13 50 0
 3097 00a8 F868     		ldr	r0, [r7, #12]	@ float
 3098 00aa FFF7FEFF 		bl	__aeabi_f2iz
 3099 00ae 07F11403 		add	r3, r7, #20
ARM GAS  C:\Users\LOCALA~1\AppData\Local\Temp\ccsQji0c.s 			page 75


 3100 00b2 0A22     		movs	r2, #10
 3101 00b4 1946     		mov	r1, r3
 3102 00b6 FFF7FEFF 		bl	itoa
  51:./Nextion_PlotSetupData.h ****         UART_TFT_PutString(num_str);
 3103              		.loc 13 51 0
 3104 00ba 07F11403 		add	r3, r7, #20
 3105 00be 1846     		mov	r0, r3
 3106 00c0 FFF7FEFF 		bl	UART_TFT_PutString
  52:./Nextion_PlotSetupData.h ****         // Ende der Eingabe markieren
  53:./Nextion_PlotSetupData.h ****         Nextion_SendEndOfCommunication(); 
 3107              		.loc 13 53 0
 3108 00c4 FFF7FEFF 		bl	Nextion_SendEndOfCommunication
  54:./Nextion_PlotSetupData.h ****         
  55:./Nextion_PlotSetupData.h ****         // Wert fr Autokalibrierung -> wenn berschritten, ist das die Sampling Position
  56:./Nextion_PlotSetupData.h ****         UART_TFT_PutString("add 1,1,");
 3109              		.loc 13 56 0
 3110 00c8 1948     		ldr	r0, .L186+16
 3111 00ca FFF7FEFF 		bl	UART_TFT_PutString
  57:./Nextion_PlotSetupData.h ****         // Umwandlung Integer -> Array of char ("String") x_str im Decimalsystem
  58:./Nextion_PlotSetupData.h ****         itoa((int)ref_ths, num_str, 10);
 3112              		.loc 13 58 0
 3113 00ce B868     		ldr	r0, [r7, #8]	@ float
 3114 00d0 FFF7FEFF 		bl	__aeabi_f2iz
 3115 00d4 07F11403 		add	r3, r7, #20
 3116 00d8 0A22     		movs	r2, #10
 3117 00da 1946     		mov	r1, r3
 3118 00dc FFF7FEFF 		bl	itoa
  59:./Nextion_PlotSetupData.h ****         UART_TFT_PutString(num_str);
 3119              		.loc 13 59 0
 3120 00e0 07F11403 		add	r3, r7, #20
 3121 00e4 1846     		mov	r0, r3
 3122 00e6 FFF7FEFF 		bl	UART_TFT_PutString
  60:./Nextion_PlotSetupData.h ****         // Ende der Eingabe markieren
  61:./Nextion_PlotSetupData.h ****         Nextion_SendEndOfCommunication(); 
 3123              		.loc 13 61 0
 3124 00ea FFF7FEFF 		bl	Nextion_SendEndOfCommunication
  62:./Nextion_PlotSetupData.h ****         
  63:./Nextion_PlotSetupData.h ****         // Momentaner Wert vom ADC
  64:./Nextion_PlotSetupData.h ****         UART_TFT_PutString("add 1,2,");
 3125              		.loc 13 64 0
 3126 00ee 1148     		ldr	r0, .L186+20
 3127 00f0 FFF7FEFF 		bl	UART_TFT_PutString
  65:./Nextion_PlotSetupData.h ****         // Umwandlung Integer -> Array of char ("String") x_str im Decimalsystem
  66:./Nextion_PlotSetupData.h ****         itoa((int)intensity, num_str, 10);
 3128              		.loc 13 66 0
 3129 00f4 7868     		ldr	r0, [r7, #4]	@ float
 3130 00f6 FFF7FEFF 		bl	__aeabi_f2iz
 3131 00fa 07F11403 		add	r3, r7, #20
 3132 00fe 0A22     		movs	r2, #10
 3133 0100 1946     		mov	r1, r3
 3134 0102 FFF7FEFF 		bl	itoa
  67:./Nextion_PlotSetupData.h ****         UART_TFT_PutString(num_str);
 3135              		.loc 13 67 0
 3136 0106 07F11403 		add	r3, r7, #20
 3137 010a 1846     		mov	r0, r3
 3138 010c FFF7FEFF 		bl	UART_TFT_PutString
  68:./Nextion_PlotSetupData.h ****         // Ende der Eingabe markieren
ARM GAS  C:\Users\LOCALA~1\AppData\Local\Temp\ccsQji0c.s 			page 76


  69:./Nextion_PlotSetupData.h ****         Nextion_SendEndOfCommunication();
 3139              		.loc 13 69 0
 3140 0110 FFF7FEFF 		bl	Nextion_SendEndOfCommunication
  70:./Nextion_PlotSetupData.h ****     }
 3141              		.loc 13 70 0
 3142 0114 00BF     		nop
 3143 0116 2C37     		adds	r7, r7, #44
 3144              		.cfi_def_cfa_offset 12
 3145 0118 BD46     		mov	sp, r7
 3146              		.cfi_def_cfa_register 13
 3147              		@ sp needed
 3148 011a 90BD     		pop	{r4, r7, pc}
 3149              	.L187:
 3150 011c AFF30080 		.align	3
 3151              	.L186:
 3152 0120 00000000 		.word	0
 3153 0124 00FEAF40 		.word	1085275648
 3154 0128 00006940 		.word	1080623104
 3155 012c 84010000 		.word	.LC30
 3156 0130 90010000 		.word	.LC31
 3157 0134 9C010000 		.word	.LC32
 3158              		.cfi_endproc
 3159              	.LFE96:
 3160              		.size	NextionPlot_PointsToSetupAxes, .-NextionPlot_PointsToSetupAxes
 3161              		.global	g_Stepper_MaxFrequency
 3162              		.data
 3163 0003 00       		.align	2
 3164              		.type	g_Stepper_MaxFrequency, %object
 3165              		.size	g_Stepper_MaxFrequency, 4
 3166              	g_Stepper_MaxFrequency:
 3167 0004 BC020000 		.word	700
 3168              		.global	g_Stepper_SigmoidShift
 3169              		.align	2
 3170              		.type	g_Stepper_SigmoidShift, %object
 3171              		.size	g_Stepper_SigmoidShift, 4
 3172              	g_Stepper_SigmoidShift:
 3173 0008 9CFFFFFF 		.word	-100
 3174              		.global	g_Stepper_SigmoidRaise
 3175              		.align	2
 3176              		.type	g_Stepper_SigmoidRaise, %object
 3177              		.size	g_Stepper_SigmoidRaise, 4
 3178              	g_Stepper_SigmoidRaise:
 3179 000c 0A000000 		.word	10
 3180              		.global	__aeabi_i2d
 3181              		.global	__aeabi_dcmpeq
 3182              		.global	__aeabi_dcmplt
 3183              		.global	__aeabi_dsub
 3184              		.global	__aeabi_d2uiz
 3185              		.section	.text.MoveTo,"ax",%progbits
 3186              		.align	2
 3187              		.global	MoveTo
 3188              		.thumb
 3189              		.thumb_func
 3190              		.type	MoveTo, %function
 3191              	MoveTo:
 3192              	.LFB97:
 3193              		.file 14 "./StepMotor.h"
ARM GAS  C:\Users\LOCALA~1\AppData\Local\Temp\ccsQji0c.s 			page 77


   1:./StepMotor.h **** /* ========================================
   2:./StepMotor.h ****  *
   3:./StepMotor.h ****  * Copyright YOUR COMPANY, THE YEAR
   4:./StepMotor.h ****  * All Rights Reserved
   5:./StepMotor.h ****  * UNPUBLISHED, LICENSED SOFTWARE.
   6:./StepMotor.h ****  *
   7:./StepMotor.h ****  * CONFIDENTIAL AND PROPRIETARY INFORMATION
   8:./StepMotor.h ****  * WHICH IS THE PROPERTY OF your company.
   9:./StepMotor.h ****  *
  10:./StepMotor.h ****  * ========================================
  11:./StepMotor.h **** */
  12:./StepMotor.h **** 
  13:./StepMotor.h **** #ifndef STEPMOTOR_H
  14:./StepMotor.h ****     #define STEPMOTOR_H
  15:./StepMotor.h ****     
  16:./StepMotor.h ****     #include <project.h>
  17:./StepMotor.h ****     #include <math.h>
  18:./StepMotor.h ****     #include <GlobalVariables.h>
  19:./StepMotor.h ****     
  20:./StepMotor.h ****     int g_Stepper_MaxFrequency = 700;
  21:./StepMotor.h ****     int g_Stepper_SigmoidShift = -100;
  22:./StepMotor.h ****     int g_Stepper_SigmoidRaise = 10;
  23:./StepMotor.h ****     #define RIGHT 1
  24:./StepMotor.h ****     #define LEFT -1
  25:./StepMotor.h ****     #define Stepper_Diff_HomeSampling 400
  26:./StepMotor.h ****     #define Stepper_StepsPerStep 4
  27:./StepMotor.h ****     
  28:./StepMotor.h ****      void MoveTo (double steps, double dir)
  29:./StepMotor.h ****     {
 3194              		.loc 14 29 0
 3195              		.cfi_startproc
 3196              		@ args = 0, pretend = 0, frame = 64
 3197              		@ frame_needed = 1, uses_anonymous_args = 0
 3198 0000 2DE9B043 		push	{r4, r5, r7, r8, r9, lr}
 3199              		.cfi_def_cfa_offset 24
 3200              		.cfi_offset 4, -24
 3201              		.cfi_offset 5, -20
 3202              		.cfi_offset 7, -16
 3203              		.cfi_offset 8, -12
 3204              		.cfi_offset 9, -8
 3205              		.cfi_offset 14, -4
 3206 0004 90B0     		sub	sp, sp, #64
 3207              		.cfi_def_cfa_offset 88
 3208 0006 00AF     		add	r7, sp, #0
 3209              		.cfi_def_cfa_register 7
 3210 0008 C7E90201 		strd	r0, [r7, #8]
 3211 000c C7E90023 		strd	r2, [r7]
  30:./StepMotor.h ****     	// bergebene Steps mssen mit 2 Mulipliziert werden, da jeder 
  31:./StepMotor.h ****     	// Schritt 2 Flankenwechsel beeinhaltet
  32:./StepMotor.h ****     	steps = steps*2;
 3212              		.loc 14 32 0
 3213 0010 D7E90201 		ldrd	r0, [r7, #8]
 3214 0014 0246     		mov	r2, r0
 3215 0016 0B46     		mov	r3, r1
 3216 0018 FFF7FEFF 		bl	__aeabi_dadd
 3217 001c 0346     		mov	r3, r0
 3218 001e 0C46     		mov	r4, r1
ARM GAS  C:\Users\LOCALA~1\AppData\Local\Temp\ccsQji0c.s 			page 78


 3219 0020 C7E90234 		strd	r3, [r7, #8]
  33:./StepMotor.h ****     	
  34:./StepMotor.h ****         // Maximale Frequenz
  35:./StepMotor.h ****         double f_max;
  36:./StepMotor.h ****         // Relative Frequenz [0, 1]
  37:./StepMotor.h ****         double f_rel;
  38:./StepMotor.h ****         // Inkrement der Anzufahrenden Schritte
  39:./StepMotor.h ****         int i;
  40:./StepMotor.h ****         // gerundete Dauer des Stepper-Zustands
  41:./StepMotor.h ****         double t_StepperCLK;    
  42:./StepMotor.h ****         // Verschiebung des Sigmoids
  43:./StepMotor.h ****         double sig_shift;                   // hherere Wert -> hherere Frequenz zu Beginn
  44:./StepMotor.h ****         // Anstieg des Sigmoids
  45:./StepMotor.h ****         double sig_raise;                   // hherer Wert -> schnellerer Anstieg
  46:./StepMotor.h ****         
  47:./StepMotor.h ****         //
  48:./StepMotor.h ****         // Parameterset fr Motorkontrolle aus "MotorRamp.m"
  49:./StepMotor.h ****         //   
  50:./StepMotor.h ****         f_max = g_Stepper_MaxFrequency;
 3220              		.loc 14 50 0
 3221 0024 A04B     		ldr	r3, .L201+8
 3222 0026 1B68     		ldr	r3, [r3]
 3223 0028 1846     		mov	r0, r3
 3224 002a FFF7FEFF 		bl	__aeabi_i2d
 3225 002e 0346     		mov	r3, r0
 3226 0030 0C46     		mov	r4, r1
 3227 0032 C7E90C34 		strd	r3, [r7, #48]
  51:./StepMotor.h ****         sig_shift = g_Stepper_SigmoidShift;
 3228              		.loc 14 51 0
 3229 0036 9D4B     		ldr	r3, .L201+12
 3230 0038 1B68     		ldr	r3, [r3]
 3231 003a 1846     		mov	r0, r3
 3232 003c FFF7FEFF 		bl	__aeabi_i2d
 3233 0040 0346     		mov	r3, r0
 3234 0042 0C46     		mov	r4, r1
 3235 0044 C7E90A34 		strd	r3, [r7, #40]
  52:./StepMotor.h ****         sig_raise = g_Stepper_SigmoidRaise;
 3236              		.loc 14 52 0
 3237 0048 994B     		ldr	r3, .L201+16
 3238 004a 1B68     		ldr	r3, [r3]
 3239 004c 1846     		mov	r0, r3
 3240 004e FFF7FEFF 		bl	__aeabi_i2d
 3241 0052 0346     		mov	r3, r0
 3242 0054 0C46     		mov	r4, r1
 3243 0056 C7E90834 		strd	r3, [r7, #32]
  53:./StepMotor.h ****         
  54:./StepMotor.h ****         
  55:./StepMotor.h ****         // SLEEP -> Motor "aufwecken" -> Leistungsaufnahme
  56:./StepMotor.h ****         Pin_StepperSLEEP_Write(1);
 3244              		.loc 14 56 0
 3245 005a 0120     		movs	r0, #1
 3246 005c FFF7FEFF 		bl	Pin_StepperSLEEP_Write
  57:./StepMotor.h ****         
  58:./StepMotor.h ****         // Richtung setzen
  59:./StepMotor.h ****         //
  60:./StepMotor.h ****         // Rechtsdrehung
  61:./StepMotor.h ****         if (dir == 1)
ARM GAS  C:\Users\LOCALA~1\AppData\Local\Temp\ccsQji0c.s 			page 79


 3247              		.loc 14 61 0
 3248 0060 4FF00002 		mov	r2, #0
 3249 0064 934B     		ldr	r3, .L201+20
 3250 0066 D7E90001 		ldrd	r0, [r7]
 3251 006a FFF7FEFF 		bl	__aeabi_dcmpeq
 3252 006e 0346     		mov	r3, r0
 3253 0070 002B     		cmp	r3, #0
 3254 0072 03D0     		beq	.L199
  62:./StepMotor.h ****         {
  63:./StepMotor.h ****             Pin_StepperDIR_Write(0);
 3255              		.loc 14 63 0
 3256 0074 0020     		movs	r0, #0
 3257 0076 FFF7FEFF 		bl	Pin_StepperDIR_Write
 3258 007a 02E0     		b	.L191
 3259              	.L199:
  64:./StepMotor.h ****         }
  65:./StepMotor.h ****         // Linksdrehung
  66:./StepMotor.h ****         else
  67:./StepMotor.h ****         {
  68:./StepMotor.h ****             Pin_StepperDIR_Write(1);
 3260              		.loc 14 68 0
 3261 007c 0120     		movs	r0, #1
 3262 007e FFF7FEFF 		bl	Pin_StepperDIR_Write
 3263              	.L191:
  69:./StepMotor.h ****         }    
  70:./StepMotor.h ****         
  71:./StepMotor.h ****         // Fr jeden der Schritte
  72:./StepMotor.h ****         for (i = 0; i < steps; i = i + 1)
 3264              		.loc 14 72 0
 3265 0082 0023     		movs	r3, #0
 3266 0084 FB63     		str	r3, [r7, #60]
 3267 0086 FAE0     		b	.L192
 3268              	.L196:
  73:./StepMotor.h ****         {
  74:./StepMotor.h ****             // Frequenz fr Beschleunigungsteil
  75:./StepMotor.h ****             if (i < steps/2)
 3269              		.loc 14 75 0
 3270 0088 F86B     		ldr	r0, [r7, #60]
 3271 008a FFF7FEFF 		bl	__aeabi_i2d
 3272 008e 0446     		mov	r4, r0
 3273 0090 0D46     		mov	r5, r1
 3274 0092 4FF00002 		mov	r2, #0
 3275 0096 4FF08043 		mov	r3, #1073741824
 3276 009a D7E90201 		ldrd	r0, [r7, #8]
 3277 009e FFF7FEFF 		bl	__aeabi_ddiv
 3278 00a2 0246     		mov	r2, r0
 3279 00a4 0B46     		mov	r3, r1
 3280 00a6 2046     		mov	r0, r4
 3281 00a8 2946     		mov	r1, r5
 3282 00aa FFF7FEFF 		bl	__aeabi_dcmplt
 3283 00ae 0346     		mov	r3, r0
 3284 00b0 002B     		cmp	r3, #0
 3285 00b2 69D0     		beq	.L200
  76:./StepMotor.h ****             {       
  77:./StepMotor.h ****                 // Berechnung der Frequenz
  78:./StepMotor.h ****                 f_rel = 1.0/(1+exp(-1/(steps/sig_raise)*(i-steps/sig_shift))); 
 3286              		.loc 14 78 0
ARM GAS  C:\Users\LOCALA~1\AppData\Local\Temp\ccsQji0c.s 			page 80


 3287 00b4 D7E90823 		ldrd	r2, [r7, #32]
 3288 00b8 D7E90201 		ldrd	r0, [r7, #8]
 3289 00bc FFF7FEFF 		bl	__aeabi_ddiv
 3290 00c0 0346     		mov	r3, r0
 3291 00c2 0C46     		mov	r4, r1
 3292 00c4 1A46     		mov	r2, r3
 3293 00c6 2346     		mov	r3, r4
 3294 00c8 4FF00000 		mov	r0, #0
 3295 00cc 7A49     		ldr	r1, .L201+24
 3296 00ce FFF7FEFF 		bl	__aeabi_ddiv
 3297 00d2 0346     		mov	r3, r0
 3298 00d4 0C46     		mov	r4, r1
 3299 00d6 2546     		mov	r5, r4
 3300 00d8 1C46     		mov	r4, r3
 3301 00da F86B     		ldr	r0, [r7, #60]
 3302 00dc FFF7FEFF 		bl	__aeabi_i2d
 3303 00e0 8046     		mov	r8, r0
 3304 00e2 8946     		mov	r9, r1
 3305 00e4 D7E90A23 		ldrd	r2, [r7, #40]
 3306 00e8 D7E90201 		ldrd	r0, [r7, #8]
 3307 00ec FFF7FEFF 		bl	__aeabi_ddiv
 3308 00f0 0246     		mov	r2, r0
 3309 00f2 0B46     		mov	r3, r1
 3310 00f4 4046     		mov	r0, r8
 3311 00f6 4946     		mov	r1, r9
 3312 00f8 FFF7FEFF 		bl	__aeabi_dsub
 3313 00fc 0246     		mov	r2, r0
 3314 00fe 0B46     		mov	r3, r1
 3315 0100 2046     		mov	r0, r4
 3316 0102 2946     		mov	r1, r5
 3317 0104 FFF7FEFF 		bl	__aeabi_dmul
 3318 0108 0346     		mov	r3, r0
 3319 010a 0C46     		mov	r4, r1
 3320 010c 1846     		mov	r0, r3
 3321 010e 2146     		mov	r1, r4
 3322 0110 FFF7FEFF 		bl	exp
 3323 0114 4FF00002 		mov	r2, #0
 3324 0118 664B     		ldr	r3, .L201+20
 3325 011a FFF7FEFF 		bl	__aeabi_dadd
 3326 011e 0346     		mov	r3, r0
 3327 0120 0C46     		mov	r4, r1
 3328 0122 1A46     		mov	r2, r3
 3329 0124 2346     		mov	r3, r4
 3330 0126 4FF00000 		mov	r0, #0
 3331 012a 6249     		ldr	r1, .L201+20
 3332 012c FFF7FEFF 		bl	__aeabi_ddiv
 3333 0130 0346     		mov	r3, r0
 3334 0132 0C46     		mov	r4, r1
 3335 0134 C7E90634 		strd	r3, [r7, #24]
  79:./StepMotor.h ****                 // Momentane Ausgabe der LED invertieren
  80:./StepMotor.h ****                 Pin_StepperCLK_Write(!Pin_StepperCLK_Read());
 3336              		.loc 14 80 0
 3337 0138 FFF7FEFF 		bl	Pin_StepperCLK_Read
 3338 013c 0346     		mov	r3, r0
 3339 013e 002B     		cmp	r3, #0
 3340 0140 0CBF     		ite	eq
 3341 0142 0123     		moveq	r3, #1
ARM GAS  C:\Users\LOCALA~1\AppData\Local\Temp\ccsQji0c.s 			page 81


 3342 0144 0023     		movne	r3, #0
 3343 0146 DBB2     		uxtb	r3, r3
 3344 0148 1846     		mov	r0, r3
 3345 014a FFF7FEFF 		bl	Pin_StepperCLK_Write
  81:./StepMotor.h ****                 // Wartezeit in us berechnen
  82:./StepMotor.h ****                 t_StepperCLK = 1000000.0/(f_max*f_rel);   
 3346              		.loc 14 82 0
 3347 014e D7E90623 		ldrd	r2, [r7, #24]
 3348 0152 D7E90C01 		ldrd	r0, [r7, #48]
 3349 0156 FFF7FEFF 		bl	__aeabi_dmul
 3350 015a 0346     		mov	r3, r0
 3351 015c 0C46     		mov	r4, r1
 3352 015e 1A46     		mov	r2, r3
 3353 0160 2346     		mov	r3, r4
 3354 0162 4FA1     		adr	r1, .L201
 3355 0164 D1E90001 		ldrd	r0, [r1]
 3356 0168 FFF7FEFF 		bl	__aeabi_ddiv
 3357 016c 0346     		mov	r3, r0
 3358 016e 0C46     		mov	r4, r1
 3359 0170 C7E90434 		strd	r3, [r7, #16]
  83:./StepMotor.h ****                 CyDelayUs((uint16)(t_StepperCLK));           
 3360              		.loc 14 83 0
 3361 0174 D7E90401 		ldrd	r0, [r7, #16]
 3362 0178 FFF7FEFF 		bl	__aeabi_d2uiz
 3363 017c 0346     		mov	r3, r0
 3364 017e 9BB2     		uxth	r3, r3
 3365 0180 1846     		mov	r0, r3
 3366 0182 FFF7FEFF 		bl	CyDelayUs
 3367 0186 77E0     		b	.L195
 3368              	.L200:
  84:./StepMotor.h **** 
  85:./StepMotor.h ****             }        
  86:./StepMotor.h ****             // Frequenz fr Abbremsungsgungsteil
  87:./StepMotor.h ****             else 
  88:./StepMotor.h ****             {
  89:./StepMotor.h ****                 // Berechnung der Frequenz
  90:./StepMotor.h ****                 f_rel = (1.0 - 1/(1+exp(-1/(steps/sig_raise)*(i-steps+steps/sig_shift)))); 
 3369              		.loc 14 90 0
 3370 0188 D7E90823 		ldrd	r2, [r7, #32]
 3371 018c D7E90201 		ldrd	r0, [r7, #8]
 3372 0190 FFF7FEFF 		bl	__aeabi_ddiv
 3373 0194 0346     		mov	r3, r0
 3374 0196 0C46     		mov	r4, r1
 3375 0198 1A46     		mov	r2, r3
 3376 019a 2346     		mov	r3, r4
 3377 019c 4FF00000 		mov	r0, #0
 3378 01a0 4549     		ldr	r1, .L201+24
 3379 01a2 FFF7FEFF 		bl	__aeabi_ddiv
 3380 01a6 0346     		mov	r3, r0
 3381 01a8 0C46     		mov	r4, r1
 3382 01aa 2546     		mov	r5, r4
 3383 01ac 1C46     		mov	r4, r3
 3384 01ae F86B     		ldr	r0, [r7, #60]
 3385 01b0 FFF7FEFF 		bl	__aeabi_i2d
 3386 01b4 D7E90223 		ldrd	r2, [r7, #8]
 3387 01b8 FFF7FEFF 		bl	__aeabi_dsub
 3388 01bc 0246     		mov	r2, r0
ARM GAS  C:\Users\LOCALA~1\AppData\Local\Temp\ccsQji0c.s 			page 82


 3389 01be 0B46     		mov	r3, r1
 3390 01c0 9046     		mov	r8, r2
 3391 01c2 9946     		mov	r9, r3
 3392 01c4 D7E90A23 		ldrd	r2, [r7, #40]
 3393 01c8 D7E90201 		ldrd	r0, [r7, #8]
 3394 01cc FFF7FEFF 		bl	__aeabi_ddiv
 3395 01d0 0246     		mov	r2, r0
 3396 01d2 0B46     		mov	r3, r1
 3397 01d4 4046     		mov	r0, r8
 3398 01d6 4946     		mov	r1, r9
 3399 01d8 FFF7FEFF 		bl	__aeabi_dadd
 3400 01dc 0246     		mov	r2, r0
 3401 01de 0B46     		mov	r3, r1
 3402 01e0 2046     		mov	r0, r4
 3403 01e2 2946     		mov	r1, r5
 3404 01e4 FFF7FEFF 		bl	__aeabi_dmul
 3405 01e8 0346     		mov	r3, r0
 3406 01ea 0C46     		mov	r4, r1
 3407 01ec 1846     		mov	r0, r3
 3408 01ee 2146     		mov	r1, r4
 3409 01f0 FFF7FEFF 		bl	exp
 3410 01f4 4FF00002 		mov	r2, #0
 3411 01f8 2E4B     		ldr	r3, .L201+20
 3412 01fa FFF7FEFF 		bl	__aeabi_dadd
 3413 01fe 0346     		mov	r3, r0
 3414 0200 0C46     		mov	r4, r1
 3415 0202 1A46     		mov	r2, r3
 3416 0204 2346     		mov	r3, r4
 3417 0206 4FF00000 		mov	r0, #0
 3418 020a 2A49     		ldr	r1, .L201+20
 3419 020c FFF7FEFF 		bl	__aeabi_ddiv
 3420 0210 0346     		mov	r3, r0
 3421 0212 0C46     		mov	r4, r1
 3422 0214 1A46     		mov	r2, r3
 3423 0216 2346     		mov	r3, r4
 3424 0218 4FF00000 		mov	r0, #0
 3425 021c 2549     		ldr	r1, .L201+20
 3426 021e FFF7FEFF 		bl	__aeabi_dsub
 3427 0222 0346     		mov	r3, r0
 3428 0224 0C46     		mov	r4, r1
 3429 0226 C7E90634 		strd	r3, [r7, #24]
  91:./StepMotor.h ****                 // Momentane Ausgabe der LED invertieren
  92:./StepMotor.h ****                 Pin_StepperCLK_Write(!Pin_StepperCLK_Read());
 3430              		.loc 14 92 0
 3431 022a FFF7FEFF 		bl	Pin_StepperCLK_Read
 3432 022e 0346     		mov	r3, r0
 3433 0230 002B     		cmp	r3, #0
 3434 0232 0CBF     		ite	eq
 3435 0234 0123     		moveq	r3, #1
 3436 0236 0023     		movne	r3, #0
 3437 0238 DBB2     		uxtb	r3, r3
 3438 023a 1846     		mov	r0, r3
 3439 023c FFF7FEFF 		bl	Pin_StepperCLK_Write
  93:./StepMotor.h **** 
  94:./StepMotor.h ****                 // Wartezeit in us berechnen
  95:./StepMotor.h ****                 t_StepperCLK = 1000000.0/(f_max*f_rel);            
 3440              		.loc 14 95 0
ARM GAS  C:\Users\LOCALA~1\AppData\Local\Temp\ccsQji0c.s 			page 83


 3441 0240 D7E90623 		ldrd	r2, [r7, #24]
 3442 0244 D7E90C01 		ldrd	r0, [r7, #48]
 3443 0248 FFF7FEFF 		bl	__aeabi_dmul
 3444 024c 0346     		mov	r3, r0
 3445 024e 0C46     		mov	r4, r1
 3446 0250 1A46     		mov	r2, r3
 3447 0252 2346     		mov	r3, r4
 3448 0254 12A1     		adr	r1, .L201
 3449 0256 D1E90001 		ldrd	r0, [r1]
 3450 025a FFF7FEFF 		bl	__aeabi_ddiv
 3451 025e 0346     		mov	r3, r0
 3452 0260 0C46     		mov	r4, r1
 3453 0262 C7E90434 		strd	r3, [r7, #16]
  96:./StepMotor.h ****                 CyDelayUs((uint16)(t_StepperCLK));           
 3454              		.loc 14 96 0
 3455 0266 D7E90401 		ldrd	r0, [r7, #16]
 3456 026a FFF7FEFF 		bl	__aeabi_d2uiz
 3457 026e 0346     		mov	r3, r0
 3458 0270 9BB2     		uxth	r3, r3
 3459 0272 1846     		mov	r0, r3
 3460 0274 FFF7FEFF 		bl	CyDelayUs
 3461              	.L195:
  72:./StepMotor.h ****         {
 3462              		.loc 14 72 0 discriminator 2
 3463 0278 FB6B     		ldr	r3, [r7, #60]
 3464 027a 0133     		adds	r3, r3, #1
 3465 027c FB63     		str	r3, [r7, #60]
 3466              	.L192:
  72:./StepMotor.h ****         {
 3467              		.loc 14 72 0 is_stmt 0 discriminator 1
 3468 027e F86B     		ldr	r0, [r7, #60]
 3469 0280 FFF7FEFF 		bl	__aeabi_i2d
 3470 0284 D7E90223 		ldrd	r2, [r7, #8]
 3471 0288 FFF7FEFF 		bl	__aeabi_dcmplt
 3472 028c 0346     		mov	r3, r0
 3473 028e 002B     		cmp	r3, #0
 3474 0290 7FF4FAAE 		bne	.L196
  97:./StepMotor.h **** 
  98:./StepMotor.h ****             }  
  99:./StepMotor.h ****         }
 100:./StepMotor.h ****     }
 3475              		.loc 14 100 0 is_stmt 1
 3476 0294 00BF     		nop
 3477 0296 4037     		adds	r7, r7, #64
 3478              		.cfi_def_cfa_offset 24
 3479 0298 BD46     		mov	sp, r7
 3480              		.cfi_def_cfa_register 13
 3481              		@ sp needed
 3482 029a BDE8B083 		pop	{r4, r5, r7, r8, r9, pc}
 3483              	.L202:
 3484 029e 00BF     		.align	3
 3485              	.L201:
 3486 02a0 00000000 		.word	0
 3487 02a4 80842E41 		.word	1093567616
 3488 02a8 00000000 		.word	g_Stepper_MaxFrequency
 3489 02ac 00000000 		.word	g_Stepper_SigmoidShift
 3490 02b0 00000000 		.word	g_Stepper_SigmoidRaise
ARM GAS  C:\Users\LOCALA~1\AppData\Local\Temp\ccsQji0c.s 			page 84


 3491 02b4 0000F03F 		.word	1072693248
 3492 02b8 0000F0BF 		.word	-1074790400
 3493              		.cfi_endproc
 3494              	.LFE97:
 3495              		.size	MoveTo, .-MoveTo
 3496              		.section	.text.MoveToWithConstSpeed,"ax",%progbits
 3497              		.align	2
 3498              		.global	MoveToWithConstSpeed
 3499              		.thumb
 3500              		.thumb_func
 3501              		.type	MoveToWithConstSpeed, %function
 3502              	MoveToWithConstSpeed:
 3503              	.LFB98:
 101:./StepMotor.h ****     
 102:./StepMotor.h ****     void MoveToWithConstSpeed (double steps, double dir)
 103:./StepMotor.h ****     {
 3504              		.loc 14 103 0
 3505              		.cfi_startproc
 3506              		@ args = 0, pretend = 0, frame = 32
 3507              		@ frame_needed = 1, uses_anonymous_args = 0
 3508 0000 90B5     		push	{r4, r7, lr}
 3509              		.cfi_def_cfa_offset 12
 3510              		.cfi_offset 4, -12
 3511              		.cfi_offset 7, -8
 3512              		.cfi_offset 14, -4
 3513 0002 89B0     		sub	sp, sp, #36
 3514              		.cfi_def_cfa_offset 48
 3515 0004 00AF     		add	r7, sp, #0
 3516              		.cfi_def_cfa_register 7
 3517 0006 C7E90201 		strd	r0, [r7, #8]
 3518 000a C7E90023 		strd	r2, [r7]
 104:./StepMotor.h ****     	// bergebene Steps mssen mit 2 Mulipliziert werden, da jeder 
 105:./StepMotor.h ****     	// Schritt 2 Flankenwechsel beeinhaltet
 106:./StepMotor.h ****     	steps = steps*2;
 3519              		.loc 14 106 0
 3520 000e D7E90201 		ldrd	r0, [r7, #8]
 3521 0012 0246     		mov	r2, r0
 3522 0014 0B46     		mov	r3, r1
 3523 0016 FFF7FEFF 		bl	__aeabi_dadd
 3524 001a 0346     		mov	r3, r0
 3525 001c 0C46     		mov	r4, r1
 3526 001e C7E90234 		strd	r3, [r7, #8]
 107:./StepMotor.h ****     	
 108:./StepMotor.h ****         // Inkrement der Anzufahrenden Schritte
 109:./StepMotor.h ****         int i;
 110:./StepMotor.h ****         // gerundete Dauer des Stepper-Zustands
 111:./StepMotor.h ****         double t_StepperCLK;       
 112:./StepMotor.h ****         
 113:./StepMotor.h ****         // SLEEP -> Motor "aufwecken" -> Leistungsaufnahme
 114:./StepMotor.h ****         Pin_StepperSLEEP_Write(1);
 3527              		.loc 14 114 0
 3528 0022 0120     		movs	r0, #1
 3529 0024 FFF7FEFF 		bl	Pin_StepperSLEEP_Write
 115:./StepMotor.h ****         
 116:./StepMotor.h ****         // Richtung setzen
 117:./StepMotor.h ****         //
 118:./StepMotor.h ****         // Rechtsdrehung
ARM GAS  C:\Users\LOCALA~1\AppData\Local\Temp\ccsQji0c.s 			page 85


 119:./StepMotor.h ****         if (dir == 1)
 3530              		.loc 14 119 0
 3531 0028 4FF00002 		mov	r2, #0
 3532 002c 204B     		ldr	r3, .L211+8
 3533 002e D7E90001 		ldrd	r0, [r7]
 3534 0032 FFF7FEFF 		bl	__aeabi_dcmpeq
 3535 0036 0346     		mov	r3, r0
 3536 0038 002B     		cmp	r3, #0
 3537 003a 03D0     		beq	.L210
 120:./StepMotor.h ****         {
 121:./StepMotor.h ****             Pin_StepperDIR_Write(0);
 3538              		.loc 14 121 0
 3539 003c 0020     		movs	r0, #0
 3540 003e FFF7FEFF 		bl	Pin_StepperDIR_Write
 3541 0042 02E0     		b	.L206
 3542              	.L210:
 122:./StepMotor.h ****         }
 123:./StepMotor.h ****         // Linksdrehung
 124:./StepMotor.h ****         else
 125:./StepMotor.h ****         {
 126:./StepMotor.h ****             Pin_StepperDIR_Write(1);
 3543              		.loc 14 126 0
 3544 0044 0120     		movs	r0, #1
 3545 0046 FFF7FEFF 		bl	Pin_StepperDIR_Write
 3546              	.L206:
 127:./StepMotor.h ****         }    
 128:./StepMotor.h ****         
 129:./StepMotor.h ****         // Fr jeden der Schritte
 130:./StepMotor.h ****         for (i = 0; i < steps; i = i + 1)
 3547              		.loc 14 130 0
 3548 004a 0023     		movs	r3, #0
 3549 004c FB61     		str	r3, [r7, #28]
 3550 004e 1BE0     		b	.L207
 3551              	.L208:
 131:./StepMotor.h ****         {
 132:./StepMotor.h ****             // Momentane Ausgabe der LED invertieren
 133:./StepMotor.h ****             Pin_StepperCLK_Write(!Pin_StepperCLK_Read());
 3552              		.loc 14 133 0 discriminator 3
 3553 0050 FFF7FEFF 		bl	Pin_StepperCLK_Read
 3554 0054 0346     		mov	r3, r0
 3555 0056 002B     		cmp	r3, #0
 3556 0058 0CBF     		ite	eq
 3557 005a 0123     		moveq	r3, #1
 3558 005c 0023     		movne	r3, #0
 3559 005e DBB2     		uxtb	r3, r3
 3560 0060 1846     		mov	r0, r3
 3561 0062 FFF7FEFF 		bl	Pin_StepperCLK_Write
 134:./StepMotor.h ****             t_StepperCLK = 27500; // [mus]
 3562              		.loc 14 134 0 discriminator 3
 3563 0066 10A4     		adr	r4, .L211
 3564 0068 D4E90034 		ldrd	r3, [r4]
 3565 006c C7E90434 		strd	r3, [r7, #16]
 135:./StepMotor.h ****             CyDelayUs((uint16)(t_StepperCLK));     
 3566              		.loc 14 135 0 discriminator 3
 3567 0070 D7E90401 		ldrd	r0, [r7, #16]
 3568 0074 FFF7FEFF 		bl	__aeabi_d2uiz
 3569 0078 0346     		mov	r3, r0
ARM GAS  C:\Users\LOCALA~1\AppData\Local\Temp\ccsQji0c.s 			page 86


 3570 007a 9BB2     		uxth	r3, r3
 3571 007c 1846     		mov	r0, r3
 3572 007e FFF7FEFF 		bl	CyDelayUs
 130:./StepMotor.h ****         {
 3573              		.loc 14 130 0 discriminator 3
 3574 0082 FB69     		ldr	r3, [r7, #28]
 3575 0084 0133     		adds	r3, r3, #1
 3576 0086 FB61     		str	r3, [r7, #28]
 3577              	.L207:
 130:./StepMotor.h ****         {
 3578              		.loc 14 130 0 is_stmt 0 discriminator 1
 3579 0088 F869     		ldr	r0, [r7, #28]
 3580 008a FFF7FEFF 		bl	__aeabi_i2d
 3581 008e D7E90223 		ldrd	r2, [r7, #8]
 3582 0092 FFF7FEFF 		bl	__aeabi_dcmplt
 3583 0096 0346     		mov	r3, r0
 3584 0098 002B     		cmp	r3, #0
 3585 009a D9D1     		bne	.L208
 136:./StepMotor.h ****         }
 137:./StepMotor.h ****     }
 3586              		.loc 14 137 0 is_stmt 1
 3587 009c 00BF     		nop
 3588 009e 2437     		adds	r7, r7, #36
 3589              		.cfi_def_cfa_offset 12
 3590 00a0 BD46     		mov	sp, r7
 3591              		.cfi_def_cfa_register 13
 3592              		@ sp needed
 3593 00a2 90BD     		pop	{r4, r7, pc}
 3594              	.L212:
 3595 00a4 AFF30080 		.align	3
 3596              	.L211:
 3597 00a8 00000000 		.word	0
 3598 00ac 00DBDA40 		.word	1088084736
 3599 00b0 0000F03F 		.word	1072693248
 3600              		.cfi_endproc
 3601              	.LFE98:
 3602              		.size	MoveToWithConstSpeed, .-MoveToWithConstSpeed
 3603              		.section	.text.MoveOneStepCW,"ax",%progbits
 3604              		.align	2
 3605              		.global	MoveOneStepCW
 3606              		.thumb
 3607              		.thumb_func
 3608              		.type	MoveOneStepCW, %function
 3609              	MoveOneStepCW:
 3610              	.LFB99:
 138:./StepMotor.h ****     
 139:./StepMotor.h ****     void MoveOneStepCW()
 140:./StepMotor.h ****     {
 3611              		.loc 14 140 0
 3612              		.cfi_startproc
 3613              		@ args = 0, pretend = 0, frame = 0
 3614              		@ frame_needed = 1, uses_anonymous_args = 0
 3615 0000 80B5     		push	{r7, lr}
 3616              		.cfi_def_cfa_offset 8
 3617              		.cfi_offset 7, -8
 3618              		.cfi_offset 14, -4
 3619 0002 00AF     		add	r7, sp, #0
ARM GAS  C:\Users\LOCALA~1\AppData\Local\Temp\ccsQji0c.s 			page 87


 3620              		.cfi_def_cfa_register 7
 141:./StepMotor.h ****         MoveToWithConstSpeed(1, RIGHT);
 3621              		.loc 14 141 0
 3622 0004 4FF00002 		mov	r2, #0
 3623 0008 034B     		ldr	r3, .L214
 3624 000a 4FF00000 		mov	r0, #0
 3625 000e 0249     		ldr	r1, .L214
 3626 0010 FFF7FEFF 		bl	MoveToWithConstSpeed
 142:./StepMotor.h ****     }
 3627              		.loc 14 142 0
 3628 0014 00BF     		nop
 3629 0016 80BD     		pop	{r7, pc}
 3630              	.L215:
 3631              		.align	2
 3632              	.L214:
 3633 0018 0000F03F 		.word	1072693248
 3634              		.cfi_endproc
 3635              	.LFE99:
 3636              		.size	MoveOneStepCW, .-MoveOneStepCW
 3637              		.section	.text.MoveOneStepCCW,"ax",%progbits
 3638              		.align	2
 3639              		.global	MoveOneStepCCW
 3640              		.thumb
 3641              		.thumb_func
 3642              		.type	MoveOneStepCCW, %function
 3643              	MoveOneStepCCW:
 3644              	.LFB100:
 143:./StepMotor.h ****     
 144:./StepMotor.h ****     void MoveOneStepCCW()
 145:./StepMotor.h ****     {
 3645              		.loc 14 145 0
 3646              		.cfi_startproc
 3647              		@ args = 0, pretend = 0, frame = 0
 3648              		@ frame_needed = 1, uses_anonymous_args = 0
 3649 0000 80B5     		push	{r7, lr}
 3650              		.cfi_def_cfa_offset 8
 3651              		.cfi_offset 7, -8
 3652              		.cfi_offset 14, -4
 3653 0002 00AF     		add	r7, sp, #0
 3654              		.cfi_def_cfa_register 7
 146:./StepMotor.h ****         MoveToWithConstSpeed(1, LEFT);
 3655              		.loc 14 146 0
 3656 0004 4FF00002 		mov	r2, #0
 3657 0008 034B     		ldr	r3, .L217
 3658 000a 4FF00000 		mov	r0, #0
 3659 000e 0349     		ldr	r1, .L217+4
 3660 0010 FFF7FEFF 		bl	MoveToWithConstSpeed
 147:./StepMotor.h ****     }
 3661              		.loc 14 147 0
 3662 0014 00BF     		nop
 3663 0016 80BD     		pop	{r7, pc}
 3664              	.L218:
 3665              		.align	2
 3666              	.L217:
 3667 0018 0000F0BF 		.word	-1074790400
 3668 001c 0000F03F 		.word	1072693248
 3669              		.cfi_endproc
ARM GAS  C:\Users\LOCALA~1\AppData\Local\Temp\ccsQji0c.s 			page 88


 3670              	.LFE100:
 3671              		.size	MoveOneStepCCW, .-MoveOneStepCCW
 3672              		.section	.text.Move10DegreeCW,"ax",%progbits
 3673              		.align	2
 3674              		.global	Move10DegreeCW
 3675              		.thumb
 3676              		.thumb_func
 3677              		.type	Move10DegreeCW, %function
 3678              	Move10DegreeCW:
 3679              	.LFB101:
 148:./StepMotor.h ****     
 149:./StepMotor.h ****     void Move10DegreeCW()
 150:./StepMotor.h ****     {
 3680              		.loc 14 150 0
 3681              		.cfi_startproc
 3682              		@ args = 0, pretend = 0, frame = 8
 3683              		@ frame_needed = 1, uses_anonymous_args = 0
 3684 0000 80B5     		push	{r7, lr}
 3685              		.cfi_def_cfa_offset 8
 3686              		.cfi_offset 7, -8
 3687              		.cfi_offset 14, -4
 3688 0002 82B0     		sub	sp, sp, #8
 3689              		.cfi_def_cfa_offset 16
 3690 0004 00AF     		add	r7, sp, #0
 3691              		.cfi_def_cfa_register 7
 151:./StepMotor.h ****         int StepsFor10Degree = Stepper_Diff_HomeSampling/90 * 10;
 3692              		.loc 14 151 0
 3693 0006 2823     		movs	r3, #40
 3694 0008 7B60     		str	r3, [r7, #4]
 152:./StepMotor.h ****         MoveToWithConstSpeed(StepsFor10Degree, RIGHT);
 3695              		.loc 14 152 0
 3696 000a 7868     		ldr	r0, [r7, #4]
 3697 000c FFF7FEFF 		bl	__aeabi_i2d
 3698 0010 4FF00002 		mov	r2, #0
 3699 0014 034B     		ldr	r3, .L220
 3700 0016 FFF7FEFF 		bl	MoveToWithConstSpeed
 153:./StepMotor.h ****     }
 3701              		.loc 14 153 0
 3702 001a 00BF     		nop
 3703 001c 0837     		adds	r7, r7, #8
 3704              		.cfi_def_cfa_offset 8
 3705 001e BD46     		mov	sp, r7
 3706              		.cfi_def_cfa_register 13
 3707              		@ sp needed
 3708 0020 80BD     		pop	{r7, pc}
 3709              	.L221:
 3710 0022 00BF     		.align	2
 3711              	.L220:
 3712 0024 0000F03F 		.word	1072693248
 3713              		.cfi_endproc
 3714              	.LFE101:
 3715              		.size	Move10DegreeCW, .-Move10DegreeCW
 3716              		.section	.text.Move10DegreeCCW,"ax",%progbits
 3717              		.align	2
 3718              		.global	Move10DegreeCCW
 3719              		.thumb
 3720              		.thumb_func
ARM GAS  C:\Users\LOCALA~1\AppData\Local\Temp\ccsQji0c.s 			page 89


 3721              		.type	Move10DegreeCCW, %function
 3722              	Move10DegreeCCW:
 3723              	.LFB102:
 154:./StepMotor.h ****     
 155:./StepMotor.h ****     void Move10DegreeCCW()
 156:./StepMotor.h ****     {
 3724              		.loc 14 156 0
 3725              		.cfi_startproc
 3726              		@ args = 0, pretend = 0, frame = 8
 3727              		@ frame_needed = 1, uses_anonymous_args = 0
 3728 0000 80B5     		push	{r7, lr}
 3729              		.cfi_def_cfa_offset 8
 3730              		.cfi_offset 7, -8
 3731              		.cfi_offset 14, -4
 3732 0002 82B0     		sub	sp, sp, #8
 3733              		.cfi_def_cfa_offset 16
 3734 0004 00AF     		add	r7, sp, #0
 3735              		.cfi_def_cfa_register 7
 157:./StepMotor.h ****         int StepsFor10Degree = Stepper_Diff_HomeSampling/90 * 10;
 3736              		.loc 14 157 0
 3737 0006 2823     		movs	r3, #40
 3738 0008 7B60     		str	r3, [r7, #4]
 158:./StepMotor.h ****         MoveToWithConstSpeed(StepsFor10Degree, LEFT);  
 3739              		.loc 14 158 0
 3740 000a 7868     		ldr	r0, [r7, #4]
 3741 000c FFF7FEFF 		bl	__aeabi_i2d
 3742 0010 4FF00002 		mov	r2, #0
 3743 0014 034B     		ldr	r3, .L223
 3744 0016 FFF7FEFF 		bl	MoveToWithConstSpeed
 159:./StepMotor.h ****     }
 3745              		.loc 14 159 0
 3746 001a 00BF     		nop
 3747 001c 0837     		adds	r7, r7, #8
 3748              		.cfi_def_cfa_offset 8
 3749 001e BD46     		mov	sp, r7
 3750              		.cfi_def_cfa_register 13
 3751              		@ sp needed
 3752 0020 80BD     		pop	{r7, pc}
 3753              	.L224:
 3754 0022 00BF     		.align	2
 3755              	.L223:
 3756 0024 0000F0BF 		.word	-1074790400
 3757              		.cfi_endproc
 3758              	.LFE102:
 3759              		.size	Move10DegreeCCW, .-Move10DegreeCCW
 3760              		.section	.text.Move90DegreeCW,"ax",%progbits
 3761              		.align	2
 3762              		.global	Move90DegreeCW
 3763              		.thumb
 3764              		.thumb_func
 3765              		.type	Move90DegreeCW, %function
 3766              	Move90DegreeCW:
 3767              	.LFB103:
 160:./StepMotor.h ****     
 161:./StepMotor.h ****     void Move90DegreeCW()
 162:./StepMotor.h ****     { 
 3768              		.loc 14 162 0
ARM GAS  C:\Users\LOCALA~1\AppData\Local\Temp\ccsQji0c.s 			page 90


 3769              		.cfi_startproc
 3770              		@ args = 0, pretend = 0, frame = 0
 3771              		@ frame_needed = 1, uses_anonymous_args = 0
 3772 0000 80B5     		push	{r7, lr}
 3773              		.cfi_def_cfa_offset 8
 3774              		.cfi_offset 7, -8
 3775              		.cfi_offset 14, -4
 3776 0002 00AF     		add	r7, sp, #0
 3777              		.cfi_def_cfa_register 7
 163:./StepMotor.h ****         MoveTo(Stepper_Diff_HomeSampling, RIGHT);
 3778              		.loc 14 163 0
 3779 0004 4FF00002 		mov	r2, #0
 3780 0008 034B     		ldr	r3, .L226
 3781 000a 4FF00000 		mov	r0, #0
 3782 000e 0349     		ldr	r1, .L226+4
 3783 0010 FFF7FEFF 		bl	MoveTo
 164:./StepMotor.h ****     }
 3784              		.loc 14 164 0
 3785 0014 00BF     		nop
 3786 0016 80BD     		pop	{r7, pc}
 3787              	.L227:
 3788              		.align	2
 3789              	.L226:
 3790 0018 0000F03F 		.word	1072693248
 3791 001c 00007940 		.word	1081671680
 3792              		.cfi_endproc
 3793              	.LFE103:
 3794              		.size	Move90DegreeCW, .-Move90DegreeCW
 3795              		.section	.text.Move90DegreeCCW,"ax",%progbits
 3796              		.align	2
 3797              		.global	Move90DegreeCCW
 3798              		.thumb
 3799              		.thumb_func
 3800              		.type	Move90DegreeCCW, %function
 3801              	Move90DegreeCCW:
 3802              	.LFB104:
 165:./StepMotor.h ****     
 166:./StepMotor.h ****     void Move90DegreeCCW()
 167:./StepMotor.h ****     {
 3803              		.loc 14 167 0
 3804              		.cfi_startproc
 3805              		@ args = 0, pretend = 0, frame = 0
 3806              		@ frame_needed = 1, uses_anonymous_args = 0
 3807 0000 80B5     		push	{r7, lr}
 3808              		.cfi_def_cfa_offset 8
 3809              		.cfi_offset 7, -8
 3810              		.cfi_offset 14, -4
 3811 0002 00AF     		add	r7, sp, #0
 3812              		.cfi_def_cfa_register 7
 168:./StepMotor.h ****         MoveTo(Stepper_Diff_HomeSampling, LEFT);
 3813              		.loc 14 168 0
 3814 0004 4FF00002 		mov	r2, #0
 3815 0008 034B     		ldr	r3, .L229
 3816 000a 4FF00000 		mov	r0, #0
 3817 000e 0349     		ldr	r1, .L229+4
 3818 0010 FFF7FEFF 		bl	MoveTo
 169:./StepMotor.h ****     }
ARM GAS  C:\Users\LOCALA~1\AppData\Local\Temp\ccsQji0c.s 			page 91


 3819              		.loc 14 169 0
 3820 0014 00BF     		nop
 3821 0016 80BD     		pop	{r7, pc}
 3822              	.L230:
 3823              		.align	2
 3824              	.L229:
 3825 0018 0000F0BF 		.word	-1074790400
 3826 001c 00007940 		.word	1081671680
 3827              		.cfi_endproc
 3828              	.LFE104:
 3829              		.size	Move90DegreeCCW, .-Move90DegreeCCW
 3830              		.section	.text.Init_StepMotor,"ax",%progbits
 3831              		.align	2
 3832              		.global	Init_StepMotor
 3833              		.thumb
 3834              		.thumb_func
 3835              		.type	Init_StepMotor, %function
 3836              	Init_StepMotor:
 3837              	.LFB105:
 170:./StepMotor.h ****     
 171:./StepMotor.h ****     void Init_StepMotor()
 172:./StepMotor.h ****     {
 3838              		.loc 14 172 0
 3839              		.cfi_startproc
 3840              		@ args = 0, pretend = 0, frame = 0
 3841              		@ frame_needed = 1, uses_anonymous_args = 0
 3842 0000 80B5     		push	{r7, lr}
 3843              		.cfi_def_cfa_offset 8
 3844              		.cfi_offset 7, -8
 3845              		.cfi_offset 14, -4
 3846 0002 00AF     		add	r7, sp, #0
 3847              		.cfi_def_cfa_register 7
 173:./StepMotor.h ****         // Betriebsart des Motors festlegen
 174:./StepMotor.h ****         Pin_StepperMS1_Write(0); 	                // => 16tel-Schritt
 3848              		.loc 14 174 0
 3849 0004 0020     		movs	r0, #0
 3850 0006 FFF7FEFF 		bl	Pin_StepperMS1_Write
 175:./StepMotor.h ****         Pin_StepperMS2_Write(0);    
 3851              		.loc 14 175 0
 3852 000a 0020     		movs	r0, #0
 3853 000c FFF7FEFF 		bl	Pin_StepperMS2_Write
 176:./StepMotor.h ****         Pin_StepperMS3_Write(1);   
 3854              		.loc 14 176 0
 3855 0010 0120     		movs	r0, #1
 3856 0012 FFF7FEFF 		bl	Pin_StepperMS3_Write
 177:./StepMotor.h ****         /*
 178:./StepMotor.h ****         MODE0 	MODE1 	MODE2 	Microstepping
 179:./StepMotor.h ****         0 	    0 	    0 	    Vollschritt
 180:./StepMotor.h ****         1 	    0 	    0 	    Halbschritt
 181:./StepMotor.h ****         0 	    1 	    1 	    1/4 Schritt
 182:./StepMotor.h ****         1 	    1 	    0 	    1/8 Schritt
 183:./StepMotor.h ****         0 	    0 	    1 	    1/16 Schritt        x => momentan ausgewhlt 
 184:./StepMotor.h ****         1 	    0 	    1 	    1/32 Schritt
 185:./StepMotor.h ****         0 	    1 	    1 	    1/32 Schritt
 186:./StepMotor.h ****         1 	    1 	    1 	    1/32 Schritt        
 187:./StepMotor.h ****         */	
 188:./StepMotor.h ****         
ARM GAS  C:\Users\LOCALA~1\AppData\Local\Temp\ccsQji0c.s 			page 92


 189:./StepMotor.h ****         // ENABLE -> Enable Stepper-Motor an
 190:./StepMotor.h ****         Pin_StepperEN_Write(0); 
 3857              		.loc 14 190 0
 3858 0016 0020     		movs	r0, #0
 3859 0018 FFF7FEFF 		bl	Pin_StepperEN_Write
 191:./StepMotor.h ****         // SLEEP -> Motor in Schlafzustand setzen -> keine Leistungsaufnahme
 192:./StepMotor.h ****         Pin_StepperSLEEP_Write(0);
 3860              		.loc 14 192 0
 3861 001c 0020     		movs	r0, #0
 3862 001e FFF7FEFF 		bl	Pin_StepperSLEEP_Write
 193:./StepMotor.h ****         // SLEEP -> Motor "aufwecken" -> Leistungsaufnahme
 194:./StepMotor.h ****         Pin_StepperSLEEP_Write(1);
 3863              		.loc 14 194 0
 3864 0022 0120     		movs	r0, #1
 3865 0024 FFF7FEFF 		bl	Pin_StepperSLEEP_Write
 195:./StepMotor.h ****         // RESET -> nicht(!) resetten
 196:./StepMotor.h ****         Pin_StepperRES_Write(1);
 3866              		.loc 14 196 0
 3867 0028 0120     		movs	r0, #1
 3868 002a FFF7FEFF 		bl	Pin_StepperRES_Write
 197:./StepMotor.h ****     }
 3869              		.loc 14 197 0
 3870 002e 00BF     		nop
 3871 0030 80BD     		pop	{r7, pc}
 3872              		.cfi_endproc
 3873              	.LFE105:
 3874              		.size	Init_StepMotor, .-Init_StepMotor
 3875 0032 00BF     		.section	.rodata
 3876 01a5 000000   		.align	2
 3877              	.LC33:
 3878 01a8 625F4C61 		.ascii	"b_Laser1\000"
 3878      73657231 
 3878      00
 3879 01b1 000000   		.align	2
 3880              	.LC34:
 3881 01b4 625F4C61 		.ascii	"b_Laser2\000"
 3881      73657232 
 3881      00
 3882 01bd 000000   		.align	2
 3883              	.LC35:
 3884 01c0 625F4C61 		.ascii	"b_Laser3\000"
 3884      73657233 
 3884      00
 3885              		.section	.text.switchLasers,"ax",%progbits
 3886              		.align	2
 3887              		.global	switchLasers
 3888              		.thumb
 3889              		.thumb_func
 3890              		.type	switchLasers, %function
 3891              	switchLasers:
 3892              	.LFB106:
 3893              		.file 15 "./SetupOfMeasurement.h"
   1:./SetupOfMeasurement.h **** /* ========================================
   2:./SetupOfMeasurement.h ****  *
   3:./SetupOfMeasurement.h ****  * Copyright YOUR COMPANY, THE YEAR
   4:./SetupOfMeasurement.h ****  * All Rights Reserved
   5:./SetupOfMeasurement.h ****  * UNPUBLISHED, LICENSED SOFTWARE.
ARM GAS  C:\Users\LOCALA~1\AppData\Local\Temp\ccsQji0c.s 			page 93


   6:./SetupOfMeasurement.h ****  *
   7:./SetupOfMeasurement.h ****  * CONFIDENTIAL AND PROPRIETARY INFORMATION
   8:./SetupOfMeasurement.h ****  * WHICH IS THE PROPERTY OF your company.
   9:./SetupOfMeasurement.h ****  *
  10:./SetupOfMeasurement.h ****  * ========================================
  11:./SetupOfMeasurement.h **** */
  12:./SetupOfMeasurement.h **** 
  13:./SetupOfMeasurement.h **** #ifndef SETUPOFMEASUREMENT_H
  14:./SetupOfMeasurement.h ****     #define SETUPOFMEASUREMENT_H
  15:./SetupOfMeasurement.h **** 
  16:./SetupOfMeasurement.h ****     #include <GlobalVariables.h>
  17:./SetupOfMeasurement.h ****     #include <Nextion.h>
  18:./SetupOfMeasurement.h ****     #include <Nextion_PlotSetupData.h>
  19:./SetupOfMeasurement.h ****     #include <Laser.h>
  20:./SetupOfMeasurement.h ****     #include <ADC.h>
  21:./SetupOfMeasurement.h ****     #include <StepMotor.h>
  22:./SetupOfMeasurement.h ****     #include <Error.h>
  23:./SetupOfMeasurement.h ****     
  24:./SetupOfMeasurement.h ****     
  25:./SetupOfMeasurement.h ****     void switchLasers(char const symbol)
  26:./SetupOfMeasurement.h ****     {
 3894              		.loc 15 26 0
 3895              		.cfi_startproc
 3896              		@ args = 0, pretend = 0, frame = 8
 3897              		@ frame_needed = 1, uses_anonymous_args = 0
 3898 0000 80B5     		push	{r7, lr}
 3899              		.cfi_def_cfa_offset 8
 3900              		.cfi_offset 7, -8
 3901              		.cfi_offset 14, -4
 3902 0002 82B0     		sub	sp, sp, #8
 3903              		.cfi_def_cfa_offset 16
 3904 0004 00AF     		add	r7, sp, #0
 3905              		.cfi_def_cfa_register 7
 3906 0006 0346     		mov	r3, r0
 3907 0008 FB71     		strb	r3, [r7, #7]
  27:./SetupOfMeasurement.h ****         switch(symbol)
 3908              		.loc 15 27 0
 3909 000a FB79     		ldrb	r3, [r7, #7]	@ zero_extendqisi2
 3910 000c 322B     		cmp	r3, #50
 3911 000e 16D0     		beq	.L234
 3912 0010 332B     		cmp	r3, #51
 3913 0012 26D0     		beq	.L235
 3914 0014 312B     		cmp	r3, #49
 3915 0016 00D0     		beq	.L236
  28:./SetupOfMeasurement.h ****         {
  29:./SetupOfMeasurement.h ****             case BUTTON_LASER1:
  30:./SetupOfMeasurement.h ****                 Laser1_Toggle();
  31:./SetupOfMeasurement.h ****                 if (LaserState1)
  32:./SetupOfMeasurement.h ****                 {
  33:./SetupOfMeasurement.h ****                     Nextion_SendBackgroundColorToButton("b_Laser1", NextionColor_Green);
  34:./SetupOfMeasurement.h ****                 }
  35:./SetupOfMeasurement.h ****                 else
  36:./SetupOfMeasurement.h ****                 {
  37:./SetupOfMeasurement.h ****                     Nextion_SendBackgroundColorToButton("b_Laser1", NextionColor_Red);
  38:./SetupOfMeasurement.h ****                 }
  39:./SetupOfMeasurement.h ****                 break;
  40:./SetupOfMeasurement.h ****                 
ARM GAS  C:\Users\LOCALA~1\AppData\Local\Temp\ccsQji0c.s 			page 94


  41:./SetupOfMeasurement.h ****             case BUTTON_LASER2:
  42:./SetupOfMeasurement.h ****                 Laser2_Toggle();
  43:./SetupOfMeasurement.h ****                 if (LaserState2)
  44:./SetupOfMeasurement.h ****                 {
  45:./SetupOfMeasurement.h ****                     Nextion_SendBackgroundColorToButton("b_Laser2", NextionColor_Green);
  46:./SetupOfMeasurement.h ****                 }
  47:./SetupOfMeasurement.h ****                 else
  48:./SetupOfMeasurement.h ****                 {
  49:./SetupOfMeasurement.h ****                     Nextion_SendBackgroundColorToButton("b_Laser2", NextionColor_Red);
  50:./SetupOfMeasurement.h ****                 }
  51:./SetupOfMeasurement.h ****                 break;
  52:./SetupOfMeasurement.h ****                 
  53:./SetupOfMeasurement.h ****             case BUTTON_LASER3:
  54:./SetupOfMeasurement.h ****                 Laser3_Toggle();
  55:./SetupOfMeasurement.h ****                 if (LaserState3)
  56:./SetupOfMeasurement.h ****                 {
  57:./SetupOfMeasurement.h ****                     Nextion_SendBackgroundColorToButton("b_Laser3", NextionColor_Green);
  58:./SetupOfMeasurement.h ****                 }
  59:./SetupOfMeasurement.h ****                 else
  60:./SetupOfMeasurement.h ****                 {
  61:./SetupOfMeasurement.h ****                     Nextion_SendBackgroundColorToButton("b_Laser3", NextionColor_Red);
  62:./SetupOfMeasurement.h ****                 }
  63:./SetupOfMeasurement.h ****                 break;
  64:./SetupOfMeasurement.h ****             default:
  65:./SetupOfMeasurement.h ****                 break;
 3916              		.loc 15 65 0
 3917 0018 35E0     		b	.L239
 3918              	.L236:
  30:./SetupOfMeasurement.h ****                 if (LaserState1)
 3919              		.loc 15 30 0
 3920 001a FFF7FEFF 		bl	Laser1_Toggle
  31:./SetupOfMeasurement.h ****                 {
 3921              		.loc 15 31 0
 3922 001e 1C4B     		ldr	r3, .L245
 3923 0020 1B78     		ldrb	r3, [r3]	@ zero_extendqisi2
 3924 0022 002B     		cmp	r3, #0
 3925 0024 05D0     		beq	.L237
  33:./SetupOfMeasurement.h ****                 }
 3926              		.loc 15 33 0
 3927 0026 48F2E071 		movw	r1, #34784
 3928 002a 1A48     		ldr	r0, .L245+4
 3929 002c FFF7FEFF 		bl	Nextion_SendBackgroundColorToButton
  39:./SetupOfMeasurement.h ****                 
 3930              		.loc 15 39 0
 3931 0030 29E0     		b	.L239
 3932              	.L237:
  37:./SetupOfMeasurement.h ****                 }
 3933              		.loc 15 37 0
 3934 0032 4FF47841 		mov	r1, #63488
 3935 0036 1748     		ldr	r0, .L245+4
 3936 0038 FFF7FEFF 		bl	Nextion_SendBackgroundColorToButton
  39:./SetupOfMeasurement.h ****                 
 3937              		.loc 15 39 0
 3938 003c 23E0     		b	.L239
 3939              	.L234:
  42:./SetupOfMeasurement.h ****                 if (LaserState2)
 3940              		.loc 15 42 0
ARM GAS  C:\Users\LOCALA~1\AppData\Local\Temp\ccsQji0c.s 			page 95


 3941 003e FFF7FEFF 		bl	Laser2_Toggle
  43:./SetupOfMeasurement.h ****                 {
 3942              		.loc 15 43 0
 3943 0042 154B     		ldr	r3, .L245+8
 3944 0044 1B78     		ldrb	r3, [r3]	@ zero_extendqisi2
 3945 0046 002B     		cmp	r3, #0
 3946 0048 05D0     		beq	.L240
  45:./SetupOfMeasurement.h ****                 }
 3947              		.loc 15 45 0
 3948 004a 48F2E071 		movw	r1, #34784
 3949 004e 1348     		ldr	r0, .L245+12
 3950 0050 FFF7FEFF 		bl	Nextion_SendBackgroundColorToButton
  51:./SetupOfMeasurement.h ****                 
 3951              		.loc 15 51 0
 3952 0054 17E0     		b	.L239
 3953              	.L240:
  49:./SetupOfMeasurement.h ****                 }
 3954              		.loc 15 49 0
 3955 0056 4FF47841 		mov	r1, #63488
 3956 005a 1048     		ldr	r0, .L245+12
 3957 005c FFF7FEFF 		bl	Nextion_SendBackgroundColorToButton
  51:./SetupOfMeasurement.h ****                 
 3958              		.loc 15 51 0
 3959 0060 11E0     		b	.L239
 3960              	.L235:
  54:./SetupOfMeasurement.h ****                 if (LaserState3)
 3961              		.loc 15 54 0
 3962 0062 FFF7FEFF 		bl	Laser3_Toggle
  55:./SetupOfMeasurement.h ****                 {
 3963              		.loc 15 55 0
 3964 0066 0E4B     		ldr	r3, .L245+16
 3965 0068 1B78     		ldrb	r3, [r3]	@ zero_extendqisi2
 3966 006a 002B     		cmp	r3, #0
 3967 006c 05D0     		beq	.L242
  57:./SetupOfMeasurement.h ****                 }
 3968              		.loc 15 57 0
 3969 006e 48F2E071 		movw	r1, #34784
 3970 0072 0C48     		ldr	r0, .L245+20
 3971 0074 FFF7FEFF 		bl	Nextion_SendBackgroundColorToButton
  63:./SetupOfMeasurement.h ****             default:
 3972              		.loc 15 63 0
 3973 0078 04E0     		b	.L244
 3974              	.L242:
  61:./SetupOfMeasurement.h ****                 }
 3975              		.loc 15 61 0
 3976 007a 4FF47841 		mov	r1, #63488
 3977 007e 0948     		ldr	r0, .L245+20
 3978 0080 FFF7FEFF 		bl	Nextion_SendBackgroundColorToButton
 3979              	.L244:
  63:./SetupOfMeasurement.h ****             default:
 3980              		.loc 15 63 0
 3981 0084 00BF     		nop
 3982              	.L239:
  66:./SetupOfMeasurement.h ****         }
  67:./SetupOfMeasurement.h ****     }
 3983              		.loc 15 67 0
 3984 0086 00BF     		nop
ARM GAS  C:\Users\LOCALA~1\AppData\Local\Temp\ccsQji0c.s 			page 96


 3985 0088 0837     		adds	r7, r7, #8
 3986              		.cfi_def_cfa_offset 8
 3987 008a BD46     		mov	sp, r7
 3988              		.cfi_def_cfa_register 13
 3989              		@ sp needed
 3990 008c 80BD     		pop	{r7, pc}
 3991              	.L246:
 3992 008e 00BF     		.align	2
 3993              	.L245:
 3994 0090 00000000 		.word	LaserState1
 3995 0094 A8010000 		.word	.LC33
 3996 0098 00000000 		.word	LaserState2
 3997 009c B4010000 		.word	.LC34
 3998 00a0 00000000 		.word	LaserState3
 3999 00a4 C0010000 		.word	.LC35
 4000              		.cfi_endproc
 4001              	.LFE106:
 4002              		.size	switchLasers, .-switchLasers
 4003              		.section	.text.rotateStepMotor,"ax",%progbits
 4004              		.align	2
 4005              		.global	rotateStepMotor
 4006              		.thumb
 4007              		.thumb_func
 4008              		.type	rotateStepMotor, %function
 4009              	rotateStepMotor:
 4010              	.LFB107:
  68:./SetupOfMeasurement.h ****     
  69:./SetupOfMeasurement.h ****     void rotateStepMotor(char const symbol)
  70:./SetupOfMeasurement.h ****     {
 4011              		.loc 15 70 0
 4012              		.cfi_startproc
 4013              		@ args = 0, pretend = 0, frame = 8
 4014              		@ frame_needed = 1, uses_anonymous_args = 0
 4015 0000 80B5     		push	{r7, lr}
 4016              		.cfi_def_cfa_offset 8
 4017              		.cfi_offset 7, -8
 4018              		.cfi_offset 14, -4
 4019 0002 82B0     		sub	sp, sp, #8
 4020              		.cfi_def_cfa_offset 16
 4021 0004 00AF     		add	r7, sp, #0
 4022              		.cfi_def_cfa_register 7
 4023 0006 0346     		mov	r3, r0
 4024 0008 FB71     		strb	r3, [r7, #7]
  71:./SetupOfMeasurement.h ****         switch(symbol)
 4025              		.loc 15 71 0
 4026 000a FB79     		ldrb	r3, [r7, #7]	@ zero_extendqisi2
 4027 000c 213B     		subs	r3, r3, #33
 4028 000e 1E2B     		cmp	r3, #30
 4029 0010 5CD8     		bhi	.L258
 4030 0012 01A2     		adr	r2, .L250
 4031 0014 52F823F0 		ldr	pc, [r2, r3, lsl #2]
 4032              		.p2align 2
 4033              	.L250:
 4034 0018 AD000000 		.word	.L249+1
 4035 001c CD000000 		.word	.L258+1
 4036 0020 B9000000 		.word	.L251+1
 4037 0024 CD000000 		.word	.L258+1
ARM GAS  C:\Users\LOCALA~1\AppData\Local\Temp\ccsQji0c.s 			page 97


 4038 0028 CD000000 		.word	.L258+1
 4039 002c CD000000 		.word	.L258+1
 4040 0030 CD000000 		.word	.L258+1
 4041 0034 CD000000 		.word	.L258+1
 4042 0038 CD000000 		.word	.L258+1
 4043 003c CD000000 		.word	.L258+1
 4044 0040 95000000 		.word	.L252+1
 4045 0044 A7000000 		.word	.L253+1
 4046 0048 9B000000 		.word	.L254+1
 4047 004c A1000000 		.word	.L255+1
 4048 0050 CD000000 		.word	.L258+1
 4049 0054 CD000000 		.word	.L258+1
 4050 0058 CD000000 		.word	.L258+1
 4051 005c CD000000 		.word	.L258+1
 4052 0060 CD000000 		.word	.L258+1
 4053 0064 CD000000 		.word	.L258+1
 4054 0068 CD000000 		.word	.L258+1
 4055 006c CD000000 		.word	.L258+1
 4056 0070 CD000000 		.word	.L258+1
 4057 0074 CD000000 		.word	.L258+1
 4058 0078 CD000000 		.word	.L258+1
 4059 007c CD000000 		.word	.L258+1
 4060 0080 CD000000 		.word	.L258+1
 4061 0084 CD000000 		.word	.L258+1
 4062 0088 CD000000 		.word	.L258+1
 4063 008c CD000000 		.word	.L258+1
 4064 0090 B3000000 		.word	.L256+1
 4065              		.p2align 1
 4066              	.L252:
  72:./SetupOfMeasurement.h ****         {
  73:./SetupOfMeasurement.h ****             case BUTTON_1STEP_CW:
  74:./SetupOfMeasurement.h ****                 MoveOneStepCW();
 4067              		.loc 15 74 0
 4068 0094 FFF7FEFF 		bl	MoveOneStepCW
  75:./SetupOfMeasurement.h ****                 break;
 4069              		.loc 15 75 0
 4070 0098 19E0     		b	.L257
 4071              	.L254:
  76:./SetupOfMeasurement.h ****                 
  77:./SetupOfMeasurement.h ****             case BUTTON_1STEP_CCW:
  78:./SetupOfMeasurement.h ****                 MoveOneStepCCW();
 4072              		.loc 15 78 0
 4073 009a FFF7FEFF 		bl	MoveOneStepCCW
  79:./SetupOfMeasurement.h ****                 break;
 4074              		.loc 15 79 0
 4075 009e 16E0     		b	.L257
 4076              	.L255:
  80:./SetupOfMeasurement.h ****                 
  81:./SetupOfMeasurement.h ****             case BUTTON_10DEG_CW:
  82:./SetupOfMeasurement.h ****                 Move10DegreeCW();
 4077              		.loc 15 82 0
 4078 00a0 FFF7FEFF 		bl	Move10DegreeCW
  83:./SetupOfMeasurement.h ****                 break;
 4079              		.loc 15 83 0
 4080 00a4 13E0     		b	.L257
 4081              	.L253:
  84:./SetupOfMeasurement.h ****             case BUTTON_10DEG_CCW:
ARM GAS  C:\Users\LOCALA~1\AppData\Local\Temp\ccsQji0c.s 			page 98


  85:./SetupOfMeasurement.h ****                 Move10DegreeCCW();
 4082              		.loc 15 85 0
 4083 00a6 FFF7FEFF 		bl	Move10DegreeCCW
  86:./SetupOfMeasurement.h ****                 break;
 4084              		.loc 15 86 0
 4085 00aa 10E0     		b	.L257
 4086              	.L249:
  87:./SetupOfMeasurement.h ****                 
  88:./SetupOfMeasurement.h ****             case BUTTON_90DEG_CW:
  89:./SetupOfMeasurement.h ****                 Move90DegreeCW();
 4087              		.loc 15 89 0
 4088 00ac FFF7FEFF 		bl	Move90DegreeCW
  90:./SetupOfMeasurement.h ****                 break;
 4089              		.loc 15 90 0
 4090 00b0 0DE0     		b	.L257
 4091              	.L256:
  91:./SetupOfMeasurement.h ****             case BUTTON_90DEG_CCW:
  92:./SetupOfMeasurement.h ****                 Move90DegreeCCW();
 4092              		.loc 15 92 0
 4093 00b2 FFF7FEFF 		bl	Move90DegreeCCW
  93:./SetupOfMeasurement.h ****                 break;
 4094              		.loc 15 93 0
 4095 00b6 0AE0     		b	.L257
 4096              	.L251:
  94:./SetupOfMeasurement.h ****                 
  95:./SetupOfMeasurement.h ****             case BUTTON_CREATELAMELLA:
  96:./SetupOfMeasurement.h ****                 Move90DegreeCW();
 4097              		.loc 15 96 0
 4098 00b8 FFF7FEFF 		bl	Move90DegreeCW
  97:./SetupOfMeasurement.h ****                 CyDelay(g_FormationTime_ms);
 4099              		.loc 15 97 0
 4100 00bc 064B     		ldr	r3, .L259
 4101 00be 1B68     		ldr	r3, [r3]
 4102 00c0 1846     		mov	r0, r3
 4103 00c2 FFF7FEFF 		bl	CyDelay
  98:./SetupOfMeasurement.h ****                 Move90DegreeCCW();
 4104              		.loc 15 98 0
 4105 00c6 FFF7FEFF 		bl	Move90DegreeCCW
  99:./SetupOfMeasurement.h ****                 break;
 4106              		.loc 15 99 0
 4107 00ca 00E0     		b	.L257
 4108              	.L258:
 100:./SetupOfMeasurement.h ****                 
 101:./SetupOfMeasurement.h ****             default:
 102:./SetupOfMeasurement.h ****                 break;
 4109              		.loc 15 102 0
 4110 00cc 00BF     		nop
 4111              	.L257:
 103:./SetupOfMeasurement.h ****         }
 104:./SetupOfMeasurement.h ****     }
 4112              		.loc 15 104 0
 4113 00ce 00BF     		nop
 4114 00d0 0837     		adds	r7, r7, #8
 4115              		.cfi_def_cfa_offset 8
 4116 00d2 BD46     		mov	sp, r7
 4117              		.cfi_def_cfa_register 13
 4118              		@ sp needed
ARM GAS  C:\Users\LOCALA~1\AppData\Local\Temp\ccsQji0c.s 			page 99


 4119 00d4 80BD     		pop	{r7, pc}
 4120              	.L260:
 4121 00d6 00BF     		.align	2
 4122              	.L259:
 4123 00d8 00000000 		.word	g_FormationTime_ms
 4124              		.cfi_endproc
 4125              	.LFE107:
 4126              		.size	rotateStepMotor, .-rotateStepMotor
 4127              		.section	.rodata
 4128 01c9 000000   		.align	2
 4129              	.LC36:
 4130 01cc 70616765 		.ascii	"page Setup\000"
 4130      20536574 
 4130      757000
 4131 01d7 00       		.align	2
 4132              	.LC37:
 4133 01d8 6E5F4144 		.ascii	"n_ADC\000"
 4133      4300
 4134              		.global	__aeabi_i2f
 4135              		.section	.text.SetupOfMeasurement,"ax",%progbits
 4136              		.align	2
 4137              		.global	SetupOfMeasurement
 4138              		.thumb
 4139              		.thumb_func
 4140              		.type	SetupOfMeasurement, %function
 4141              	SetupOfMeasurement:
 4142              	.LFB108:
 105:./SetupOfMeasurement.h ****     
 106:./SetupOfMeasurement.h ****     int SetupOfMeasurement()
 107:./SetupOfMeasurement.h ****     {     
 4143              		.loc 15 107 0
 4144              		.cfi_startproc
 4145              		@ args = 0, pretend = 0, frame = 8
 4146              		@ frame_needed = 1, uses_anonymous_args = 0
 4147 0000 90B5     		push	{r4, r7, lr}
 4148              		.cfi_def_cfa_offset 12
 4149              		.cfi_offset 4, -12
 4150              		.cfi_offset 7, -8
 4151              		.cfi_offset 14, -4
 4152 0002 83B0     		sub	sp, sp, #12
 4153              		.cfi_def_cfa_offset 24
 4154 0004 00AF     		add	r7, sp, #0
 4155              		.cfi_def_cfa_register 7
 108:./SetupOfMeasurement.h ****         Nextion_SendString("page Setup");
 4156              		.loc 15 108 0
 4157 0006 2948     		ldr	r0, .L270
 4158 0008 FFF7FEFF 		bl	Nextion_SendString
 109:./SetupOfMeasurement.h ****         g_NextionInterrupt = '0';
 4159              		.loc 15 109 0
 4160 000c 284B     		ldr	r3, .L270+4
 4161 000e 3022     		movs	r2, #48
 4162 0010 1A70     		strb	r2, [r3]
 110:./SetupOfMeasurement.h ****         // Init
 111:./SetupOfMeasurement.h ****         
 112:./SetupOfMeasurement.h ****         // Turn off all lasers for safety reasons.
 113:./SetupOfMeasurement.h ****         turnAllLasersOff();
 4163              		.loc 15 113 0
ARM GAS  C:\Users\LOCALA~1\AppData\Local\Temp\ccsQji0c.s 			page 100


 4164 0012 FFF7FEFF 		bl	turnAllLasersOff
 114:./SetupOfMeasurement.h ****         
 115:./SetupOfMeasurement.h ****         Nextion_SendBackgroundColorToButton("b_Laser1", NextionColor_Red);
 4165              		.loc 15 115 0
 4166 0016 4FF47841 		mov	r1, #63488
 4167 001a 2648     		ldr	r0, .L270+8
 4168 001c FFF7FEFF 		bl	Nextion_SendBackgroundColorToButton
 116:./SetupOfMeasurement.h ****         Nextion_SendBackgroundColorToButton("b_Laser2", NextionColor_Red);
 4169              		.loc 15 116 0
 4170 0020 4FF47841 		mov	r1, #63488
 4171 0024 2448     		ldr	r0, .L270+12
 4172 0026 FFF7FEFF 		bl	Nextion_SendBackgroundColorToButton
 117:./SetupOfMeasurement.h ****         Nextion_SendBackgroundColorToButton("b_Laser3", NextionColor_Red);
 4173              		.loc 15 117 0
 4174 002a 4FF47841 		mov	r1, #63488
 4175 002e 2348     		ldr	r0, .L270+16
 4176 0030 FFF7FEFF 		bl	Nextion_SendBackgroundColorToButton
 4177              	.L267:
 118:./SetupOfMeasurement.h ****         
 119:./SetupOfMeasurement.h ****         // Main 
 120:./SetupOfMeasurement.h ****         
 121:./SetupOfMeasurement.h ****         
 122:./SetupOfMeasurement.h ****         
 123:./SetupOfMeasurement.h ****         while (1)
 124:./SetupOfMeasurement.h ****         {
 125:./SetupOfMeasurement.h ****             // Plotting of current ADC value onto Nextion. 
 126:./SetupOfMeasurement.h ****             if (v_timerflag_100ms)
 4178              		.loc 15 126 0
 4179 0034 224B     		ldr	r3, .L270+20
 4180 0036 1B78     		ldrb	r3, [r3]
 4181 0038 DBB2     		uxtb	r3, r3
 4182 003a 002B     		cmp	r3, #0
 4183 003c 19D0     		beq	.L262
 4184              	.LBB11:
 127:./SetupOfMeasurement.h ****             {
 128:./SetupOfMeasurement.h ****                 v_timerflag_100ms = 0;   
 4185              		.loc 15 128 0
 4186 003e 204B     		ldr	r3, .L270+20
 4187 0040 0022     		movs	r2, #0
 4188 0042 1A70     		strb	r2, [r3]
 129:./SetupOfMeasurement.h ****                 
 130:./SetupOfMeasurement.h ****                 int ADCValue = GetADCValue();
 4189              		.loc 15 130 0
 4190 0044 FFF7FEFF 		bl	GetADCValue
 4191 0048 0346     		mov	r3, r0
 4192 004a 7B60     		str	r3, [r7, #4]
 131:./SetupOfMeasurement.h ****                 
 132:./SetupOfMeasurement.h ****                 Nextion_SendValueToValueBox("n_ADC", ADCValue);
 4193              		.loc 15 132 0
 4194 004c 7968     		ldr	r1, [r7, #4]
 4195 004e 1D48     		ldr	r0, .L270+24
 4196 0050 FFF7FEFF 		bl	Nextion_SendValueToValueBox
 133:./SetupOfMeasurement.h ****                 NextionPlot_PointsToSetupAxes((float)g_ThresholdValue_mV, 4095, (float)ADCValue);
 4197              		.loc 15 133 0
 4198 0054 1C4B     		ldr	r3, .L270+28
 4199 0056 1B68     		ldr	r3, [r3]
 4200 0058 1846     		mov	r0, r3
ARM GAS  C:\Users\LOCALA~1\AppData\Local\Temp\ccsQji0c.s 			page 101


 4201 005a FFF7FEFF 		bl	__aeabi_i2f
 4202 005e 0446     		mov	r4, r0
 4203 0060 7868     		ldr	r0, [r7, #4]
 4204 0062 FFF7FEFF 		bl	__aeabi_i2f
 4205 0066 0346     		mov	r3, r0
 4206 0068 1A46     		mov	r2, r3
 4207 006a 1849     		ldr	r1, .L270+32
 4208 006c 2046     		mov	r0, r4
 4209 006e FFF7FEFF 		bl	NextionPlot_PointsToSetupAxes
 4210              	.L262:
 4211              	.LBE11:
 134:./SetupOfMeasurement.h ****             }
 135:./SetupOfMeasurement.h ****             // Reacting to Input-Buttons:
 136:./SetupOfMeasurement.h ****             switchLasers(g_NextionInterrupt);
 4212              		.loc 15 136 0
 4213 0072 0F4B     		ldr	r3, .L270+4
 4214 0074 1B78     		ldrb	r3, [r3]	@ zero_extendqisi2
 4215 0076 1846     		mov	r0, r3
 4216 0078 FFF7FEFF 		bl	switchLasers
 137:./SetupOfMeasurement.h ****             rotateStepMotor(g_NextionInterrupt);
 4217              		.loc 15 137 0
 4218 007c 0C4B     		ldr	r3, .L270+4
 4219 007e 1B78     		ldrb	r3, [r3]	@ zero_extendqisi2
 4220 0080 1846     		mov	r0, r3
 4221 0082 FFF7FEFF 		bl	rotateStepMotor
 138:./SetupOfMeasurement.h ****             switch (g_NextionInterrupt)
 4222              		.loc 15 138 0
 4223 0086 0A4B     		ldr	r3, .L270+4
 4224 0088 1B78     		ldrb	r3, [r3]	@ zero_extendqisi2
 4225 008a 482B     		cmp	r3, #72
 4226 008c 04D0     		beq	.L264
 4227 008e 592B     		cmp	r3, #89
 4228 0090 00D0     		beq	.L265
 139:./SetupOfMeasurement.h ****             {
 140:./SetupOfMeasurement.h ****                 case BUTTON_CONFIRM:                   // Confirm -> Messstart!
 141:./SetupOfMeasurement.h ****                     return 0;
 142:./SetupOfMeasurement.h ****                     break;
 143:./SetupOfMeasurement.h ****                 case BUTTON_HOME:
 144:./SetupOfMeasurement.h ****                     return 1;
 145:./SetupOfMeasurement.h ****                     break;
 146:./SetupOfMeasurement.h ****                 default:
 147:./SetupOfMeasurement.h ****                     break;
 4229              		.loc 15 147 0
 4230 0092 03E0     		b	.L269
 4231              	.L265:
 141:./SetupOfMeasurement.h ****                     break;
 4232              		.loc 15 141 0
 4233 0094 0023     		movs	r3, #0
 4234 0096 05E0     		b	.L266
 4235              	.L264:
 144:./SetupOfMeasurement.h ****                     break;
 4236              		.loc 15 144 0
 4237 0098 0123     		movs	r3, #1
 4238 009a 03E0     		b	.L266
 4239              	.L269:
 148:./SetupOfMeasurement.h ****             }   
 149:./SetupOfMeasurement.h ****             g_NextionInterrupt = '0';
ARM GAS  C:\Users\LOCALA~1\AppData\Local\Temp\ccsQji0c.s 			page 102


 4240              		.loc 15 149 0
 4241 009c 044B     		ldr	r3, .L270+4
 4242 009e 3022     		movs	r2, #48
 4243 00a0 1A70     		strb	r2, [r3]
 150:./SetupOfMeasurement.h ****         }
 4244              		.loc 15 150 0
 4245 00a2 C7E7     		b	.L267
 4246              	.L266:
 151:./SetupOfMeasurement.h ****     }
 4247              		.loc 15 151 0
 4248 00a4 1846     		mov	r0, r3
 4249 00a6 0C37     		adds	r7, r7, #12
 4250              		.cfi_def_cfa_offset 12
 4251 00a8 BD46     		mov	sp, r7
 4252              		.cfi_def_cfa_register 13
 4253              		@ sp needed
 4254 00aa 90BD     		pop	{r4, r7, pc}
 4255              	.L271:
 4256              		.align	2
 4257              	.L270:
 4258 00ac CC010000 		.word	.LC36
 4259 00b0 00000000 		.word	g_NextionInterrupt
 4260 00b4 A8010000 		.word	.LC33
 4261 00b8 B4010000 		.word	.LC34
 4262 00bc C0010000 		.word	.LC35
 4263 00c0 00000000 		.word	v_timerflag_100ms
 4264 00c4 D8010000 		.word	.LC37
 4265 00c8 00000000 		.word	g_ThresholdValue_mV
 4266 00cc 00F07F45 		.word	1166012416
 4267              		.cfi_endproc
 4268              	.LFE108:
 4269              		.size	SetupOfMeasurement, .-SetupOfMeasurement
 4270              		.section	.rodata
 4271 01de 0000     		.align	2
 4272              	.LC38:
 4273 01e0 66696C6C 		.ascii	"fill \000"
 4273      2000
 4274 01e6 0000     		.align	2
 4275              	.LC39:
 4276 01e8 2C00     		.ascii	",\000"
 4277              		.section	.text.Nextion_SendFillCommand,"ax",%progbits
 4278              		.align	2
 4279              		.global	Nextion_SendFillCommand
 4280              		.thumb
 4281              		.thumb_func
 4282              		.type	Nextion_SendFillCommand, %function
 4283              	Nextion_SendFillCommand:
 4284              	.LFB109:
 4285              		.file 16 "./Nextion_PlotLifetimeData.h"
   1:./Nextion_PlotLifetimeData.h **** /* ========================================
   2:./Nextion_PlotLifetimeData.h ****  *
   3:./Nextion_PlotLifetimeData.h ****  * Copyright YOUR COMPANY, THE YEAR
   4:./Nextion_PlotLifetimeData.h ****  * All Rights Reserved
   5:./Nextion_PlotLifetimeData.h ****  * UNPUBLISHED, LICENSED SOFTWARE.
   6:./Nextion_PlotLifetimeData.h ****  *
   7:./Nextion_PlotLifetimeData.h ****  * CONFIDENTIAL AND PROPRIETARY INFORMATION
   8:./Nextion_PlotLifetimeData.h ****  * WHICH IS THE PROPERTY OF your company.
ARM GAS  C:\Users\LOCALA~1\AppData\Local\Temp\ccsQji0c.s 			page 103


   9:./Nextion_PlotLifetimeData.h ****  *
  10:./Nextion_PlotLifetimeData.h ****  * ========================================
  11:./Nextion_PlotLifetimeData.h **** */
  12:./Nextion_PlotLifetimeData.h **** 
  13:./Nextion_PlotLifetimeData.h **** #ifndef NEXTION_PLOTLIFETIMEDATA_H
  14:./Nextion_PlotLifetimeData.h ****     #define NEXTION_PLOTLIFETIMEDATA_H
  15:./Nextion_PlotLifetimeData.h ****     
  16:./Nextion_PlotLifetimeData.h ****     #include <project.h>
  17:./Nextion_PlotLifetimeData.h ****     #include <GlobalVariables.h>
  18:./Nextion_PlotLifetimeData.h ****     #include <Nextion.h>
  19:./Nextion_PlotLifetimeData.h ****     
  20:./Nextion_PlotLifetimeData.h ****     #define Nextion_LifetimePlot_Settings_x 110
  21:./Nextion_PlotLifetimeData.h ****     #define Nextion_LifetimePlot_Settings_y 72
  22:./Nextion_PlotLifetimeData.h ****     #define Nextion_LifetimePlot_Settings_w 300
  23:./Nextion_PlotLifetimeData.h ****     #define Nextion_LifetimePlot_Settings_h 200
  24:./Nextion_PlotLifetimeData.h ****     
  25:./Nextion_PlotLifetimeData.h ****     #define Nextion_LifetimePlot_Settings_Fill_Width 3 
  26:./Nextion_PlotLifetimeData.h ****     #define Nextion_LifetimePlot_Settings_Fill_Height 3
  27:./Nextion_PlotLifetimeData.h ****     
  28:./Nextion_PlotLifetimeData.h ****     
  29:./Nextion_PlotLifetimeData.h ****     void Nextion_SendFillCommand(int pos_x, int pos_y, int height, int width)
  30:./Nextion_PlotLifetimeData.h ****     {
 4286              		.loc 16 30 0
 4287              		.cfi_startproc
 4288              		@ args = 0, pretend = 0, frame = 40
 4289              		@ frame_needed = 1, uses_anonymous_args = 0
 4290 0000 80B5     		push	{r7, lr}
 4291              		.cfi_def_cfa_offset 8
 4292              		.cfi_offset 7, -8
 4293              		.cfi_offset 14, -4
 4294 0002 8AB0     		sub	sp, sp, #40
 4295              		.cfi_def_cfa_offset 48
 4296 0004 00AF     		add	r7, sp, #0
 4297              		.cfi_def_cfa_register 7
 4298 0006 F860     		str	r0, [r7, #12]
 4299 0008 B960     		str	r1, [r7, #8]
 4300 000a 7A60     		str	r2, [r7, #4]
 4301 000c 3B60     		str	r3, [r7]
  31:./Nextion_PlotLifetimeData.h ****         char num_str[20];
  32:./Nextion_PlotLifetimeData.h ****         itoa(pos_x, num_str, 10);
 4302              		.loc 16 32 0
 4303 000e 07F11403 		add	r3, r7, #20
 4304 0012 0A22     		movs	r2, #10
 4305 0014 1946     		mov	r1, r3
 4306 0016 F868     		ldr	r0, [r7, #12]
 4307 0018 FFF7FEFF 		bl	itoa
  33:./Nextion_PlotLifetimeData.h ****         UART_TFT_PutString("fill ");
 4308              		.loc 16 33 0
 4309 001c 2548     		ldr	r0, .L273
 4310 001e FFF7FEFF 		bl	UART_TFT_PutString
  34:./Nextion_PlotLifetimeData.h ****         UART_TFT_PutString((char*)num_str);
 4311              		.loc 16 34 0
 4312 0022 07F11403 		add	r3, r7, #20
 4313 0026 1846     		mov	r0, r3
 4314 0028 FFF7FEFF 		bl	UART_TFT_PutString
  35:./Nextion_PlotLifetimeData.h ****         UART_TFT_PutString(",");
 4315              		.loc 16 35 0
ARM GAS  C:\Users\LOCALA~1\AppData\Local\Temp\ccsQji0c.s 			page 104


 4316 002c 2248     		ldr	r0, .L273+4
 4317 002e FFF7FEFF 		bl	UART_TFT_PutString
  36:./Nextion_PlotLifetimeData.h ****         itoa(pos_y, num_str, 10);
 4318              		.loc 16 36 0
 4319 0032 07F11403 		add	r3, r7, #20
 4320 0036 0A22     		movs	r2, #10
 4321 0038 1946     		mov	r1, r3
 4322 003a B868     		ldr	r0, [r7, #8]
 4323 003c FFF7FEFF 		bl	itoa
  37:./Nextion_PlotLifetimeData.h ****         UART_TFT_PutString((char*)num_str);
 4324              		.loc 16 37 0
 4325 0040 07F11403 		add	r3, r7, #20
 4326 0044 1846     		mov	r0, r3
 4327 0046 FFF7FEFF 		bl	UART_TFT_PutString
  38:./Nextion_PlotLifetimeData.h ****         UART_TFT_PutString(",");
 4328              		.loc 16 38 0
 4329 004a 1B48     		ldr	r0, .L273+4
 4330 004c FFF7FEFF 		bl	UART_TFT_PutString
  39:./Nextion_PlotLifetimeData.h ****         itoa(width, num_str, 10);
 4331              		.loc 16 39 0
 4332 0050 07F11403 		add	r3, r7, #20
 4333 0054 0A22     		movs	r2, #10
 4334 0056 1946     		mov	r1, r3
 4335 0058 3868     		ldr	r0, [r7]
 4336 005a FFF7FEFF 		bl	itoa
  40:./Nextion_PlotLifetimeData.h ****         UART_TFT_PutString((char*)num_str);
 4337              		.loc 16 40 0
 4338 005e 07F11403 		add	r3, r7, #20
 4339 0062 1846     		mov	r0, r3
 4340 0064 FFF7FEFF 		bl	UART_TFT_PutString
  41:./Nextion_PlotLifetimeData.h ****         UART_TFT_PutString(",");
 4341              		.loc 16 41 0
 4342 0068 1348     		ldr	r0, .L273+4
 4343 006a FFF7FEFF 		bl	UART_TFT_PutString
  42:./Nextion_PlotLifetimeData.h ****         itoa(height, num_str, 10);
 4344              		.loc 16 42 0
 4345 006e 07F11403 		add	r3, r7, #20
 4346 0072 0A22     		movs	r2, #10
 4347 0074 1946     		mov	r1, r3
 4348 0076 7868     		ldr	r0, [r7, #4]
 4349 0078 FFF7FEFF 		bl	itoa
  43:./Nextion_PlotLifetimeData.h ****         UART_TFT_PutString((char*)num_str);
 4350              		.loc 16 43 0
 4351 007c 07F11403 		add	r3, r7, #20
 4352 0080 1846     		mov	r0, r3
 4353 0082 FFF7FEFF 		bl	UART_TFT_PutString
  44:./Nextion_PlotLifetimeData.h ****         UART_TFT_PutString(",");
 4354              		.loc 16 44 0
 4355 0086 0C48     		ldr	r0, .L273+4
 4356 0088 FFF7FEFF 		bl	UART_TFT_PutString
  45:./Nextion_PlotLifetimeData.h ****         itoa(NextionColor_Red, num_str, 10);
 4357              		.loc 16 45 0
 4358 008c 07F11403 		add	r3, r7, #20
 4359 0090 0A22     		movs	r2, #10
 4360 0092 1946     		mov	r1, r3
 4361 0094 4FF47840 		mov	r0, #63488
 4362 0098 FFF7FEFF 		bl	itoa
ARM GAS  C:\Users\LOCALA~1\AppData\Local\Temp\ccsQji0c.s 			page 105


  46:./Nextion_PlotLifetimeData.h ****         UART_TFT_PutString((char*)num_str);
 4363              		.loc 16 46 0
 4364 009c 07F11403 		add	r3, r7, #20
 4365 00a0 1846     		mov	r0, r3
 4366 00a2 FFF7FEFF 		bl	UART_TFT_PutString
  47:./Nextion_PlotLifetimeData.h ****         Nextion_SendEndOfCommunication();
 4367              		.loc 16 47 0
 4368 00a6 FFF7FEFF 		bl	Nextion_SendEndOfCommunication
  48:./Nextion_PlotLifetimeData.h ****     }
 4369              		.loc 16 48 0
 4370 00aa 00BF     		nop
 4371 00ac 2837     		adds	r7, r7, #40
 4372              		.cfi_def_cfa_offset 8
 4373 00ae BD46     		mov	sp, r7
 4374              		.cfi_def_cfa_register 13
 4375              		@ sp needed
 4376 00b0 80BD     		pop	{r7, pc}
 4377              	.L274:
 4378 00b2 00BF     		.align	2
 4379              	.L273:
 4380 00b4 E0010000 		.word	.LC38
 4381 00b8 E8010000 		.word	.LC39
 4382              		.cfi_endproc
 4383              	.LFE109:
 4384              		.size	Nextion_SendFillCommand, .-Nextion_SendFillCommand
 4385              		.section	.text.Nextion_PlotLifetime,"ax",%progbits
 4386              		.align	2
 4387              		.global	Nextion_PlotLifetime
 4388              		.thumb
 4389              		.thumb_func
 4390              		.type	Nextion_PlotLifetime, %function
 4391              	Nextion_PlotLifetime:
 4392              	.LFB110:
  49:./Nextion_PlotLifetimeData.h ****     
  50:./Nextion_PlotLifetimeData.h ****     void Nextion_PlotLifetime(int Number, int Lifetime_ms)
  51:./Nextion_PlotLifetimeData.h ****     {
 4393              		.loc 16 51 0
 4394              		.cfi_startproc
 4395              		@ args = 0, pretend = 0, frame = 16
 4396              		@ frame_needed = 1, uses_anonymous_args = 0
 4397 0000 80B5     		push	{r7, lr}
 4398              		.cfi_def_cfa_offset 8
 4399              		.cfi_offset 7, -8
 4400              		.cfi_offset 14, -4
 4401 0002 84B0     		sub	sp, sp, #16
 4402              		.cfi_def_cfa_offset 24
 4403 0004 00AF     		add	r7, sp, #0
 4404              		.cfi_def_cfa_register 7
 4405 0006 7860     		str	r0, [r7, #4]
 4406 0008 3960     		str	r1, [r7]
  52:./Nextion_PlotLifetimeData.h ****         
  53:./Nextion_PlotLifetimeData.h ****         int tmp_x = Nextion_LifetimePlot_Settings_w * Number/g_NumberOfMeasurements  + Nextion_Life
 4407              		.loc 16 53 0
 4408 000a 7B68     		ldr	r3, [r7, #4]
 4409 000c 4FF49672 		mov	r2, #300
 4410 0010 02FB03F2 		mul	r2, r2, r3
 4411 0014 104B     		ldr	r3, .L276
ARM GAS  C:\Users\LOCALA~1\AppData\Local\Temp\ccsQji0c.s 			page 106


 4412 0016 1B68     		ldr	r3, [r3]
 4413 0018 92FBF3F3 		sdiv	r3, r2, r3
 4414 001c 6E33     		adds	r3, r3, #110
 4415 001e FB60     		str	r3, [r7, #12]
  54:./Nextion_PlotLifetimeData.h ****         int tmp_y = Nextion_LifetimePlot_Settings_h - Nextion_LifetimePlot_Settings_h * Lifetime_ms
 4416              		.loc 16 54 0
 4417 0020 3B68     		ldr	r3, [r7]
 4418 0022 C822     		movs	r2, #200
 4419 0024 02FB03F3 		mul	r3, r2, r3
 4420 0028 0C4A     		ldr	r2, .L276+4
 4421 002a 82FB0312 		smull	r1, r2, r2, r3
 4422 002e 9213     		asrs	r2, r2, #14
 4423 0030 DB17     		asrs	r3, r3, #31
 4424 0032 D21A     		subs	r2, r2, r3
 4425 0034 0A4B     		ldr	r3, .L276+8
 4426 0036 1B68     		ldr	r3, [r3]
 4427 0038 92FBF3F3 		sdiv	r3, r2, r3
 4428 003c C3F58673 		rsb	r3, r3, #268
 4429 0040 0133     		adds	r3, r3, #1
 4430 0042 BB60     		str	r3, [r7, #8]
  55:./Nextion_PlotLifetimeData.h ****         
  56:./Nextion_PlotLifetimeData.h ****         Nextion_SendFillCommand(tmp_x, tmp_y, Nextion_LifetimePlot_Settings_Fill_Width, Nextion_Lif
 4431              		.loc 16 56 0
 4432 0044 0323     		movs	r3, #3
 4433 0046 0322     		movs	r2, #3
 4434 0048 B968     		ldr	r1, [r7, #8]
 4435 004a F868     		ldr	r0, [r7, #12]
 4436 004c FFF7FEFF 		bl	Nextion_SendFillCommand
  57:./Nextion_PlotLifetimeData.h ****         
  58:./Nextion_PlotLifetimeData.h ****         
  59:./Nextion_PlotLifetimeData.h ****     }
 4437              		.loc 16 59 0
 4438 0050 00BF     		nop
 4439 0052 1037     		adds	r7, r7, #16
 4440              		.cfi_def_cfa_offset 8
 4441 0054 BD46     		mov	sp, r7
 4442              		.cfi_def_cfa_register 13
 4443              		@ sp needed
 4444 0056 80BD     		pop	{r7, pc}
 4445              	.L277:
 4446              		.align	2
 4447              	.L276:
 4448 0058 00000000 		.word	g_NumberOfMeasurements
 4449 005c 73B2E745 		.word	1172812403
 4450 0060 00000000 		.word	g_MaxMeasurementTime_min
 4451              		.cfi_endproc
 4452              	.LFE110:
 4453              		.size	Nextion_PlotLifetime, .-Nextion_PlotLifetime
 4454              		.section	.rodata
 4455 01ea 0000     		.align	2
 4456              	.LC40:
 4457 01ec 70616765 		.ascii	"page Finished\000"
 4457      2046696E 
 4457      69736865 
 4457      6400
 4458 01fa 0000     		.align	2
 4459              	.LC41:
ARM GAS  C:\Users\LOCALA~1\AppData\Local\Temp\ccsQji0c.s 			page 107


 4460 01fc 745F4D65 		.ascii	"t_Message\000"
 4460      73736167 
 4460      6500
 4461              		.section	.text.Finished,"ax",%progbits
 4462              		.align	2
 4463              		.global	Finished
 4464              		.thumb
 4465              		.thumb_func
 4466              		.type	Finished, %function
 4467              	Finished:
 4468              	.LFB111:
 4469              		.file 17 "./Finished.h"
   1:./Finished.h  **** /* ========================================
   2:./Finished.h  ****  *
   3:./Finished.h  ****  * Copyright YOUR COMPANY, THE YEAR
   4:./Finished.h  ****  * All Rights Reserved
   5:./Finished.h  ****  * UNPUBLISHED, LICENSED SOFTWARE.
   6:./Finished.h  ****  *
   7:./Finished.h  ****  * CONFIDENTIAL AND PROPRIETARY INFORMATION
   8:./Finished.h  ****  * WHICH IS THE PROPERTY OF your company.
   9:./Finished.h  ****  *
  10:./Finished.h  ****  * ========================================
  11:./Finished.h  **** */
  12:./Finished.h  **** 
  13:./Finished.h  **** #ifndef FINISHED_H
  14:./Finished.h  ****     #define FINISHED_H
  15:./Finished.h  ****     
  16:./Finished.h  ****     #include <project.h>
  17:./Finished.h  ****     #include <GlobalVariables.h>
  18:./Finished.h  ****     #include <Nextion.h>
  19:./Finished.h  ****     #include <Laser.h>
  20:./Finished.h  ****     
  21:./Finished.h  ****     
  22:./Finished.h  ****     void Finished(char* string)
  23:./Finished.h  ****     {
 4470              		.loc 17 23 0
 4471              		.cfi_startproc
 4472              		@ args = 0, pretend = 0, frame = 8
 4473              		@ frame_needed = 1, uses_anonymous_args = 0
 4474 0000 80B5     		push	{r7, lr}
 4475              		.cfi_def_cfa_offset 8
 4476              		.cfi_offset 7, -8
 4477              		.cfi_offset 14, -4
 4478 0002 82B0     		sub	sp, sp, #8
 4479              		.cfi_def_cfa_offset 16
 4480 0004 00AF     		add	r7, sp, #0
 4481              		.cfi_def_cfa_register 7
 4482 0006 7860     		str	r0, [r7, #4]
  24:./Finished.h  ****         turnAllLasersOff();
 4483              		.loc 17 24 0
 4484 0008 FFF7FEFF 		bl	turnAllLasersOff
  25:./Finished.h  ****         Nextion_SendString("page Finished");
 4485              		.loc 17 25 0
 4486 000c 0948     		ldr	r0, .L281
 4487 000e FFF7FEFF 		bl	Nextion_SendString
  26:./Finished.h  ****         Nextion_SendTextToTextBox("t_Message", string);
 4488              		.loc 17 26 0
ARM GAS  C:\Users\LOCALA~1\AppData\Local\Temp\ccsQji0c.s 			page 108


 4489 0012 7968     		ldr	r1, [r7, #4]
 4490 0014 0848     		ldr	r0, .L281+4
 4491 0016 FFF7FEFF 		bl	Nextion_SendTextToTextBox
  27:./Finished.h  ****         while(g_NextionInterrupt != BUTTON_HOME)
 4492              		.loc 17 27 0
 4493 001a 02E0     		b	.L279
 4494              	.L280:
  28:./Finished.h  ****         {
  29:./Finished.h  ****             CyDelay(1);
 4495              		.loc 17 29 0
 4496 001c 0120     		movs	r0, #1
 4497 001e FFF7FEFF 		bl	CyDelay
 4498              	.L279:
  27:./Finished.h  ****         while(g_NextionInterrupt != BUTTON_HOME)
 4499              		.loc 17 27 0
 4500 0022 064B     		ldr	r3, .L281+8
 4501 0024 1B78     		ldrb	r3, [r3]	@ zero_extendqisi2
 4502 0026 482B     		cmp	r3, #72
 4503 0028 F8D1     		bne	.L280
  30:./Finished.h  ****         }
  31:./Finished.h  ****     }
 4504              		.loc 17 31 0
 4505 002a 00BF     		nop
 4506 002c 0837     		adds	r7, r7, #8
 4507              		.cfi_def_cfa_offset 8
 4508 002e BD46     		mov	sp, r7
 4509              		.cfi_def_cfa_register 13
 4510              		@ sp needed
 4511 0030 80BD     		pop	{r7, pc}
 4512              	.L282:
 4513 0032 00BF     		.align	2
 4514              	.L281:
 4515 0034 EC010000 		.word	.LC40
 4516 0038 FC010000 		.word	.LC41
 4517 003c 00000000 		.word	g_NextionInterrupt
 4518              		.cfi_endproc
 4519              	.LFE111:
 4520              		.size	Finished, .-Finished
 4521              		.section	.rodata
 4522 0206 0000     		.align	2
 4523              	.LC42:
 4524 0208 70616765 		.ascii	"page Measurement\000"
 4524      204D6561 
 4524      73757265 
 4524      6D656E74 
 4524      00
 4525 0219 000000   		.align	2
 4526              	.LC43:
 4527 021c 6E5F4D61 		.ascii	"n_MaxLamellas\000"
 4527      784C616D 
 4527      656C6C61 
 4527      7300
 4528 022a 0000     		.align	2
 4529              	.LC44:
 4530 022c 6E5F5363 		.ascii	"n_ScalingPlot\000"
 4530      616C696E 
 4530      67506C6F 
ARM GAS  C:\Users\LOCALA~1\AppData\Local\Temp\ccsQji0c.s 			page 109


 4530      7400
 4531              		.global	__aeabi_dcmpgt
 4532 023a 0000     		.align	2
 4533              	.LC45:
 4534 023c 4C696665 		.ascii	"Life.LAM\000"
 4534      2E4C414D 
 4534      00
 4535              		.global	__aeabi_d2iz
 4536 0245 000000   		.align	2
 4537              	.LC46:
 4538 0248 6E5F5469 		.ascii	"n_Timer\000"
 4538      6D657200 
 4539              		.align	2
 4540              	.LC47:
 4541 0250 6E5F496E 		.ascii	"n_Intensity\000"
 4541      74656E73 
 4541      69747900 
 4542              		.align	2
 4543              	.LC48:
 4544 025c 6E5F5072 		.ascii	"n_Progress\000"
 4544      6F677265 
 4544      737300
 4545 0267 00       		.align	2
 4546              	.LC49:
 4547 0268 6A5F5072 		.ascii	"j_Progress\000"
 4547      6F677265 
 4547      737300
 4548 0273 00       		.align	2
 4549              	.LC50:
 4550 0274 4D656173 		.ascii	"Measurement finished!\000"
 4550      7572656D 
 4550      656E7420 
 4550      66696E69 
 4550      73686564 
 4551 028a 0000     		.align	2
 4552              	.LC51:
 4553 028c 4D656173 		.ascii	"Measurement stopped\000"
 4553      7572656D 
 4553      656E7420 
 4553      73746F70 
 4553      70656400 
 4554              		.section	.text.Measurement,"ax",%progbits
 4555              		.align	2
 4556              		.global	Measurement
 4557              		.thumb
 4558              		.thumb_func
 4559              		.type	Measurement, %function
 4560              	Measurement:
 4561              	.LFB112:
 4562              		.file 18 "./Measurement.h"
   1:./Measurement.h **** /* ========================================
   2:./Measurement.h ****  *
   3:./Measurement.h ****  * Copyright YOUR COMPANY, THE YEAR
   4:./Measurement.h ****  * All Rights Reserved
   5:./Measurement.h ****  * UNPUBLISHED, LICENSED SOFTWARE.
   6:./Measurement.h ****  *
   7:./Measurement.h ****  * CONFIDENTIAL AND PROPRIETARY INFORMATION
ARM GAS  C:\Users\LOCALA~1\AppData\Local\Temp\ccsQji0c.s 			page 110


   8:./Measurement.h ****  * WHICH IS THE PROPERTY OF your company.
   9:./Measurement.h ****  *
  10:./Measurement.h ****  * ========================================
  11:./Measurement.h **** */
  12:./Measurement.h **** 
  13:./Measurement.h **** #ifndef MEASUREMENT_H
  14:./Measurement.h ****     #define MEASUREMENT_H
  15:./Measurement.h **** 
  16:./Measurement.h ****     #include <project.h>
  17:./Measurement.h ****     #include <ADC.h>
  18:./Measurement.h ****     #include <GlobalVariables.h>
  19:./Measurement.h ****     #include <StepMotor.h>
  20:./Measurement.h ****     #include <Laser.h>
  21:./Measurement.h ****     #include <SDCard.h>
  22:./Measurement.h ****     #include <Nextion.h>
  23:./Measurement.h ****     #include <Nextion_PlotLifetimeData.h>
  24:./Measurement.h ****     #include <Finished.h>
  25:./Measurement.h ****     
  26:./Measurement.h ****     void Measurement(char const measurementMode)
  27:./Measurement.h ****     {
 4563              		.loc 18 27 0
 4564              		.cfi_startproc
 4565              		@ args = 0, pretend = 0, frame = 72
 4566              		@ frame_needed = 1, uses_anonymous_args = 0
 4567 0000 90B5     		push	{r4, r7, lr}
 4568              		.cfi_def_cfa_offset 12
 4569              		.cfi_offset 4, -12
 4570              		.cfi_offset 7, -8
 4571              		.cfi_offset 14, -4
 4572 0002 97B0     		sub	sp, sp, #92
 4573              		.cfi_def_cfa_offset 104
 4574 0004 04AF     		add	r7, sp, #16
 4575              		.cfi_def_cfa 7, 88
 4576 0006 0346     		mov	r3, r0
 4577 0008 FB71     		strb	r3, [r7, #7]
  28:./Measurement.h ****         // INIT
  29:./Measurement.h ****         Nextion_SendString("page Measurement");
 4578              		.loc 18 29 0
 4579 000a A648     		ldr	r0, .L316
 4580 000c FFF7FEFF 		bl	Nextion_SendString
  30:./Measurement.h ****         
  31:./Measurement.h ****         char LamellaPresent = 0;
 4581              		.loc 18 31 0
 4582 0010 0023     		movs	r3, #0
 4583 0012 87F84730 		strb	r3, [r7, #71]
  32:./Measurement.h ****         char LamellaRuptured = 1;           // For indication if Lamella is over max. Lifetime
 4584              		.loc 18 32 0
 4585 0016 0123     		movs	r3, #1
 4586 0018 87F84630 		strb	r3, [r7, #70]
  33:./Measurement.h ****         int CounterMeasurements = 0;
 4587              		.loc 18 33 0
 4588 001c 0023     		movs	r3, #0
 4589 001e 3B64     		str	r3, [r7, #64]
  34:./Measurement.h ****         
  35:./Measurement.h ****         int recentMeasurementStep = 0;          // Used for determining which lasers should be turn
 4590              		.loc 18 35 0
 4591 0020 0023     		movs	r3, #0
ARM GAS  C:\Users\LOCALA~1\AppData\Local\Temp\ccsQji0c.s 			page 111


 4592 0022 FB63     		str	r3, [r7, #60]
  36:./Measurement.h ****        
  37:./Measurement.h ****         Nextion_SendValueToValueBox("n_MaxLamellas", g_NumberOfMeasurements);
 4593              		.loc 18 37 0
 4594 0024 A04B     		ldr	r3, .L316+4
 4595 0026 1B68     		ldr	r3, [r3]
 4596 0028 1946     		mov	r1, r3
 4597 002a A048     		ldr	r0, .L316+8
 4598 002c FFF7FEFF 		bl	Nextion_SendValueToValueBox
  38:./Measurement.h **** 
  39:./Measurement.h ****         int ADC_Value;
  40:./Measurement.h ****         char Rupture_ConfirmationStarted = 0;
 4599              		.loc 18 40 0
 4600 0030 0023     		movs	r3, #0
 4601 0032 87F83730 		strb	r3, [r7, #55]
  41:./Measurement.h ****        
  42:./Measurement.h ****         double RuptureStart_ms = 0;
 4602              		.loc 18 42 0
 4603 0036 4FF00003 		mov	r3, #0
 4604 003a 4FF00004 		mov	r4, #0
 4605 003e C7E90A34 		strd	r3, [r7, #40]
  43:./Measurement.h ****         
  44:./Measurement.h ****         double timeOfADCValue = 0;
 4606              		.loc 18 44 0
 4607 0042 4FF00003 		mov	r3, #0
 4608 0046 4FF00004 		mov	r4, #0
 4609 004a C7E90834 		strd	r3, [r7, #32]
  45:./Measurement.h ****         
  46:./Measurement.h ****         // MAIN
  47:./Measurement.h **** 
  48:./Measurement.h ****         double MaxLifetime_ms = g_MaxMeasurementTime_min * 60 * 1000;
 4610              		.loc 18 48 0
 4611 004e 984B     		ldr	r3, .L316+12
 4612 0050 1B68     		ldr	r3, [r3]
 4613 0052 4EF66022 		movw	r2, #60000
 4614 0056 02FB03F3 		mul	r3, r2, r3
 4615 005a 1846     		mov	r0, r3
 4616 005c FFF7FEFF 		bl	__aeabi_i2d
 4617 0060 0346     		mov	r3, r0
 4618 0062 0C46     		mov	r4, r1
 4619 0064 C7E90634 		strd	r3, [r7, #24]
  49:./Measurement.h ****         Nextion_SendValueToValueBox("n_ScalingPlot", g_MaxMeasurementTime_min);
 4620              		.loc 18 49 0
 4621 0068 914B     		ldr	r3, .L316+12
 4622 006a 1B68     		ldr	r3, [r3]
 4623 006c 1946     		mov	r1, r3
 4624 006e 9148     		ldr	r0, .L316+16
 4625 0070 FFF7FEFF 		bl	Nextion_SendValueToValueBox
 4626              	.L309:
  50:./Measurement.h ****         
  51:./Measurement.h ****         while (1)
  52:./Measurement.h ****         {
  53:./Measurement.h ****             // Messung starten
  54:./Measurement.h ****             if (g_NextionInterrupt == '0')
 4627              		.loc 18 54 0
 4628 0074 904B     		ldr	r3, .L316+20
 4629 0076 1B78     		ldrb	r3, [r3]	@ zero_extendqisi2
ARM GAS  C:\Users\LOCALA~1\AppData\Local\Temp\ccsQji0c.s 			page 112


 4630 0078 302B     		cmp	r3, #48
 4631 007a 40F06A81 		bne	.L284
  55:./Measurement.h ****             {
  56:./Measurement.h ****                 if (CounterMeasurements < g_NumberOfMeasurements)
 4632              		.loc 18 56 0
 4633 007e 8A4B     		ldr	r3, .L316+4
 4634 0080 1B68     		ldr	r3, [r3]
 4635 0082 3A6C     		ldr	r2, [r7, #64]
 4636 0084 9A42     		cmp	r2, r3
 4637 0086 80F25D81 		bge	.L285
  57:./Measurement.h ****                 {
  58:./Measurement.h ****     
  59:./Measurement.h ****                     if (LamellaPresent)
 4638              		.loc 18 59 0
 4639 008a 97F84730 		ldrb	r3, [r7, #71]	@ zero_extendqisi2
 4640 008e 002B     		cmp	r3, #0
 4641 0090 00F0EF80 		beq	.L286
  60:./Measurement.h ****                     {
  61:./Measurement.h ****                         if (v_timerflag_Measurement)
 4642              		.loc 18 61 0
 4643 0094 894B     		ldr	r3, .L316+24
 4644 0096 1B68     		ldr	r3, [r3]
 4645 0098 002B     		cmp	r3, #0
 4646 009a 00F0A580 		beq	.L287
  62:./Measurement.h ****                         {
  63:./Measurement.h ****                             v_timerflag_Measurement = 0;
 4647              		.loc 18 63 0
 4648 009e 874B     		ldr	r3, .L316+24
 4649 00a0 0022     		movs	r2, #0
 4650 00a2 1A60     		str	r2, [r3]
  64:./Measurement.h ****                             
  65:./Measurement.h ****                             // Messung durchfhren
  66:./Measurement.h ****                              if (v_timer_Lifetime_ms > MaxLifetime_ms)
 4651              		.loc 18 66 0
 4652 00a4 864B     		ldr	r3, .L316+28
 4653 00a6 D3E90001 		ldrd	r0, [r3]
 4654 00aa D7E90623 		ldrd	r2, [r7, #24]
 4655 00ae FFF7FEFF 		bl	__aeabi_dcmpgt
 4656 00b2 0346     		mov	r3, r0
 4657 00b4 002B     		cmp	r3, #0
 4658 00b6 06D0     		beq	.L314
  67:./Measurement.h ****                             {
  68:./Measurement.h ****                                 LamellaPresent = 0;             // Arbitrary rupture of lamella
 4659              		.loc 18 68 0
 4660 00b8 0023     		movs	r3, #0
 4661 00ba 87F84730 		strb	r3, [r7, #71]
  69:./Measurement.h ****                                 LamellaRuptured = 0;
 4662              		.loc 18 69 0
 4663 00be 0023     		movs	r3, #0
 4664 00c0 87F84630 		strb	r3, [r7, #70]
 4665 00c4 5CE0     		b	.L290
 4666              	.L314:
  70:./Measurement.h ****                             }
  71:./Measurement.h ****                             else
  72:./Measurement.h ****                             {
  73:./Measurement.h ****                                 LamellaRuptured = 1;
 4667              		.loc 18 73 0
ARM GAS  C:\Users\LOCALA~1\AppData\Local\Temp\ccsQji0c.s 			page 113


 4668 00c6 0123     		movs	r3, #1
 4669 00c8 87F84630 		strb	r3, [r7, #70]
  74:./Measurement.h ****                                 ADC_Value = GetADCValue();
 4670              		.loc 18 74 0
 4671 00cc FFF7FEFF 		bl	GetADCValue
 4672 00d0 0346     		mov	r3, r0
 4673 00d2 BB63     		str	r3, [r7, #56]
  75:./Measurement.h ****                                 timeOfADCValue = v_timer_Lifetime_ms;
 4674              		.loc 18 75 0
 4675 00d4 7A4B     		ldr	r3, .L316+28
 4676 00d6 18CB     		ldmia	r3, {r3-r4}
 4677 00d8 C7E90834 		strd	r3, [r7, #32]
  76:./Measurement.h ****                                 
  77:./Measurement.h ****                                 if (ADC_Value < g_ThresholdValue_mV)
 4678              		.loc 18 77 0
 4679 00dc 794B     		ldr	r3, .L316+32
 4680 00de 1B68     		ldr	r3, [r3]
 4681 00e0 BA6B     		ldr	r2, [r7, #56]
 4682 00e2 9A42     		cmp	r2, r3
 4683 00e4 03DA     		bge	.L291
  78:./Measurement.h ****                                 {
  79:./Measurement.h ****                                     Rupture_ConfirmationStarted = 1;   
 4684              		.loc 18 79 0
 4685 00e6 0123     		movs	r3, #1
 4686 00e8 87F83730 		strb	r3, [r7, #55]
 4687 00ec 02E0     		b	.L292
 4688              	.L291:
  80:./Measurement.h ****                                 }
  81:./Measurement.h ****                                 else
  82:./Measurement.h ****                                 {
  83:./Measurement.h ****                                     Rupture_ConfirmationStarted = 0;
 4689              		.loc 18 83 0
 4690 00ee 0023     		movs	r3, #0
 4691 00f0 87F83730 		strb	r3, [r7, #55]
 4692              	.L292:
  84:./Measurement.h ****                                 }
  85:./Measurement.h ****                                 
  86:./Measurement.h ****                                 if (v_timer_Lifetime_ms < g_RelaxationTime_ms)
 4693              		.loc 18 86 0
 4694 00f4 744B     		ldr	r3, .L316+36
 4695 00f6 1B68     		ldr	r3, [r3]
 4696 00f8 1846     		mov	r0, r3
 4697 00fa FFF7FEFF 		bl	__aeabi_i2d
 4698 00fe 704B     		ldr	r3, .L316+28
 4699 0100 18CB     		ldmia	r3, {r3-r4}
 4700 0102 1A46     		mov	r2, r3
 4701 0104 2346     		mov	r3, r4
 4702 0106 FFF7FEFF 		bl	__aeabi_dcmpgt
 4703 010a 0346     		mov	r3, r0
 4704 010c 002B     		cmp	r3, #0
 4705 010e 02D0     		beq	.L293
  87:./Measurement.h ****                                 {
  88:./Measurement.h ****                                     Rupture_ConfirmationStarted = 0;
 4706              		.loc 18 88 0
 4707 0110 0023     		movs	r3, #0
 4708 0112 87F83730 		strb	r3, [r7, #55]
 4709              	.L293:
ARM GAS  C:\Users\LOCALA~1\AppData\Local\Temp\ccsQji0c.s 			page 114


  89:./Measurement.h ****                                 } 
  90:./Measurement.h ****                                 if (Rupture_ConfirmationStarted)
 4710              		.loc 18 90 0
 4711 0116 97F83730 		ldrb	r3, [r7, #55]	@ zero_extendqisi2
 4712 011a 002B     		cmp	r3, #0
 4713 011c 2AD0     		beq	.L295
 4714              	.LBB12:
  91:./Measurement.h ****                                 {
  92:./Measurement.h ****                                     double DiffMeasurementRupture = v_timer_Lifetime_ms - RuptureSt
 4715              		.loc 18 92 0
 4716 011e 684B     		ldr	r3, .L316+28
 4717 0120 D3E90001 		ldrd	r0, [r3]
 4718 0124 D7E90A23 		ldrd	r2, [r7, #40]
 4719 0128 FFF7FEFF 		bl	__aeabi_dsub
 4720 012c 0346     		mov	r3, r0
 4721 012e 0C46     		mov	r4, r1
 4722 0130 C7E90434 		strd	r3, [r7, #16]
  93:./Measurement.h ****                                     if (RuptureStart_ms == 0)   
 4723              		.loc 18 93 0
 4724 0134 4FF00002 		mov	r2, #0
 4725 0138 4FF00003 		mov	r3, #0
 4726 013c D7E90A01 		ldrd	r0, [r7, #40]
 4727 0140 FFF7FEFF 		bl	__aeabi_dcmpeq
 4728 0144 0346     		mov	r3, r0
 4729 0146 002B     		cmp	r3, #0
 4730 0148 04D0     		beq	.L315
  94:./Measurement.h ****                                     {
  95:./Measurement.h ****                                         RuptureStart_ms = v_timer_Lifetime_ms;
 4731              		.loc 18 95 0
 4732 014a 5D4B     		ldr	r3, .L316+28
 4733 014c 18CB     		ldmia	r3, {r3-r4}
 4734 014e C7E90A34 		strd	r3, [r7, #40]
 4735 0152 15E0     		b	.L290
 4736              	.L315:
  96:./Measurement.h ****                                     }
  97:./Measurement.h ****                                     else if (DiffMeasurementRupture > g_ConfirmationTime_ms){
 4737              		.loc 18 97 0
 4738 0154 5D4B     		ldr	r3, .L316+40
 4739 0156 1B68     		ldr	r3, [r3]
 4740 0158 1846     		mov	r0, r3
 4741 015a FFF7FEFF 		bl	__aeabi_i2d
 4742 015e D7E90423 		ldrd	r2, [r7, #16]
 4743 0162 FFF7FEFF 		bl	__aeabi_dcmplt
 4744 0166 0346     		mov	r3, r0
 4745 0168 002B     		cmp	r3, #0
 4746 016a 09D0     		beq	.L290
  98:./Measurement.h ****                                         LamellaPresent = 0;
 4747              		.loc 18 98 0
 4748 016c 0023     		movs	r3, #0
 4749 016e 87F84730 		strb	r3, [r7, #71]
 4750 0172 05E0     		b	.L290
 4751              	.L295:
 4752              	.LBE12:
  99:./Measurement.h ****                                         // Lamella ruptured
 100:./Measurement.h ****                                     }
 101:./Measurement.h ****                                 }
 102:./Measurement.h ****                                 else
ARM GAS  C:\Users\LOCALA~1\AppData\Local\Temp\ccsQji0c.s 			page 115


 103:./Measurement.h ****                                 {
 104:./Measurement.h ****                                     RuptureStart_ms = 0; // Reset of Timer necessary   
 4753              		.loc 18 104 0
 4754 0174 4FF00003 		mov	r3, #0
 4755 0178 4FF00004 		mov	r4, #0
 4756 017c C7E90A34 		strd	r3, [r7, #40]
 4757              	.L290:
 105:./Measurement.h ****                                 }
 106:./Measurement.h ****                                 
 107:./Measurement.h ****                             }
 108:./Measurement.h ****                             // Datenpunkt speichern -> SD Karte
 109:./Measurement.h ****                             
 110:./Measurement.h ****                             if (g_DataLogging)
 4758              		.loc 18 110 0
 4759 0180 534B     		ldr	r3, .L316+44
 4760 0182 1B78     		ldrb	r3, [r3]	@ zero_extendqisi2
 4761 0184 002B     		cmp	r3, #0
 4762 0186 0FD0     		beq	.L300
 111:./Measurement.h ****                             {
 112:./Measurement.h ****                                 LogIntensity(CounterMeasurements, LaserState1, LaserState2, LaserSt
 4763              		.loc 18 112 0
 4764 0188 524B     		ldr	r3, .L316+48
 4765 018a 1978     		ldrb	r1, [r3]	@ zero_extendqisi2
 4766 018c 524B     		ldr	r3, .L316+52
 4767 018e 1A78     		ldrb	r2, [r3]	@ zero_extendqisi2
 4768 0190 524B     		ldr	r3, .L316+56
 4769 0192 1878     		ldrb	r0, [r3]	@ zero_extendqisi2
 4770 0194 BB6B     		ldr	r3, [r7, #56]
 4771 0196 0293     		str	r3, [sp, #8]
 4772 0198 D7E90834 		ldrd	r3, [r7, #32]
 4773 019c CDE90034 		strd	r3, [sp]
 4774 01a0 0346     		mov	r3, r0
 4775 01a2 386C     		ldr	r0, [r7, #64]
 4776 01a4 FFF7FEFF 		bl	LogIntensity
 4777              	.L300:
 113:./Measurement.h ****                             }
 114:./Measurement.h ****                             
 115:./Measurement.h ****                             if (LamellaPresent == 0)
 4778              		.loc 18 115 0
 4779 01a8 97F84730 		ldrb	r3, [r7, #71]	@ zero_extendqisi2
 4780 01ac 002B     		cmp	r3, #0
 4781 01ae 1BD1     		bne	.L287
 116:./Measurement.h ****                             {
 117:./Measurement.h ****                                 // Only happens if lamella ruptures (normally or arbitrary)
 118:./Measurement.h ****                              
 119:./Measurement.h ****                                 if (measurementMode != 'T')
 4782              		.loc 18 119 0
 4783 01b0 FB79     		ldrb	r3, [r7, #7]	@ zero_extendqisi2
 4784 01b2 542B     		cmp	r3, #84
 4785 01b4 0AD0     		beq	.L301
 120:./Measurement.h ****                                 {
 121:./Measurement.h ****                                     LogLifetime("Life.LAM", CounterMeasurements, v_timer_Lifetime_m
 4786              		.loc 18 121 0
 4787 01b6 424B     		ldr	r3, .L316+28
 4788 01b8 18CB     		ldmia	r3, {r3-r4}
 4789 01ba 97F84620 		ldrb	r2, [r7, #70]	@ zero_extendqisi2
 4790 01be 0092     		str	r2, [sp]
ARM GAS  C:\Users\LOCALA~1\AppData\Local\Temp\ccsQji0c.s 			page 116


 4791 01c0 1A46     		mov	r2, r3
 4792 01c2 2346     		mov	r3, r4
 4793 01c4 396C     		ldr	r1, [r7, #64]
 4794 01c6 4648     		ldr	r0, .L316+60
 4795 01c8 FFF7FEFF 		bl	LogLifetime
 4796              	.L301:
 122:./Measurement.h ****                                 }
 123:./Measurement.h ****                                 Nextion_PlotLifetime(CounterMeasurements, v_timer_Lifetime_ms);
 4797              		.loc 18 123 0
 4798 01cc 3C4B     		ldr	r3, .L316+28
 4799 01ce 18CB     		ldmia	r3, {r3-r4}
 4800 01d0 1846     		mov	r0, r3
 4801 01d2 2146     		mov	r1, r4
 4802 01d4 FFF7FEFF 		bl	__aeabi_d2iz
 4803 01d8 0346     		mov	r3, r0
 4804 01da 1946     		mov	r1, r3
 4805 01dc 386C     		ldr	r0, [r7, #64]
 4806 01de FFF7FEFF 		bl	Nextion_PlotLifetime
 124:./Measurement.h ****                                 ++CounterMeasurements;
 4807              		.loc 18 124 0
 4808 01e2 3B6C     		ldr	r3, [r7, #64]
 4809 01e4 0133     		adds	r3, r3, #1
 4810 01e6 3B64     		str	r3, [r7, #64]
 4811              	.L287:
 125:./Measurement.h ****                             }
 126:./Measurement.h ****                         }
 127:./Measurement.h ****                         
 128:./Measurement.h ****                         if (v_timerflag_500ms)
 4812              		.loc 18 128 0
 4813 01e8 3E4B     		ldr	r3, .L316+64
 4814 01ea 1B68     		ldr	r3, [r3]
 4815 01ec 002B     		cmp	r3, #0
 4816 01ee 11D0     		beq	.L302
 129:./Measurement.h ****                         {
 130:./Measurement.h ****                             v_timerflag_500ms = 0;
 4817              		.loc 18 130 0
 4818 01f0 3C4B     		ldr	r3, .L316+64
 4819 01f2 0022     		movs	r2, #0
 4820 01f4 1A60     		str	r2, [r3]
 131:./Measurement.h ****                             Nextion_SendValueToValueBox("n_Timer", v_timer_Lifetime_ms);
 4821              		.loc 18 131 0
 4822 01f6 324B     		ldr	r3, .L316+28
 4823 01f8 18CB     		ldmia	r3, {r3-r4}
 4824 01fa 1846     		mov	r0, r3
 4825 01fc 2146     		mov	r1, r4
 4826 01fe FFF7FEFF 		bl	__aeabi_d2iz
 4827 0202 0346     		mov	r3, r0
 4828 0204 1946     		mov	r1, r3
 4829 0206 3848     		ldr	r0, .L316+68
 4830 0208 FFF7FEFF 		bl	Nextion_SendValueToValueBox
 132:./Measurement.h ****                             Nextion_SendValueToValueBox("n_Intensity", ADC_Value);
 4831              		.loc 18 132 0
 4832 020c B96B     		ldr	r1, [r7, #56]
 4833 020e 3748     		ldr	r0, .L316+72
 4834 0210 FFF7FEFF 		bl	Nextion_SendValueToValueBox
 4835              	.L302:
 133:./Measurement.h ****                         }
ARM GAS  C:\Users\LOCALA~1\AppData\Local\Temp\ccsQji0c.s 			page 117


 134:./Measurement.h ****                         
 135:./Measurement.h ****                         if (v_timerflag_LaserSwitch)
 4836              		.loc 18 135 0
 4837 0214 364B     		ldr	r3, .L316+76
 4838 0216 1B68     		ldr	r3, [r3]
 4839 0218 002B     		cmp	r3, #0
 4840 021a 00F09A80 		beq	.L284
 136:./Measurement.h ****                         {
 137:./Measurement.h ****                             v_timerflag_LaserSwitch = 0;
 4841              		.loc 18 137 0
 4842 021e 344B     		ldr	r3, .L316+76
 4843 0220 0022     		movs	r2, #0
 4844 0222 1A60     		str	r2, [r3]
 138:./Measurement.h ****                             
 139:./Measurement.h ****                             v_timer_Measurement = 0;
 4845              		.loc 18 139 0
 4846 0224 334B     		ldr	r3, .L316+80
 4847 0226 0022     		movs	r2, #0
 4848 0228 1A60     		str	r2, [r3]
 140:./Measurement.h ****                             v_timerflag_Measurement = 0;
 4849              		.loc 18 140 0
 4850 022a 244B     		ldr	r3, .L316+24
 4851 022c 0022     		movs	r2, #0
 4852 022e 1A60     		str	r2, [r3]
 141:./Measurement.h ****                             
 142:./Measurement.h ****                             Laser1(g_measurementLasers[0][recentMeasurementStep]);
 4853              		.loc 18 142 0
 4854 0230 314A     		ldr	r2, .L316+84
 4855 0232 FB6B     		ldr	r3, [r7, #60]
 4856 0234 1344     		add	r3, r3, r2
 4857 0236 1B78     		ldrb	r3, [r3]	@ zero_extendqisi2
 4858 0238 1846     		mov	r0, r3
 4859 023a FFF7FEFF 		bl	Laser1
 143:./Measurement.h ****                             Laser2(g_measurementLasers[1][recentMeasurementStep]);
 4860              		.loc 18 143 0
 4861 023e 2E4A     		ldr	r2, .L316+84
 4862 0240 FB6B     		ldr	r3, [r7, #60]
 4863 0242 1344     		add	r3, r3, r2
 4864 0244 0433     		adds	r3, r3, #4
 4865 0246 1B78     		ldrb	r3, [r3]	@ zero_extendqisi2
 4866 0248 1846     		mov	r0, r3
 4867 024a FFF7FEFF 		bl	Laser2
 144:./Measurement.h ****                             Laser3(g_measurementLasers[2][recentMeasurementStep]);
 4868              		.loc 18 144 0
 4869 024e 2A4A     		ldr	r2, .L316+84
 4870 0250 FB6B     		ldr	r3, [r7, #60]
 4871 0252 1344     		add	r3, r3, r2
 4872 0254 0833     		adds	r3, r3, #8
 4873 0256 1B78     		ldrb	r3, [r3]	@ zero_extendqisi2
 4874 0258 1846     		mov	r0, r3
 4875 025a FFF7FEFF 		bl	Laser3
 145:./Measurement.h ****                             ++recentMeasurementStep;
 4876              		.loc 18 145 0
 4877 025e FB6B     		ldr	r3, [r7, #60]
 4878 0260 0133     		adds	r3, r3, #1
 4879 0262 FB63     		str	r3, [r7, #60]
 146:./Measurement.h ****                             if (recentMeasurementStep >= MAXMEASUREMENTSTEPS)
ARM GAS  C:\Users\LOCALA~1\AppData\Local\Temp\ccsQji0c.s 			page 118


 4880              		.loc 18 146 0
 4881 0264 0422     		movs	r2, #4
 4882 0266 FB6B     		ldr	r3, [r7, #60]
 4883 0268 9342     		cmp	r3, r2
 4884 026a 72DB     		blt	.L284
 147:./Measurement.h ****                             {
 148:./Measurement.h ****                                 recentMeasurementStep = 0;
 4885              		.loc 18 148 0
 4886 026c 0023     		movs	r3, #0
 4887 026e FB63     		str	r3, [r7, #60]
 4888 0270 6FE0     		b	.L284
 4889              	.L286:
 4890              	.LBB13:
 149:./Measurement.h ****                             } 
 150:./Measurement.h ****                         }
 151:./Measurement.h ****                     }
 152:./Measurement.h ****                     else
 153:./Measurement.h ****                     {
 154:./Measurement.h ****                         turnAllLasersOff();
 4891              		.loc 18 154 0
 4892 0272 FFF7FEFF 		bl	turnAllLasersOff
 155:./Measurement.h ****                         
 156:./Measurement.h ****                         Nextion_SendValueToValueBox("n_Progress", CounterMeasurements); // Send rec
 4893              		.loc 18 156 0
 4894 0276 396C     		ldr	r1, [r7, #64]
 4895 0278 2048     		ldr	r0, .L316+88
 4896 027a FFF7FEFF 		bl	Nextion_SendValueToValueBox
 157:./Measurement.h ****                         int ProgressInPercent = (int)(100 * CounterMeasurements / g_NumberOfMeasure
 4897              		.loc 18 157 0
 4898 027e 3B6C     		ldr	r3, [r7, #64]
 4899 0280 6422     		movs	r2, #100
 4900 0282 02FB03F2 		mul	r2, r2, r3
 4901 0286 084B     		ldr	r3, .L316+4
 4902 0288 1B68     		ldr	r3, [r3]
 4903 028a 92FBF3F3 		sdiv	r3, r2, r3
 4904 028e FB60     		str	r3, [r7, #12]
 158:./Measurement.h ****                         Nextion_SendValueToValueBox("j_Progress", ProgressInPercent);
 4905              		.loc 18 158 0
 4906 0290 F968     		ldr	r1, [r7, #12]
 4907 0292 1B48     		ldr	r0, .L316+92
 4908 0294 FFF7FEFF 		bl	Nextion_SendValueToValueBox
 159:./Measurement.h ****                         Move90DegreeCW();           
 4909              		.loc 18 159 0
 4910 0298 FFF7FEFF 		bl	Move90DegreeCW
 160:./Measurement.h ****                         v_timer_waiting = 0;
 4911              		.loc 18 160 0
 4912 029c 194B     		ldr	r3, .L316+96
 4913 029e 0022     		movs	r2, #0
 4914 02a0 1A60     		str	r2, [r3]
 161:./Measurement.h ****                         while (v_timer_waiting < g_FormationTime_ms)
 4915              		.loc 18 161 0
 4916 02a2 34E0     		b	.L305
 4917              	.L317:
 4918              		.align	2
 4919              	.L316:
 4920 02a4 08020000 		.word	.LC42
 4921 02a8 00000000 		.word	g_NumberOfMeasurements
ARM GAS  C:\Users\LOCALA~1\AppData\Local\Temp\ccsQji0c.s 			page 119


 4922 02ac 1C020000 		.word	.LC43
 4923 02b0 00000000 		.word	g_MaxMeasurementTime_min
 4924 02b4 2C020000 		.word	.LC44
 4925 02b8 00000000 		.word	g_NextionInterrupt
 4926 02bc 00000000 		.word	v_timerflag_Measurement
 4927 02c0 00000000 		.word	v_timer_Lifetime_ms
 4928 02c4 00000000 		.word	g_ThresholdValue_mV
 4929 02c8 00000000 		.word	g_RelaxationTime_ms
 4930 02cc 00000000 		.word	g_ConfirmationTime_ms
 4931 02d0 00000000 		.word	g_DataLogging
 4932 02d4 00000000 		.word	LaserState1
 4933 02d8 00000000 		.word	LaserState2
 4934 02dc 00000000 		.word	LaserState3
 4935 02e0 3C020000 		.word	.LC45
 4936 02e4 00000000 		.word	v_timerflag_500ms
 4937 02e8 48020000 		.word	.LC46
 4938 02ec 50020000 		.word	.LC47
 4939 02f0 00000000 		.word	v_timerflag_LaserSwitch
 4940 02f4 00000000 		.word	v_timer_Measurement
 4941 02f8 00000000 		.word	g_measurementLasers
 4942 02fc 5C020000 		.word	.LC48
 4943 0300 68020000 		.word	.LC49
 4944 0304 00000000 		.word	v_timer_waiting
 4945              	.L306:
 162:./Measurement.h ****                         {
 163:./Measurement.h ****                             CyDelay(10);
 4946              		.loc 18 163 0
 4947 0308 0A20     		movs	r0, #10
 4948 030a FFF7FEFF 		bl	CyDelay
 4949              	.L305:
 161:./Measurement.h ****                         while (v_timer_waiting < g_FormationTime_ms)
 4950              		.loc 18 161 0
 4951 030e 184B     		ldr	r3, .L318
 4952 0310 1A68     		ldr	r2, [r3]
 4953 0312 184B     		ldr	r3, .L318+4
 4954 0314 1B68     		ldr	r3, [r3]
 4955 0316 9A42     		cmp	r2, r3
 4956 0318 F6DB     		blt	.L306
 164:./Measurement.h ****                         }
 165:./Measurement.h ****                         Move90DegreeCCW();
 4957              		.loc 18 165 0
 4958 031a FFF7FEFF 		bl	Move90DegreeCCW
 166:./Measurement.h ****                         LamellaPresent = 1;
 4959              		.loc 18 166 0
 4960 031e 0123     		movs	r3, #1
 4961 0320 87F84730 		strb	r3, [r7, #71]
 167:./Measurement.h ****                         v_timer_Lifetime_ms = 0;
 4962              		.loc 18 167 0
 4963 0324 144A     		ldr	r2, .L318+8
 4964 0326 4FF00003 		mov	r3, #0
 4965 032a 4FF00004 		mov	r4, #0
 4966 032e C2E90034 		strd	r3, [r2]
 168:./Measurement.h ****                         v_timer_LaserSwitch = 0;
 4967              		.loc 18 168 0
 4968 0332 124B     		ldr	r3, .L318+12
 4969 0334 0022     		movs	r2, #0
 4970 0336 1A60     		str	r2, [r3]
ARM GAS  C:\Users\LOCALA~1\AppData\Local\Temp\ccsQji0c.s 			page 120


 169:./Measurement.h ****                         v_timer_Measurement = 0;
 4971              		.loc 18 169 0
 4972 0338 114B     		ldr	r3, .L318+16
 4973 033a 0022     		movs	r2, #0
 4974 033c 1A60     		str	r2, [r3]
 170:./Measurement.h ****                         recentMeasurementStep = 0;
 4975              		.loc 18 170 0
 4976 033e 0023     		movs	r3, #0
 4977 0340 FB63     		str	r3, [r7, #60]
 4978 0342 06E0     		b	.L284
 4979              	.L285:
 4980              	.LBE13:
 171:./Measurement.h ****                         
 172:./Measurement.h ****                     }
 173:./Measurement.h ****                 }
 174:./Measurement.h ****                 else
 175:./Measurement.h ****                 {
 176:./Measurement.h ****                     g_NextionInterrupt = '0';
 4981              		.loc 18 176 0
 4982 0344 0F4B     		ldr	r3, .L318+20
 4983 0346 3022     		movs	r2, #48
 4984 0348 1A70     		strb	r2, [r3]
 177:./Measurement.h ****                     Finished("Measurement finished!");
 4985              		.loc 18 177 0
 4986 034a 0F48     		ldr	r0, .L318+24
 4987 034c FFF7FEFF 		bl	Finished
 178:./Measurement.h ****                     break;
 4988              		.loc 18 178 0
 4989 0350 0AE0     		b	.L307
 4990              	.L284:
 179:./Measurement.h ****                 }
 180:./Measurement.h ****             }  
 181:./Measurement.h ****             
 182:./Measurement.h ****             if (g_NextionInterrupt == BUTTON_STOP)
 4991              		.loc 18 182 0
 4992 0352 0C4B     		ldr	r3, .L318+20
 4993 0354 1B78     		ldrb	r3, [r3]	@ zero_extendqisi2
 4994 0356 532B     		cmp	r3, #83
 4995 0358 7FF48CAE 		bne	.L309
 183:./Measurement.h ****             {
 184:./Measurement.h ****                 //Messstop
 185:./Measurement.h ****                 g_NextionInterrupt = '0';
 4996              		.loc 18 185 0
 4997 035c 094B     		ldr	r3, .L318+20
 4998 035e 3022     		movs	r2, #48
 4999 0360 1A70     		strb	r2, [r3]
 186:./Measurement.h ****                 Finished("Measurement stopped");
 5000              		.loc 18 186 0
 5001 0362 0A48     		ldr	r0, .L318+28
 5002 0364 FFF7FEFF 		bl	Finished
 5003              	.L307:
 187:./Measurement.h ****                 break;
 188:./Measurement.h ****             }
 189:./Measurement.h ****         }
 190:./Measurement.h ****     }
 5004              		.loc 18 190 0
 5005 0368 00BF     		nop
ARM GAS  C:\Users\LOCALA~1\AppData\Local\Temp\ccsQji0c.s 			page 121


 5006 036a 4C37     		adds	r7, r7, #76
 5007              		.cfi_def_cfa_offset 12
 5008 036c BD46     		mov	sp, r7
 5009              		.cfi_def_cfa_register 13
 5010              		@ sp needed
 5011 036e 90BD     		pop	{r4, r7, pc}
 5012              	.L319:
 5013              		.align	2
 5014              	.L318:
 5015 0370 00000000 		.word	v_timer_waiting
 5016 0374 00000000 		.word	g_FormationTime_ms
 5017 0378 00000000 		.word	v_timer_Lifetime_ms
 5018 037c 00000000 		.word	v_timer_LaserSwitch
 5019 0380 00000000 		.word	v_timer_Measurement
 5020 0384 00000000 		.word	g_NextionInterrupt
 5021 0388 74020000 		.word	.LC50
 5022 038c 8C020000 		.word	.LC51
 5023              		.cfi_endproc
 5024              	.LFE112:
 5025              		.size	Measurement, .-Measurement
 5026              		.section	.rodata
 5027              		.align	2
 5028              	.LC52:
 5029 02a0 70616765 		.ascii	"page Test\000"
 5029      20546573 
 5029      7400
 5030 02aa 0000     		.align	2
 5031              	.LC53:
 5032 02ac 705F5374 		.ascii	"p_StepMotor.pic=1\000"
 5032      65704D6F 
 5032      746F722E 
 5032      7069633D 
 5032      3100
 5033 02be 0000     		.align	2
 5034              	.LC54:
 5035 02c0 705F5344 		.ascii	"p_SD.pic=1\000"
 5035      2E706963 
 5035      3D3100
 5036 02cb 00       		.align	2
 5037              	.LC55:
 5038 02cc 705F4C31 		.ascii	"p_L1.pic=1\000"
 5038      2E706963 
 5038      3D3100
 5039 02d7 00       		.align	2
 5040              	.LC56:
 5041 02d8 705F4C32 		.ascii	"p_L2.pic=1\000"
 5041      2E706963 
 5041      3D3100
 5042 02e3 00       		.align	2
 5043              	.LC57:
 5044 02e4 705F4C33 		.ascii	"p_L3.pic=1\000"
 5044      2E706963 
 5044      3D3100
 5045 02ef 00       		.align	2
 5046              	.LC58:
 5047 02f0 705F5344 		.ascii	"p_SDSpeed.pic=1\000"
 5047      53706565 
ARM GAS  C:\Users\LOCALA~1\AppData\Local\Temp\ccsQji0c.s 			page 122


 5047      642E7069 
 5047      633D3100 
 5048              		.align	2
 5049              	.LC59:
 5050 0300 705F5374 		.ascii	"p_StepMotor.pic=2\000"
 5050      65704D6F 
 5050      746F722E 
 5050      7069633D 
 5050      3200
 5051 0312 0000     		.align	2
 5052              	.LC60:
 5053 0314 705F5374 		.ascii	"p_StepMotor.pic=0\000"
 5053      65704D6F 
 5053      746F722E 
 5053      7069633D 
 5053      3000
 5054 0326 0000     		.align	2
 5055              	.LC61:
 5056 0328 705F5344 		.ascii	"p_SD.pic=2\000"
 5056      2E706963 
 5056      3D3200
 5057 0333 00       		.align	2
 5058              	.LC62:
 5059 0334 54657374 		.ascii	"Test.txt\000"
 5059      2E747874 
 5059      00
 5060 033d 000000   		.align	2
 5061              	.LC63:
 5062 0340 705F5344 		.ascii	"p_SD.pic=0\000"
 5062      2E706963 
 5062      3D3000
 5063 034b 00       		.align	2
 5064              	.LC64:
 5065 034c 705F4C31 		.ascii	"p_L1.pic=0\000"
 5065      2E706963 
 5065      3D3000
 5066 0357 00       		.align	2
 5067              	.LC65:
 5068 0358 705F4C31 		.ascii	"p_L1.pic=2\000"
 5068      2E706963 
 5068      3D3200
 5069 0363 00       		.align	2
 5070              	.LC66:
 5071 0364 705F4C32 		.ascii	"p_L2.pic=0\000"
 5071      2E706963 
 5071      3D3000
 5072 036f 00       		.align	2
 5073              	.LC67:
 5074 0370 705F4C32 		.ascii	"p_L2.pic=2\000"
 5074      2E706963 
 5074      3D3200
 5075 037b 00       		.align	2
 5076              	.LC68:
 5077 037c 705F4C33 		.ascii	"p_L3.pic=0\000"
 5077      2E706963 
 5077      3D3000
 5078 0387 00       		.align	2
ARM GAS  C:\Users\LOCALA~1\AppData\Local\Temp\ccsQji0c.s 			page 123


 5079              	.LC69:
 5080 0388 705F4C33 		.ascii	"p_L3.pic=2\000"
 5080      2E706963 
 5080      3D3200
 5081 0393 00       		.align	2
 5082              	.LC70:
 5083 0394 705F5344 		.ascii	"p_SDSpeed.pic=2\000"
 5083      53706565 
 5083      642E7069 
 5083      633D3200 
 5084              		.align	2
 5085              	.LC71:
 5086 03a4 705F5344 		.ascii	"p_SDSpeed.pic=0\000"
 5086      53706565 
 5086      642E7069 
 5086      633D3000 
 5087              		.section	.text.Test,"ax",%progbits
 5088              		.align	2
 5089              		.global	Test
 5090              		.thumb
 5091              		.thumb_func
 5092              		.type	Test, %function
 5093              	Test:
 5094              	.LFB113:
 5095              		.file 19 "./Test.h"
   1:./Test.h      **** /* ========================================
   2:./Test.h      ****  *
   3:./Test.h      ****  * Copyright YOUR COMPANY, THE YEAR
   4:./Test.h      ****  * All Rights Reserved
   5:./Test.h      ****  * UNPUBLISHED, LICENSED SOFTWARE.
   6:./Test.h      ****  *
   7:./Test.h      ****  * CONFIDENTIAL AND PROPRIETARY INFORMATION
   8:./Test.h      ****  * WHICH IS THE PROPERTY OF your company.
   9:./Test.h      ****  *
  10:./Test.h      ****  * ========================================
  11:./Test.h      **** */
  12:./Test.h      **** 
  13:./Test.h      **** #ifndef TEST_H
  14:./Test.h      ****     #define TEST_H
  15:./Test.h      ****     
  16:./Test.h      ****     #include <project.h>
  17:./Test.h      ****     #include <Laser.h>
  18:./Test.h      ****     #include <GlobalVariables.h>
  19:./Test.h      ****     #include <StepMotor.h>
  20:./Test.h      ****     #include <SDCard.h>
  21:./Test.h      ****     
  22:./Test.h      ****     
  23:./Test.h      ****     void Test()
  24:./Test.h      ****     {
 5096              		.loc 19 24 0
 5097              		.cfi_startproc
 5098              		@ args = 0, pretend = 0, frame = 8
 5099              		@ frame_needed = 1, uses_anonymous_args = 0
 5100 0000 90B5     		push	{r4, r7, lr}
 5101              		.cfi_def_cfa_offset 12
 5102              		.cfi_offset 4, -12
 5103              		.cfi_offset 7, -8
ARM GAS  C:\Users\LOCALA~1\AppData\Local\Temp\ccsQji0c.s 			page 124


 5104              		.cfi_offset 14, -4
 5105 0002 87B0     		sub	sp, sp, #28
 5106              		.cfi_def_cfa_offset 40
 5107 0004 04AF     		add	r7, sp, #16
 5108              		.cfi_def_cfa 7, 24
  25:./Test.h      ****         // INIT
  26:./Test.h      ****         g_ActivePage = 'Z';
 5109              		.loc 19 26 0
 5110 0006 854B     		ldr	r3, .L342
 5111 0008 5A22     		movs	r2, #90
 5112 000a 1A70     		strb	r2, [r3]
  27:./Test.h      ****         Nextion_SendString("page Test");
 5113              		.loc 19 27 0
 5114 000c 8448     		ldr	r0, .L342+4
 5115 000e FFF7FEFF 		bl	Nextion_SendString
  28:./Test.h      ****         
  29:./Test.h      ****         CyDelay(100);
 5116              		.loc 19 29 0
 5117 0012 6420     		movs	r0, #100
 5118 0014 FFF7FEFF 		bl	CyDelay
  30:./Test.h      ****         
  31:./Test.h      ****         Laser1(0);
 5119              		.loc 19 31 0
 5120 0018 0020     		movs	r0, #0
 5121 001a FFF7FEFF 		bl	Laser1
  32:./Test.h      ****         Laser2(0);
 5122              		.loc 19 32 0
 5123 001e 0020     		movs	r0, #0
 5124 0020 FFF7FEFF 		bl	Laser2
  33:./Test.h      ****         Laser3(0);
 5125              		.loc 19 33 0
 5126 0024 0020     		movs	r0, #0
 5127 0026 FFF7FEFF 		bl	Laser3
  34:./Test.h      **** 
  35:./Test.h      ****         // Set Pictures to orange color
  36:./Test.h      ****         
  37:./Test.h      ****         Nextion_SendString("p_StepMotor.pic=1");
 5128              		.loc 19 37 0
 5129 002a 7E48     		ldr	r0, .L342+8
 5130 002c FFF7FEFF 		bl	Nextion_SendString
  38:./Test.h      ****         Nextion_SendString("p_SD.pic=1");
 5131              		.loc 19 38 0
 5132 0030 7D48     		ldr	r0, .L342+12
 5133 0032 FFF7FEFF 		bl	Nextion_SendString
  39:./Test.h      ****         Nextion_SendString("p_L1.pic=1");
 5134              		.loc 19 39 0
 5135 0036 7D48     		ldr	r0, .L342+16
 5136 0038 FFF7FEFF 		bl	Nextion_SendString
  40:./Test.h      ****         Nextion_SendString("p_L2.pic=1");
 5137              		.loc 19 40 0
 5138 003c 7C48     		ldr	r0, .L342+20
 5139 003e FFF7FEFF 		bl	Nextion_SendString
  41:./Test.h      ****         Nextion_SendString("p_L3.pic=1");
 5140              		.loc 19 41 0
 5141 0042 7C48     		ldr	r0, .L342+24
 5142 0044 FFF7FEFF 		bl	Nextion_SendString
  42:./Test.h      ****         Nextion_SendString("p_SDSpeed.pic=1");
ARM GAS  C:\Users\LOCALA~1\AppData\Local\Temp\ccsQji0c.s 			page 125


 5143              		.loc 19 42 0
 5144 0048 7B48     		ldr	r0, .L342+28
 5145 004a FFF7FEFF 		bl	Nextion_SendString
  43:./Test.h      ****         
  44:./Test.h      ****         
  45:./Test.h      ****         // MAIN
  46:./Test.h      ****         
  47:./Test.h      ****         while (g_ActivePage == 'Z')
 5146              		.loc 19 47 0
 5147 004e DCE0     		b	.L321
 5148              	.L341:
  48:./Test.h      ****         {
  49:./Test.h      ****             switch(g_NextionInterrupt)
 5149              		.loc 19 49 0
 5150 0050 7A4B     		ldr	r3, .L342+32
 5151 0052 1B78     		ldrb	r3, [r3]	@ zero_extendqisi2
 5152 0054 303B     		subs	r3, r3, #48
 5153 0056 232B     		cmp	r3, #35
 5154 0058 00F2D480 		bhi	.L322
 5155 005c 01A2     		adr	r2, .L324
 5156 005e 52F823F0 		ldr	pc, [r2, r3, lsl #2]
 5157 0062 00BF     		.p2align 2
 5158              	.L324:
 5159 0064 F5000000 		.word	.L323+1
 5160 0068 9F010000 		.word	.L325+1
 5161 006c BB010000 		.word	.L326+1
 5162 0070 D7010000 		.word	.L327+1
 5163 0074 05020000 		.word	.L322+1
 5164 0078 05020000 		.word	.L322+1
 5165 007c 05020000 		.word	.L322+1
 5166 0080 05020000 		.word	.L322+1
 5167 0084 05020000 		.word	.L322+1
 5168 0088 05020000 		.word	.L322+1
 5169 008c 05020000 		.word	.L322+1
 5170 0090 05020000 		.word	.L322+1
 5171 0094 05020000 		.word	.L322+1
 5172 0098 05020000 		.word	.L322+1
 5173 009c 05020000 		.word	.L322+1
 5174 00a0 05020000 		.word	.L322+1
 5175 00a4 05020000 		.word	.L322+1
 5176 00a8 05020000 		.word	.L322+1
 5177 00ac 05020000 		.word	.L322+1
 5178 00b0 23010000 		.word	.L328+1
 5179 00b4 05020000 		.word	.L322+1
 5180 00b8 05020000 		.word	.L322+1
 5181 00bc 05020000 		.word	.L322+1
 5182 00c0 05020000 		.word	.L322+1
 5183 00c4 05020000 		.word	.L322+1
 5184 00c8 05020000 		.word	.L322+1
 5185 00cc 05020000 		.word	.L322+1
 5186 00d0 05020000 		.word	.L322+1
 5187 00d4 05020000 		.word	.L322+1
 5188 00d8 FD000000 		.word	.L329+1
 5189 00dc 05020000 		.word	.L322+1
 5190 00e0 05020000 		.word	.L322+1
 5191 00e4 05020000 		.word	.L322+1
 5192 00e8 05020000 		.word	.L322+1
ARM GAS  C:\Users\LOCALA~1\AppData\Local\Temp\ccsQji0c.s 			page 126


 5193 00ec 05020000 		.word	.L322+1
 5194 00f0 F3010000 		.word	.L330+1
 5195              		.p2align 1
 5196              	.L323:
  50:./Test.h      ****             {
  51:./Test.h      ****                 case '0':
  52:./Test.h      ****                     CyDelay(1);
 5197              		.loc 19 52 0
 5198 00f4 0120     		movs	r0, #1
 5199 00f6 FFF7FEFF 		bl	CyDelay
  53:./Test.h      ****                     break;
 5200              		.loc 19 53 0
 5201 00fa 83E0     		b	.L322
 5202              	.L329:
  54:./Test.h      ****                 case 'M':       // Stepper
  55:./Test.h      ****                     Nextion_SendString("p_StepMotor.pic=2");
 5203              		.loc 19 55 0
 5204 00fc 5048     		ldr	r0, .L342+36
 5205 00fe FFF7FEFF 		bl	Nextion_SendString
  56:./Test.h      ****                     Move90DegreeCCW();
 5206              		.loc 19 56 0
 5207 0102 FFF7FEFF 		bl	Move90DegreeCCW
  57:./Test.h      ****                     CyDelay(1000);
 5208              		.loc 19 57 0
 5209 0106 4FF47A70 		mov	r0, #1000
 5210 010a FFF7FEFF 		bl	CyDelay
  58:./Test.h      ****                     Move90DegreeCW();
 5211              		.loc 19 58 0
 5212 010e FFF7FEFF 		bl	Move90DegreeCW
  59:./Test.h      ****                     CyDelay(1000);
 5213              		.loc 19 59 0
 5214 0112 4FF47A70 		mov	r0, #1000
 5215 0116 FFF7FEFF 		bl	CyDelay
  60:./Test.h      ****                     Nextion_SendString("p_StepMotor.pic=0");
 5216              		.loc 19 60 0
 5217 011a 4A48     		ldr	r0, .L342+40
 5218 011c FFF7FEFF 		bl	Nextion_SendString
  61:./Test.h      ****                     break;
 5219              		.loc 19 61 0
 5220 0120 70E0     		b	.L322
 5221              	.L328:
  62:./Test.h      ****                 case 'C':       // SD-Card (normal)
  63:./Test.h      ****                     Nextion_SendString("p_SD.pic=2");
 5222              		.loc 19 63 0
 5223 0122 4948     		ldr	r0, .L342+44
 5224 0124 FFF7FEFF 		bl	Nextion_SendString
 5225              	.LBB14:
  64:./Test.h      ****                     for (int i = 0; i < 10; i++)
 5226              		.loc 19 64 0
 5227 0128 0023     		movs	r3, #0
 5228 012a 7B60     		str	r3, [r7, #4]
 5229 012c 18E0     		b	.L331
 5230              	.L332:
  65:./Test.h      ****                     {
  66:./Test.h      ****                         LogLifetime("Test.txt", i, i*25, 0);
 5231              		.loc 19 66 0 discriminator 3
 5232 012e 7A68     		ldr	r2, [r7, #4]
ARM GAS  C:\Users\LOCALA~1\AppData\Local\Temp\ccsQji0c.s 			page 127


 5233 0130 1346     		mov	r3, r2
 5234 0132 9B00     		lsls	r3, r3, #2
 5235 0134 1344     		add	r3, r3, r2
 5236 0136 9A00     		lsls	r2, r3, #2
 5237 0138 1344     		add	r3, r3, r2
 5238 013a 1846     		mov	r0, r3
 5239 013c FFF7FEFF 		bl	__aeabi_i2d
 5240 0140 0A46     		mov	r2, r1
 5241 0142 0146     		mov	r1, r0
 5242 0144 0023     		movs	r3, #0
 5243 0146 0093     		str	r3, [sp]
 5244 0148 1346     		mov	r3, r2
 5245 014a 0A46     		mov	r2, r1
 5246 014c 7968     		ldr	r1, [r7, #4]
 5247 014e 3F48     		ldr	r0, .L342+48
 5248 0150 FFF7FEFF 		bl	LogLifetime
  67:./Test.h      ****                         CyDelay(100);
 5249              		.loc 19 67 0 discriminator 3
 5250 0154 6420     		movs	r0, #100
 5251 0156 FFF7FEFF 		bl	CyDelay
  64:./Test.h      ****                     for (int i = 0; i < 10; i++)
 5252              		.loc 19 64 0 discriminator 3
 5253 015a 7B68     		ldr	r3, [r7, #4]
 5254 015c 0133     		adds	r3, r3, #1
 5255 015e 7B60     		str	r3, [r7, #4]
 5256              	.L331:
  64:./Test.h      ****                     for (int i = 0; i < 10; i++)
 5257              		.loc 19 64 0 is_stmt 0 discriminator 1
 5258 0160 7B68     		ldr	r3, [r7, #4]
 5259 0162 092B     		cmp	r3, #9
 5260 0164 E3DD     		ble	.L332
 5261              	.LBE14:
 5262              	.LBB15:
  68:./Test.h      ****                     }
  69:./Test.h      ****                     for (int i = 0; i < 10; i++)
 5263              		.loc 19 69 0 is_stmt 1
 5264 0166 0023     		movs	r3, #0
 5265 0168 3B60     		str	r3, [r7]
 5266 016a 11E0     		b	.L333
 5267              	.L334:
  70:./Test.h      ****                     {
  71:./Test.h      ****                         LogIntensity(i, 0, 0, 0, v_timer_Lifetime_ms, 123);   
 5268              		.loc 19 71 0 discriminator 3
 5269 016c 384B     		ldr	r3, .L342+52
 5270 016e 18CB     		ldmia	r3, {r3-r4}
 5271 0170 7B22     		movs	r2, #123
 5272 0172 0292     		str	r2, [sp, #8]
 5273 0174 CDE90034 		strd	r3, [sp]
 5274 0178 0023     		movs	r3, #0
 5275 017a 0022     		movs	r2, #0
 5276 017c 0021     		movs	r1, #0
 5277 017e 3868     		ldr	r0, [r7]
 5278 0180 FFF7FEFF 		bl	LogIntensity
  72:./Test.h      ****                         CyDelay(100);
 5279              		.loc 19 72 0 discriminator 3
 5280 0184 6420     		movs	r0, #100
 5281 0186 FFF7FEFF 		bl	CyDelay
ARM GAS  C:\Users\LOCALA~1\AppData\Local\Temp\ccsQji0c.s 			page 128


  69:./Test.h      ****                     {
 5282              		.loc 19 69 0 discriminator 3
 5283 018a 3B68     		ldr	r3, [r7]
 5284 018c 0133     		adds	r3, r3, #1
 5285 018e 3B60     		str	r3, [r7]
 5286              	.L333:
  69:./Test.h      ****                     {
 5287              		.loc 19 69 0 is_stmt 0 discriminator 1
 5288 0190 3B68     		ldr	r3, [r7]
 5289 0192 092B     		cmp	r3, #9
 5290 0194 EADD     		ble	.L334
 5291              	.LBE15:
  73:./Test.h      ****                     }
  74:./Test.h      ****                     Nextion_SendString("p_SD.pic=0");
 5292              		.loc 19 74 0 is_stmt 1
 5293 0196 2F48     		ldr	r0, .L342+56
 5294 0198 FFF7FEFF 		bl	Nextion_SendString
  75:./Test.h      ****                     break;
 5295              		.loc 19 75 0
 5296 019c 32E0     		b	.L322
 5297              	.L325:
  76:./Test.h      ****                 case '1':       // Laser 1
  77:./Test.h      ****                     Laser1_Toggle();
 5298              		.loc 19 77 0
 5299 019e FFF7FEFF 		bl	Laser1_Toggle
  78:./Test.h      ****                     if (LaserState3)
 5300              		.loc 19 78 0
 5301 01a2 2D4B     		ldr	r3, .L342+60
 5302 01a4 1B78     		ldrb	r3, [r3]	@ zero_extendqisi2
 5303 01a6 002B     		cmp	r3, #0
 5304 01a8 03D0     		beq	.L335
  79:./Test.h      ****                     {
  80:./Test.h      ****                         Nextion_SendString("p_L1.pic=0");   
 5305              		.loc 19 80 0
 5306 01aa 2C48     		ldr	r0, .L342+64
 5307 01ac FFF7FEFF 		bl	Nextion_SendString
  81:./Test.h      ****                     }
  82:./Test.h      ****                     else
  83:./Test.h      ****                     {
  84:./Test.h      ****                         Nextion_SendString("p_L1.pic=2"); 
  85:./Test.h      ****                     }
  86:./Test.h      ****                     break;
 5308              		.loc 19 86 0
 5309 01b0 28E0     		b	.L322
 5310              	.L335:
  84:./Test.h      ****                     }
 5311              		.loc 19 84 0
 5312 01b2 2B48     		ldr	r0, .L342+68
 5313 01b4 FFF7FEFF 		bl	Nextion_SendString
 5314              		.loc 19 86 0
 5315 01b8 24E0     		b	.L322
 5316              	.L326:
  87:./Test.h      ****                 case '2':       // Laser 2
  88:./Test.h      ****                     Laser2_Toggle();
 5317              		.loc 19 88 0
 5318 01ba FFF7FEFF 		bl	Laser2_Toggle
  89:./Test.h      ****                     if (LaserState2)
ARM GAS  C:\Users\LOCALA~1\AppData\Local\Temp\ccsQji0c.s 			page 129


 5319              		.loc 19 89 0
 5320 01be 294B     		ldr	r3, .L342+72
 5321 01c0 1B78     		ldrb	r3, [r3]	@ zero_extendqisi2
 5322 01c2 002B     		cmp	r3, #0
 5323 01c4 03D0     		beq	.L337
  90:./Test.h      ****                     {
  91:./Test.h      ****                         Nextion_SendString("p_L2.pic=0");   
 5324              		.loc 19 91 0
 5325 01c6 2848     		ldr	r0, .L342+76
 5326 01c8 FFF7FEFF 		bl	Nextion_SendString
  92:./Test.h      ****                     }
  93:./Test.h      ****                     else
  94:./Test.h      ****                     {
  95:./Test.h      ****                         Nextion_SendString("p_L2.pic=2"); 
  96:./Test.h      ****                     }
  97:./Test.h      ****                     break;
 5327              		.loc 19 97 0
 5328 01cc 1AE0     		b	.L322
 5329              	.L337:
  95:./Test.h      ****                     }
 5330              		.loc 19 95 0
 5331 01ce 2748     		ldr	r0, .L342+80
 5332 01d0 FFF7FEFF 		bl	Nextion_SendString
 5333              		.loc 19 97 0
 5334 01d4 16E0     		b	.L322
 5335              	.L327:
  98:./Test.h      ****                 case '3':       // Laser 3
  99:./Test.h      ****                     Laser3_Toggle();
 5336              		.loc 19 99 0
 5337 01d6 FFF7FEFF 		bl	Laser3_Toggle
 100:./Test.h      ****                     if(LaserState3)
 5338              		.loc 19 100 0
 5339 01da 1F4B     		ldr	r3, .L342+60
 5340 01dc 1B78     		ldrb	r3, [r3]	@ zero_extendqisi2
 5341 01de 002B     		cmp	r3, #0
 5342 01e0 03D0     		beq	.L339
 101:./Test.h      ****                     {
 102:./Test.h      ****                         Nextion_SendString("p_L3.pic=0");   
 5343              		.loc 19 102 0
 5344 01e2 2348     		ldr	r0, .L342+84
 5345 01e4 FFF7FEFF 		bl	Nextion_SendString
 103:./Test.h      ****                     }
 104:./Test.h      ****                     else
 105:./Test.h      ****                     {
 106:./Test.h      ****                         Nextion_SendString("p_L3.pic=2"); 
 107:./Test.h      ****                     }
 108:./Test.h      ****                     break;
 5346              		.loc 19 108 0
 5347 01e8 0CE0     		b	.L322
 5348              	.L339:
 106:./Test.h      ****                     }
 5349              		.loc 19 106 0
 5350 01ea 2248     		ldr	r0, .L342+88
 5351 01ec FFF7FEFF 		bl	Nextion_SendString
 5352              		.loc 19 108 0
 5353 01f0 08E0     		b	.L322
 5354              	.L330:
ARM GAS  C:\Users\LOCALA~1\AppData\Local\Temp\ccsQji0c.s 			page 130


 109:./Test.h      ****                 case 'S':       // SD-Card (Speed)
 110:./Test.h      ****                     Nextion_SendString("p_SDSpeed.pic=2");
 5355              		.loc 19 110 0
 5356 01f2 2148     		ldr	r0, .L342+92
 5357 01f4 FFF7FEFF 		bl	Nextion_SendString
 111:./Test.h      ****                     WriteSpeedTest();
 5358              		.loc 19 111 0
 5359 01f8 FFF7FEFF 		bl	WriteSpeedTest
 112:./Test.h      ****                     Nextion_SendString("p_SDSpeed.pic=0");
 5360              		.loc 19 112 0
 5361 01fc 1F48     		ldr	r0, .L342+96
 5362 01fe FFF7FEFF 		bl	Nextion_SendString
 113:./Test.h      ****                     break;
 5363              		.loc 19 113 0
 5364 0202 00BF     		nop
 5365              	.L322:
 114:./Test.h      ****             }
 115:./Test.h      ****             g_NextionInterrupt = '0';
 5366              		.loc 19 115 0
 5367 0204 0D4B     		ldr	r3, .L342+32
 5368 0206 3022     		movs	r2, #48
 5369 0208 1A70     		strb	r2, [r3]
 5370              	.L321:
  47:./Test.h      ****         {
 5371              		.loc 19 47 0
 5372 020a 044B     		ldr	r3, .L342
 5373 020c 1B78     		ldrb	r3, [r3]	@ zero_extendqisi2
 5374 020e 5A2B     		cmp	r3, #90
 5375 0210 3FF41EAF 		beq	.L341
 116:./Test.h      ****             
 117:./Test.h      ****         }
 118:./Test.h      ****         
 119:./Test.h      ****     }
 5376              		.loc 19 119 0
 5377 0214 00BF     		nop
 5378 0216 0C37     		adds	r7, r7, #12
 5379              		.cfi_def_cfa_offset 12
 5380 0218 BD46     		mov	sp, r7
 5381              		.cfi_def_cfa_register 13
 5382              		@ sp needed
 5383 021a 90BD     		pop	{r4, r7, pc}
 5384              	.L343:
 5385              		.align	2
 5386              	.L342:
 5387 021c 00000000 		.word	g_ActivePage
 5388 0220 A0020000 		.word	.LC52
 5389 0224 AC020000 		.word	.LC53
 5390 0228 C0020000 		.word	.LC54
 5391 022c CC020000 		.word	.LC55
 5392 0230 D8020000 		.word	.LC56
 5393 0234 E4020000 		.word	.LC57
 5394 0238 F0020000 		.word	.LC58
 5395 023c 00000000 		.word	g_NextionInterrupt
 5396 0240 00030000 		.word	.LC59
 5397 0244 14030000 		.word	.LC60
 5398 0248 28030000 		.word	.LC61
 5399 024c 34030000 		.word	.LC62
ARM GAS  C:\Users\LOCALA~1\AppData\Local\Temp\ccsQji0c.s 			page 131


 5400 0250 00000000 		.word	v_timer_Lifetime_ms
 5401 0254 40030000 		.word	.LC63
 5402 0258 00000000 		.word	LaserState3
 5403 025c 4C030000 		.word	.LC64
 5404 0260 58030000 		.word	.LC65
 5405 0264 00000000 		.word	LaserState2
 5406 0268 64030000 		.word	.LC66
 5407 026c 70030000 		.word	.LC67
 5408 0270 7C030000 		.word	.LC68
 5409 0274 88030000 		.word	.LC69
 5410 0278 94030000 		.word	.LC70
 5411 027c A4030000 		.word	.LC71
 5412              		.cfi_endproc
 5413              	.LFE113:
 5414              		.size	Test, .-Test
 5415              		.section	.text.breakScreen,"ax",%progbits
 5416              		.align	2
 5417              		.global	breakScreen
 5418              		.thumb
 5419              		.thumb_func
 5420              		.type	breakScreen, %function
 5421              	breakScreen:
 5422              	.LFB114:
 5423              		.file 20 "main.c"
   1:main.c        **** /* ========================================
   2:main.c        ****  *
   3:main.c        ****  * Copyright YOUR COMPANY, THE YEAR
   4:main.c        ****  * All Rights Reserved
   5:main.c        ****  * UNPUBLISHED, LICENSED SOFTWARE.
   6:main.c        ****  *
   7:main.c        ****  * CONFIDENTIAL AND PROPRIETARY INFORMATION
   8:main.c        ****  * WHICH IS THE PROPERTY OF your company.
   9:main.c        ****  *
  10:main.c        ****  * ========================================
  11:main.c        **** */
  12:main.c        **** 
  13:main.c        **** 
  14:main.c        **** #include<project.h>
  15:main.c        **** 
  16:main.c        **** #include <Init.h>
  17:main.c        **** #include <ProgramParts.h>
  18:main.c        **** #include <GlobalVariables.h>
  19:main.c        **** #include <home.h>
  20:main.c        **** #include <ConfigurationOfMeasurement.h>
  21:main.c        **** #include <SetupOfMeasurement.h>
  22:main.c        **** #include <Measurement.h>
  23:main.c        **** #include <Error.h>
  24:main.c        **** #include <Test.h>
  25:main.c        **** #include <LaserSelect.h>
  26:main.c        **** #ifdef PC_CONTROL
  27:main.c        **** #include <PCControl.h>
  28:main.c        **** #endif
  29:main.c        **** 
  30:main.c        **** 
  31:main.c        **** int breakScreen(char activeScreen)
  32:main.c        **** {
 5424              		.loc 20 32 0
ARM GAS  C:\Users\LOCALA~1\AppData\Local\Temp\ccsQji0c.s 			page 132


 5425              		.cfi_startproc
 5426              		@ args = 0, pretend = 0, frame = 16
 5427              		@ frame_needed = 1, uses_anonymous_args = 0
 5428              		@ link register save eliminated.
 5429 0000 80B4     		push	{r7}
 5430              		.cfi_def_cfa_offset 4
 5431              		.cfi_offset 7, -4
 5432 0002 85B0     		sub	sp, sp, #20
 5433              		.cfi_def_cfa_offset 24
 5434 0004 00AF     		add	r7, sp, #0
 5435              		.cfi_def_cfa_register 7
 5436 0006 0346     		mov	r3, r0
 5437 0008 FB71     		strb	r3, [r7, #7]
  33:main.c        ****     int retValue = 0;
 5438              		.loc 20 33 0
 5439 000a 0023     		movs	r3, #0
 5440 000c FB60     		str	r3, [r7, #12]
  34:main.c        ****     if (activeScreen == 'E')
 5441              		.loc 20 34 0
 5442 000e FB79     		ldrb	r3, [r7, #7]	@ zero_extendqisi2
 5443 0010 452B     		cmp	r3, #69
 5444 0012 02D1     		bne	.L345
  35:main.c        ****     {
  36:main.c        ****         retValue = 1;
 5445              		.loc 20 36 0
 5446 0014 0123     		movs	r3, #1
 5447 0016 FB60     		str	r3, [r7, #12]
 5448 0018 04E0     		b	.L346
 5449              	.L345:
  37:main.c        ****     }
  38:main.c        ****     else if (activeScreen == 'H')
 5450              		.loc 20 38 0
 5451 001a FB79     		ldrb	r3, [r7, #7]	@ zero_extendqisi2
 5452 001c 482B     		cmp	r3, #72
 5453 001e 01D1     		bne	.L346
  39:main.c        ****     {
  40:main.c        ****         retValue = 1;
 5454              		.loc 20 40 0
 5455 0020 0123     		movs	r3, #1
 5456 0022 FB60     		str	r3, [r7, #12]
 5457              	.L346:
  41:main.c        ****     }
  42:main.c        ****     return retValue;
 5458              		.loc 20 42 0
 5459 0024 FB68     		ldr	r3, [r7, #12]
  43:main.c        **** }
 5460              		.loc 20 43 0
 5461 0026 1846     		mov	r0, r3
 5462 0028 1437     		adds	r7, r7, #20
 5463              		.cfi_def_cfa_offset 4
 5464 002a BD46     		mov	sp, r7
 5465              		.cfi_def_cfa_register 13
 5466              		@ sp needed
 5467 002c 80BC     		pop	{r7}
 5468              		.cfi_restore 7
 5469              		.cfi_def_cfa_offset 0
 5470 002e 7047     		bx	lr
ARM GAS  C:\Users\LOCALA~1\AppData\Local\Temp\ccsQji0c.s 			page 133


 5471              		.cfi_endproc
 5472              	.LFE114:
 5473              		.size	breakScreen, .-breakScreen
 5474              		.section	.text.stepsToPrepareMeasurement,"ax",%progbits
 5475              		.align	2
 5476              		.global	stepsToPrepareMeasurement
 5477              		.thumb
 5478              		.thumb_func
 5479              		.type	stepsToPrepareMeasurement, %function
 5480              	stepsToPrepareMeasurement:
 5481              	.LFB115:
  44:main.c        **** 
  45:main.c        **** int stepsToPrepareMeasurement(const char measurementMode)
  46:main.c        **** {
 5482              		.loc 20 46 0
 5483              		.cfi_startproc
 5484              		@ args = 0, pretend = 0, frame = 8
 5485              		@ frame_needed = 1, uses_anonymous_args = 0
 5486 0000 80B5     		push	{r7, lr}
 5487              		.cfi_def_cfa_offset 8
 5488              		.cfi_offset 7, -8
 5489              		.cfi_offset 14, -4
 5490 0002 82B0     		sub	sp, sp, #8
 5491              		.cfi_def_cfa_offset 16
 5492 0004 00AF     		add	r7, sp, #0
 5493              		.cfi_def_cfa_register 7
 5494 0006 0346     		mov	r3, r0
 5495 0008 FB71     		strb	r3, [r7, #7]
  47:main.c        ****     if (ConfigurationOfMeasurement(measurementMode))
 5496              		.loc 20 47 0
 5497 000a FB79     		ldrb	r3, [r7, #7]	@ zero_extendqisi2
 5498 000c 1846     		mov	r0, r3
 5499 000e FFF7FEFF 		bl	ConfigurationOfMeasurement
 5500 0012 0346     		mov	r3, r0
 5501 0014 002B     		cmp	r3, #0
 5502 0016 01D0     		beq	.L349
  48:main.c        ****     {
  49:main.c        ****         return 1;
 5503              		.loc 20 49 0
 5504 0018 0123     		movs	r3, #1
 5505 001a 1BE0     		b	.L350
 5506              	.L349:
  50:main.c        ****     }
  51:main.c        ****     CyDelay(5);
 5507              		.loc 20 51 0
 5508 001c 0520     		movs	r0, #5
 5509 001e FFF7FEFF 		bl	CyDelay
  52:main.c        ****     if (SetupOfMeasurement())
 5510              		.loc 20 52 0
 5511 0022 FFF7FEFF 		bl	SetupOfMeasurement
 5512 0026 0346     		mov	r3, r0
 5513 0028 002B     		cmp	r3, #0
 5514 002a 01D0     		beq	.L351
  53:main.c        ****     {
  54:main.c        ****         return 1;
 5515              		.loc 20 54 0
 5516 002c 0123     		movs	r3, #1
ARM GAS  C:\Users\LOCALA~1\AppData\Local\Temp\ccsQji0c.s 			page 134


 5517 002e 11E0     		b	.L350
 5518              	.L351:
  55:main.c        ****     }
  56:main.c        ****     CyDelay(5);
 5519              		.loc 20 56 0
 5520 0030 0520     		movs	r0, #5
 5521 0032 FFF7FEFF 		bl	CyDelay
  57:main.c        ****     if (Laserselect() != 0)
 5522              		.loc 20 57 0
 5523 0036 FFF7FEFF 		bl	Laserselect
 5524 003a 0346     		mov	r3, r0
 5525 003c 002B     		cmp	r3, #0
 5526 003e 01D0     		beq	.L352
  58:main.c        ****     {
  59:main.c        ****         return 1;
 5527              		.loc 20 59 0
 5528 0040 0123     		movs	r3, #1
 5529 0042 07E0     		b	.L350
 5530              	.L352:
  60:main.c        ****     }
  61:main.c        ****     CyDelay(5);
 5531              		.loc 20 61 0
 5532 0044 0520     		movs	r0, #5
 5533 0046 FFF7FEFF 		bl	CyDelay
  62:main.c        ****     Measurement(measurementMode);
 5534              		.loc 20 62 0
 5535 004a FB79     		ldrb	r3, [r7, #7]	@ zero_extendqisi2
 5536 004c 1846     		mov	r0, r3
 5537 004e FFF7FEFF 		bl	Measurement
  63:main.c        ****     return 0;
 5538              		.loc 20 63 0
 5539 0052 0023     		movs	r3, #0
 5540              	.L350:
  64:main.c        **** }
 5541              		.loc 20 64 0
 5542 0054 1846     		mov	r0, r3
 5543 0056 0837     		adds	r7, r7, #8
 5544              		.cfi_def_cfa_offset 8
 5545 0058 BD46     		mov	sp, r7
 5546              		.cfi_def_cfa_register 13
 5547              		@ sp needed
 5548 005a 80BD     		pop	{r7, pc}
 5549              		.cfi_endproc
 5550              	.LFE115:
 5551              		.size	stepsToPrepareMeasurement, .-stepsToPrepareMeasurement
 5552              		.section	.text.startMeasurementPreparation,"ax",%progbits
 5553              		.align	2
 5554              		.global	startMeasurementPreparation
 5555              		.thumb
 5556              		.thumb_func
 5557              		.type	startMeasurementPreparation, %function
 5558              	startMeasurementPreparation:
 5559              	.LFB116:
  65:main.c        **** 
  66:main.c        **** void startMeasurementPreparation(const char measurementMode)
  67:main.c        **** {
 5560              		.loc 20 67 0
ARM GAS  C:\Users\LOCALA~1\AppData\Local\Temp\ccsQji0c.s 			page 135


 5561              		.cfi_startproc
 5562              		@ args = 0, pretend = 0, frame = 8
 5563              		@ frame_needed = 1, uses_anonymous_args = 0
 5564 0000 80B5     		push	{r7, lr}
 5565              		.cfi_def_cfa_offset 8
 5566              		.cfi_offset 7, -8
 5567              		.cfi_offset 14, -4
 5568 0002 82B0     		sub	sp, sp, #8
 5569              		.cfi_def_cfa_offset 16
 5570 0004 00AF     		add	r7, sp, #0
 5571              		.cfi_def_cfa_register 7
 5572 0006 0346     		mov	r3, r0
 5573 0008 FB71     		strb	r3, [r7, #7]
  68:main.c        ****     if (stepsToPrepareMeasurement(measurementMode))
 5574              		.loc 20 68 0
 5575 000a FB79     		ldrb	r3, [r7, #7]	@ zero_extendqisi2
 5576 000c 1846     		mov	r0, r3
 5577 000e FFF7FEFF 		bl	stepsToPrepareMeasurement
 5578 0012 0346     		mov	r3, r0
 5579 0014 002B     		cmp	r3, #0
 5580 0016 0CD0     		beq	.L354
  69:main.c        ****     {
  70:main.c        ****         if (g_Error_Code != 0)
 5581              		.loc 20 70 0
 5582 0018 094B     		ldr	r3, .L359
 5583 001a 1B68     		ldr	r3, [r3]
 5584 001c 002B     		cmp	r3, #0
 5585 001e 02D0     		beq	.L355
  71:main.c        ****         {
  72:main.c        ****             Error();
 5586              		.loc 20 72 0
 5587 0020 FFF7FEFF 		bl	Error
 5588 0024 01E0     		b	.L356
 5589              	.L355:
  73:main.c        ****         }
  74:main.c        ****         else
  75:main.c        ****         {
  76:main.c        ****             home();
 5590              		.loc 20 76 0
 5591 0026 FFF7FEFF 		bl	home
 5592              	.L356:
  77:main.c        ****         }
  78:main.c        ****         g_NextionInterrupt = '0';
 5593              		.loc 20 78 0
 5594 002a 064B     		ldr	r3, .L359+4
 5595 002c 3022     		movs	r2, #48
 5596 002e 1A70     		strb	r2, [r3]
  79:main.c        ****     }
  80:main.c        ****     else
  81:main.c        ****     {
  82:main.c        ****         home();
  83:main.c        ****     }
  84:main.c        **** }
 5597              		.loc 20 84 0
 5598 0030 01E0     		b	.L358
 5599              	.L354:
  82:main.c        ****     }
ARM GAS  C:\Users\LOCALA~1\AppData\Local\Temp\ccsQji0c.s 			page 136


 5600              		.loc 20 82 0
 5601 0032 FFF7FEFF 		bl	home
 5602              	.L358:
 5603              		.loc 20 84 0
 5604 0036 00BF     		nop
 5605 0038 0837     		adds	r7, r7, #8
 5606              		.cfi_def_cfa_offset 8
 5607 003a BD46     		mov	sp, r7
 5608              		.cfi_def_cfa_register 13
 5609              		@ sp needed
 5610 003c 80BD     		pop	{r7, pc}
 5611              	.L360:
 5612 003e 00BF     		.align	2
 5613              	.L359:
 5614 0040 00000000 		.word	g_Error_Code
 5615 0044 00000000 		.word	g_NextionInterrupt
 5616              		.cfi_endproc
 5617              	.LFE116:
 5618              		.size	startMeasurementPreparation, .-startMeasurementPreparation
 5619              		.section	.text.main,"ax",%progbits
 5620              		.align	2
 5621              		.global	main
 5622              		.thumb
 5623              		.thumb_func
 5624              		.type	main, %function
 5625              	main:
 5626              	.LFB117:
  85:main.c        **** 
  86:main.c        **** int main()
  87:main.c        **** {
 5627              		.loc 20 87 0
 5628              		.cfi_startproc
 5629              		@ args = 0, pretend = 0, frame = 0
 5630              		@ frame_needed = 1, uses_anonymous_args = 0
 5631 0000 80B5     		push	{r7, lr}
 5632              		.cfi_def_cfa_offset 8
 5633              		.cfi_offset 7, -8
 5634              		.cfi_offset 14, -4
 5635 0002 00AF     		add	r7, sp, #0
 5636              		.cfi_def_cfa_register 7
  88:main.c        ****     Init();
 5637              		.loc 20 88 0
 5638 0004 FFF7FEFF 		bl	Init
 5639              	.L371:
  89:main.c        ****    
  90:main.c        ****     while (1)
  91:main.c        ****     {
  92:main.c        ****         if (g_ActivePage == 'H')
 5640              		.loc 20 92 0
 5641 0008 404B     		ldr	r3, .L372
 5642 000a 1B78     		ldrb	r3, [r3]	@ zero_extendqisi2
 5643 000c 482B     		cmp	r3, #72
 5644 000e 07D1     		bne	.L362
  93:main.c        ****         {
  94:main.c        ****             // Go to home page, stop everything. 
  95:main.c        ****             // Force reset of all variables in different program parts -> Init in the subprograms
  96:main.c        ****             home();
ARM GAS  C:\Users\LOCALA~1\AppData\Local\Temp\ccsQji0c.s 			page 137


 5645              		.loc 20 96 0
 5646 0010 FFF7FEFF 		bl	home
  97:main.c        ****             g_NextionInterrupt = '0';               // Set to idling
 5647              		.loc 20 97 0
 5648 0014 3E4B     		ldr	r3, .L372+4
 5649 0016 3022     		movs	r2, #48
 5650 0018 1A70     		strb	r2, [r3]
  98:main.c        ****             g_ActivePage = '0';
 5651              		.loc 20 98 0
 5652 001a 3C4B     		ldr	r3, .L372
 5653 001c 3022     		movs	r2, #48
 5654 001e 1A70     		strb	r2, [r3]
 5655              	.L362:
  99:main.c        ****         }
 100:main.c        ****         switch(g_NextionInterrupt)
 5656              		.loc 20 100 0
 5657 0020 3B4B     		ldr	r3, .L372+4
 5658 0022 1B78     		ldrb	r3, [r3]	@ zero_extendqisi2
 5659 0024 303B     		subs	r3, r3, #48
 5660 0026 2A2B     		cmp	r3, #42
 5661 0028 6BD8     		bhi	.L363
 5662 002a 01A2     		adr	r2, .L365
 5663 002c 52F823F0 		ldr	pc, [r2, r3, lsl #2]
 5664              		.p2align 2
 5665              	.L365:
 5666 0030 DD000000 		.word	.L364+1
 5667 0034 03010000 		.word	.L363+1
 5668 0038 03010000 		.word	.L363+1
 5669 003c 03010000 		.word	.L363+1
 5670 0040 03010000 		.word	.L363+1
 5671 0044 03010000 		.word	.L363+1
 5672 0048 03010000 		.word	.L363+1
 5673 004c 03010000 		.word	.L363+1
 5674 0050 03010000 		.word	.L363+1
 5675 0054 03010000 		.word	.L363+1
 5676 0058 03010000 		.word	.L363+1
 5677 005c 03010000 		.word	.L363+1
 5678 0060 03010000 		.word	.L363+1
 5679 0064 03010000 		.word	.L363+1
 5680 0068 03010000 		.word	.L363+1
 5681 006c 03010000 		.word	.L363+1
 5682 0070 03010000 		.word	.L363+1
 5683 0074 03010000 		.word	.L363+1
 5684 0078 03010000 		.word	.L363+1
 5685 007c F5000000 		.word	.L366+1
 5686 0080 03010000 		.word	.L363+1
 5687 0084 03010000 		.word	.L363+1
 5688 0088 03010000 		.word	.L363+1
 5689 008c 03010000 		.word	.L363+1
 5690 0090 03010000 		.word	.L363+1
 5691 0094 03010000 		.word	.L363+1
 5692 0098 03010000 		.word	.L363+1
 5693 009c 03010000 		.word	.L363+1
 5694 00a0 E5000000 		.word	.L367+1
 5695 00a4 03010000 		.word	.L363+1
 5696 00a8 03010000 		.word	.L363+1
 5697 00ac 03010000 		.word	.L363+1
ARM GAS  C:\Users\LOCALA~1\AppData\Local\Temp\ccsQji0c.s 			page 138


 5698 00b0 03010000 		.word	.L363+1
 5699 00b4 03010000 		.word	.L363+1
 5700 00b8 03010000 		.word	.L363+1
 5701 00bc 03010000 		.word	.L363+1
 5702 00c0 ED000000 		.word	.L368+1
 5703 00c4 03010000 		.word	.L363+1
 5704 00c8 03010000 		.word	.L363+1
 5705 00cc 03010000 		.word	.L363+1
 5706 00d0 03010000 		.word	.L363+1
 5707 00d4 03010000 		.word	.L363+1
 5708 00d8 FD000000 		.word	.L369+1
 5709              		.p2align 1
 5710              	.L364:
 101:main.c        ****         {
 102:main.c        ****             case '0':
 103:main.c        ****                 CyDelay(1);
 5711              		.loc 20 103 0
 5712 00dc 0120     		movs	r0, #1
 5713 00de FFF7FEFF 		bl	CyDelay
 104:main.c        ****                 // Do nothing! idling
 105:main.c        ****                 break;
 5714              		.loc 20 105 0
 5715 00e2 12E0     		b	.L370
 5716              	.L367:
 106:main.c        ****             case 'L':
 107:main.c        ****                 // Lifetime measurement
 108:main.c        ****                 startMeasurementPreparation(MODE_LIFETIME);
 5717              		.loc 20 108 0
 5718 00e4 4C20     		movs	r0, #76
 5719 00e6 FFF7FEFF 		bl	startMeasurementPreparation
 109:main.c        ****                 break;
 5720              		.loc 20 109 0
 5721 00ea 0EE0     		b	.L370
 5722              	.L368:
 110:main.c        ****                 
 111:main.c        ****             case 'T':
 112:main.c        ****                 // Thickness measurement
 113:main.c        ****                 startMeasurementPreparation(MODE_THICKNESS);
 5723              		.loc 20 113 0
 5724 00ec 5420     		movs	r0, #84
 5725 00ee FFF7FEFF 		bl	startMeasurementPreparation
 114:main.c        ****                 break;
 5726              		.loc 20 114 0
 5727 00f2 0AE0     		b	.L370
 5728              	.L366:
 115:main.c        ****                 
 116:main.c        ****             case 'C':
 117:main.c        ****                 // Lifetime + Thickness Combi measurement
 118:main.c        ****                 startMeasurementPreparation(MODE_LIFETIMEANDTHICKNESS);
 5729              		.loc 20 118 0
 5730 00f4 4320     		movs	r0, #67
 5731 00f6 FFF7FEFF 		bl	startMeasurementPreparation
 119:main.c        ****                 break;
 5732              		.loc 20 119 0
 5733 00fa 06E0     		b	.L370
 5734              	.L369:
 120:main.c        ****             #ifdef PC_CONTROL
ARM GAS  C:\Users\LOCALA~1\AppData\Local\Temp\ccsQji0c.s 			page 139


 121:main.c        ****             case 'P':
 122:main.c        ****                 // PCControl
 123:main.c        ****                 PCControl();
 124:main.c        ****                 break;
 125:main.c        ****             #endif
 126:main.c        ****             case 'Z':
 127:main.c        ****                 // Test - page
 128:main.c        ****                 Test();
 5735              		.loc 20 128 0
 5736 00fc FFF7FEFF 		bl	Test
 129:main.c        ****                 break;
 5737              		.loc 20 129 0
 5738 0100 03E0     		b	.L370
 5739              	.L363:
 130:main.c        ****             default:
 131:main.c        ****                 setError(1);
 5740              		.loc 20 131 0
 5741 0102 0120     		movs	r0, #1
 5742 0104 FFF7FEFF 		bl	setError
 132:main.c        ****                 break;
 5743              		.loc 20 132 0
 5744 0108 00BF     		nop
 5745              	.L370:
 133:main.c        ****         }
 134:main.c        ****     }
 5746              		.loc 20 134 0
 5747 010a 7DE7     		b	.L371
 5748              	.L373:
 5749              		.align	2
 5750              	.L372:
 5751 010c 00000000 		.word	g_ActivePage
 5752 0110 00000000 		.word	g_NextionInterrupt
 5753              		.cfi_endproc
 5754              	.LFE117:
 5755              		.size	main, .-main
 5756              		.text
 5757              	.Letext0:
 5758              		.file 21 "d:\\programme\\psoc\\psoc creator\\4.2\\psoc creator\\import\\gnu\\arm\\5.4.1\\arm-none-
 5759              		.file 22 "d:\\programme\\psoc\\psoc creator\\4.2\\psoc creator\\import\\gnu\\arm\\5.4.1\\arm-none-
 5760              		.file 23 "Generated_Source\\PSoC5/cytypes.h"
 5761              		.file 24 ".\\emFile_V322c\\Code\\Include\\PSoC5/FS_Types.h"
 5762              		.file 25 "Generated_Source\\PSoC5/core_cm3.h"
 5763              		.file 26 "./GlobalVariables.h"
 5764              		.file 27 "./SLIDERS.h"
 5765              		.section	.debug_info,"",%progbits
 5766              	.Ldebug_info0:
 5767 0000 590E0000 		.4byte	0xe59
 5768 0004 0400     		.2byte	0x4
 5769 0006 00000000 		.4byte	.Ldebug_abbrev0
 5770 000a 04       		.byte	0x4
 5771 000b 01       		.uleb128 0x1
 5772 000c AA000000 		.4byte	.LASF173
 5773 0010 0C       		.byte	0xc
 5774 0011 C0040000 		.4byte	.LASF174
 5775 0015 65070000 		.4byte	.LASF175
 5776 0019 18000000 		.4byte	.Ldebug_ranges0+0x18
 5777 001d 00000000 		.4byte	0
ARM GAS  C:\Users\LOCALA~1\AppData\Local\Temp\ccsQji0c.s 			page 140


 5778 0021 00000000 		.4byte	.Ldebug_line0
 5779 0025 02       		.uleb128 0x2
 5780 0026 01       		.byte	0x1
 5781 0027 06       		.byte	0x6
 5782 0028 E2010000 		.4byte	.LASF0
 5783 002c 02       		.uleb128 0x2
 5784 002d 01       		.byte	0x1
 5785 002e 08       		.byte	0x8
 5786 002f CF060000 		.4byte	.LASF1
 5787 0033 02       		.uleb128 0x2
 5788 0034 02       		.byte	0x2
 5789 0035 05       		.byte	0x5
 5790 0036 BF020000 		.4byte	.LASF2
 5791 003a 02       		.uleb128 0x2
 5792 003b 02       		.byte	0x2
 5793 003c 07       		.byte	0x7
 5794 003d 6A040000 		.4byte	.LASF3
 5795 0041 03       		.uleb128 0x3
 5796 0042 66080000 		.4byte	.LASF9
 5797 0046 15       		.byte	0x15
 5798 0047 3F       		.byte	0x3f
 5799 0048 4C000000 		.4byte	0x4c
 5800 004c 02       		.uleb128 0x2
 5801 004d 04       		.byte	0x4
 5802 004e 05       		.byte	0x5
 5803 004f 6D020000 		.4byte	.LASF4
 5804 0053 02       		.uleb128 0x2
 5805 0054 04       		.byte	0x4
 5806 0055 07       		.byte	0x7
 5807 0056 0E040000 		.4byte	.LASF5
 5808 005a 02       		.uleb128 0x2
 5809 005b 08       		.byte	0x8
 5810 005c 05       		.byte	0x5
 5811 005d D4010000 		.4byte	.LASF6
 5812 0061 02       		.uleb128 0x2
 5813 0062 08       		.byte	0x8
 5814 0063 07       		.byte	0x7
 5815 0064 56010000 		.4byte	.LASF7
 5816 0068 04       		.uleb128 0x4
 5817 0069 04       		.byte	0x4
 5818 006a 05       		.byte	0x5
 5819 006b 696E7400 		.ascii	"int\000"
 5820 006f 02       		.uleb128 0x2
 5821 0070 04       		.byte	0x4
 5822 0071 07       		.byte	0x7
 5823 0072 E9030000 		.4byte	.LASF8
 5824 0076 03       		.uleb128 0x3
 5825 0077 C7060000 		.4byte	.LASF10
 5826 007b 16       		.byte	0x16
 5827 007c 2C       		.byte	0x2c
 5828 007d 41000000 		.4byte	0x41
 5829 0081 05       		.uleb128 0x5
 5830 0082 87030000 		.4byte	.LASF11
 5831 0086 17       		.byte	0x17
 5832 0087 E501     		.2byte	0x1e5
 5833 0089 3A000000 		.4byte	0x3a
 5834 008d 02       		.uleb128 0x2
ARM GAS  C:\Users\LOCALA~1\AppData\Local\Temp\ccsQji0c.s 			page 141


 5835 008e 04       		.byte	0x4
 5836 008f 04       		.byte	0x4
 5837 0090 71060000 		.4byte	.LASF12
 5838 0094 02       		.uleb128 0x2
 5839 0095 08       		.byte	0x8
 5840 0096 04       		.byte	0x4
 5841 0097 EC020000 		.4byte	.LASF13
 5842 009b 02       		.uleb128 0x2
 5843 009c 01       		.byte	0x1
 5844 009d 08       		.byte	0x8
 5845 009e 31080000 		.4byte	.LASF14
 5846 00a2 02       		.uleb128 0x2
 5847 00a3 08       		.byte	0x8
 5848 00a4 04       		.byte	0x4
 5849 00a5 09080000 		.4byte	.LASF15
 5850 00a9 02       		.uleb128 0x2
 5851 00aa 04       		.byte	0x4
 5852 00ab 07       		.byte	0x7
 5853 00ac 9D050000 		.4byte	.LASF16
 5854 00b0 06       		.uleb128 0x6
 5855 00b1 04       		.byte	0x4
 5856 00b2 9B000000 		.4byte	0x9b
 5857 00b6 06       		.uleb128 0x6
 5858 00b7 04       		.byte	0x4
 5859 00b8 BC000000 		.4byte	0xbc
 5860 00bc 07       		.uleb128 0x7
 5861 00bd 9B000000 		.4byte	0x9b
 5862 00c1 03       		.uleb128 0x3
 5863 00c2 5B030000 		.4byte	.LASF17
 5864 00c6 18       		.byte	0x18
 5865 00c7 7E       		.byte	0x7e
 5866 00c8 CC000000 		.4byte	0xcc
 5867 00cc 08       		.uleb128 0x8
 5868 00cd 5B030000 		.4byte	.LASF17
 5869 00d1 06       		.uleb128 0x6
 5870 00d2 04       		.byte	0x4
 5871 00d3 C1000000 		.4byte	0xc1
 5872 00d7 09       		.uleb128 0x9
 5873 00d8 A8060000 		.4byte	.LASF28
 5874 00dc 01       		.byte	0x1
 5875 00dd 15       		.byte	0x15
 5876 00de 00000000 		.4byte	.LFB64
 5877 00e2 20000000 		.4byte	.LFE64-.LFB64
 5878 00e6 01       		.uleb128 0x1
 5879 00e7 9C       		.byte	0x9c
 5880 00e8 0A       		.uleb128 0xa
 5881 00e9 C7040000 		.4byte	.LASF18
 5882 00ed 01       		.byte	0x1
 5883 00ee 1D       		.byte	0x1d
 5884 00ef 00000000 		.4byte	.LFB65
 5885 00f3 1A000000 		.4byte	.LFE65-.LFB65
 5886 00f7 01       		.uleb128 0x1
 5887 00f8 9C       		.byte	0x9c
 5888 00f9 0C010000 		.4byte	0x10c
 5889 00fd 0B       		.uleb128 0xb
 5890 00fe 5D000000 		.4byte	.LASF20
 5891 0102 01       		.byte	0x1
ARM GAS  C:\Users\LOCALA~1\AppData\Local\Temp\ccsQji0c.s 			page 142


 5892 0103 1D       		.byte	0x1d
 5893 0104 B6000000 		.4byte	0xb6
 5894 0108 02       		.uleb128 0x2
 5895 0109 91       		.byte	0x91
 5896 010a 74       		.sleb128 -12
 5897 010b 00       		.byte	0
 5898 010c 0A       		.uleb128 0xa
 5899 010d A7070000 		.4byte	.LASF19
 5900 0111 01       		.byte	0x1
 5901 0112 23       		.byte	0x23
 5902 0113 00000000 		.4byte	.LFB66
 5903 0117 40000000 		.4byte	.LFE66-.LFB66
 5904 011b 01       		.uleb128 0x1
 5905 011c 9C       		.byte	0x9c
 5906 011d 4C010000 		.4byte	0x14c
 5907 0121 0B       		.uleb128 0xb
 5908 0122 5D000000 		.4byte	.LASF20
 5909 0126 01       		.byte	0x1
 5910 0127 23       		.byte	0x23
 5911 0128 B6000000 		.4byte	0xb6
 5912 012c 02       		.uleb128 0x2
 5913 012d 91       		.byte	0x91
 5914 012e 5C       		.sleb128 -36
 5915 012f 0B       		.uleb128 0xb
 5916 0130 CF030000 		.4byte	.LASF21
 5917 0134 01       		.byte	0x1
 5918 0135 23       		.byte	0x23
 5919 0136 4C010000 		.4byte	0x14c
 5920 013a 02       		.uleb128 0x2
 5921 013b 91       		.byte	0x91
 5922 013c 58       		.sleb128 -40
 5923 013d 0C       		.uleb128 0xc
 5924 013e 01080000 		.4byte	.LASF24
 5925 0142 01       		.byte	0x1
 5926 0143 26       		.byte	0x26
 5927 0144 51010000 		.4byte	0x151
 5928 0148 02       		.uleb128 0x2
 5929 0149 91       		.byte	0x91
 5930 014a 64       		.sleb128 -28
 5931 014b 00       		.byte	0
 5932 014c 07       		.uleb128 0x7
 5933 014d 68000000 		.4byte	0x68
 5934 0151 0D       		.uleb128 0xd
 5935 0152 9B000000 		.4byte	0x9b
 5936 0156 61010000 		.4byte	0x161
 5937 015a 0E       		.uleb128 0xe
 5938 015b A9000000 		.4byte	0xa9
 5939 015f 13       		.byte	0x13
 5940 0160 00       		.byte	0
 5941 0161 0A       		.uleb128 0xa
 5942 0162 4D090000 		.4byte	.LASF22
 5943 0166 01       		.byte	0x1
 5944 0167 32       		.byte	0x32
 5945 0168 00000000 		.4byte	.LFB67
 5946 016c 38000000 		.4byte	.LFE67-.LFB67
 5947 0170 01       		.uleb128 0x1
 5948 0171 9C       		.byte	0x9c
ARM GAS  C:\Users\LOCALA~1\AppData\Local\Temp\ccsQji0c.s 			page 143


 5949 0172 93010000 		.4byte	0x193
 5950 0176 0B       		.uleb128 0xb
 5951 0177 5D000000 		.4byte	.LASF20
 5952 017b 01       		.byte	0x1
 5953 017c 32       		.byte	0x32
 5954 017d B0000000 		.4byte	0xb0
 5955 0181 02       		.uleb128 0x2
 5956 0182 91       		.byte	0x91
 5957 0183 74       		.sleb128 -12
 5958 0184 0B       		.uleb128 0xb
 5959 0185 CF030000 		.4byte	.LASF21
 5960 0189 01       		.byte	0x1
 5961 018a 32       		.byte	0x32
 5962 018b B0000000 		.4byte	0xb0
 5963 018f 02       		.uleb128 0x2
 5964 0190 91       		.byte	0x91
 5965 0191 70       		.sleb128 -16
 5966 0192 00       		.byte	0
 5967 0193 0F       		.uleb128 0xf
 5968 0194 4B020000 		.4byte	.LASF23
 5969 0198 01       		.byte	0x1
 5970 0199 3C       		.byte	0x3c
 5971 019a 68000000 		.4byte	0x68
 5972 019e 00000000 		.4byte	.LFB68
 5973 01a2 28000000 		.4byte	.LFE68-.LFB68
 5974 01a6 01       		.uleb128 0x1
 5975 01a7 9C       		.byte	0x9c
 5976 01a8 BB010000 		.4byte	0x1bb
 5977 01ac 0C       		.uleb128 0xc
 5978 01ad 72000000 		.4byte	.LASF25
 5979 01b1 01       		.byte	0x1
 5980 01b2 3D       		.byte	0x3d
 5981 01b3 68000000 		.4byte	0x68
 5982 01b7 02       		.uleb128 0x2
 5983 01b8 91       		.byte	0x91
 5984 01b9 74       		.sleb128 -12
 5985 01ba 00       		.byte	0
 5986 01bb 0A       		.uleb128 0xa
 5987 01bc 13030000 		.4byte	.LASF26
 5988 01c0 01       		.byte	0x1
 5989 01c1 41       		.byte	0x41
 5990 01c2 00000000 		.4byte	.LFB69
 5991 01c6 40000000 		.4byte	.LFE69-.LFB69
 5992 01ca 01       		.uleb128 0x1
 5993 01cb 9C       		.byte	0x9c
 5994 01cc FB010000 		.4byte	0x1fb
 5995 01d0 0B       		.uleb128 0xb
 5996 01d1 5D000000 		.4byte	.LASF20
 5997 01d5 01       		.byte	0x1
 5998 01d6 41       		.byte	0x41
 5999 01d7 B0000000 		.4byte	0xb0
 6000 01db 02       		.uleb128 0x2
 6001 01dc 91       		.byte	0x91
 6002 01dd 5C       		.sleb128 -36
 6003 01de 0B       		.uleb128 0xb
 6004 01df 0E020000 		.4byte	.LASF27
 6005 01e3 01       		.byte	0x1
ARM GAS  C:\Users\LOCALA~1\AppData\Local\Temp\ccsQji0c.s 			page 144


 6006 01e4 41       		.byte	0x41
 6007 01e5 68000000 		.4byte	0x68
 6008 01e9 02       		.uleb128 0x2
 6009 01ea 91       		.byte	0x91
 6010 01eb 58       		.sleb128 -40
 6011 01ec 0C       		.uleb128 0xc
 6012 01ed 01080000 		.4byte	.LASF24
 6013 01f1 01       		.byte	0x1
 6014 01f2 43       		.byte	0x43
 6015 01f3 51010000 		.4byte	0x151
 6016 01f7 02       		.uleb128 0x2
 6017 01f8 91       		.byte	0x91
 6018 01f9 64       		.sleb128 -28
 6019 01fa 00       		.byte	0
 6020 01fb 09       		.uleb128 0x9
 6021 01fc 52040000 		.4byte	.LASF29
 6022 0200 01       		.byte	0x1
 6023 0201 4B       		.byte	0x4b
 6024 0202 00000000 		.4byte	.LFB70
 6025 0206 20000000 		.4byte	.LFE70-.LFB70
 6026 020a 01       		.uleb128 0x1
 6027 020b 9C       		.byte	0x9c
 6028 020c 10       		.uleb128 0x10
 6029 020d 0A030000 		.4byte	.LASF30
 6030 0211 02       		.byte	0x2
 6031 0212 12       		.byte	0x12
 6032 0213 00000000 		.4byte	.LFB71
 6033 0217 1C000000 		.4byte	.LFE71-.LFB71
 6034 021b 01       		.uleb128 0x1
 6035 021c 9C       		.byte	0x9c
 6036 021d 30020000 		.4byte	0x230
 6037 0221 0B       		.uleb128 0xb
 6038 0222 FE080000 		.4byte	.LASF31
 6039 0226 02       		.byte	0x2
 6040 0227 12       		.byte	0x12
 6041 0228 68000000 		.4byte	0x68
 6042 022c 02       		.uleb128 0x2
 6043 022d 91       		.byte	0x91
 6044 022e 74       		.sleb128 -12
 6045 022f 00       		.byte	0
 6046 0230 09       		.uleb128 0x9
 6047 0231 8B050000 		.4byte	.LASF32
 6048 0235 02       		.byte	0x2
 6049 0236 17       		.byte	0x17
 6050 0237 00000000 		.4byte	.LFB72
 6051 023b 54000000 		.4byte	.LFE72-.LFB72
 6052 023f 01       		.uleb128 0x1
 6053 0240 9C       		.byte	0x9c
 6054 0241 0A       		.uleb128 0xa
 6055 0242 9C060000 		.4byte	.LASF33
 6056 0246 03       		.byte	0x3
 6057 0247 19       		.byte	0x19
 6058 0248 00000000 		.4byte	.LFB73
 6059 024c DC000000 		.4byte	.LFE73-.LFB73
 6060 0250 01       		.uleb128 0x1
 6061 0251 9C       		.byte	0x9c
 6062 0252 CB020000 		.4byte	0x2cb
ARM GAS  C:\Users\LOCALA~1\AppData\Local\Temp\ccsQji0c.s 			page 145


 6063 0256 0B       		.uleb128 0xb
 6064 0257 65040000 		.4byte	.LASF34
 6065 025b 03       		.byte	0x3
 6066 025c 19       		.byte	0x19
 6067 025d B0000000 		.4byte	0xb0
 6068 0261 03       		.uleb128 0x3
 6069 0262 91       		.byte	0x91
 6070 0263 B47F     		.sleb128 -76
 6071 0265 0B       		.uleb128 0xb
 6072 0266 EE010000 		.4byte	.LASF35
 6073 026a 03       		.byte	0x3
 6074 026b 19       		.byte	0x19
 6075 026c 68000000 		.4byte	0x68
 6076 0270 03       		.uleb128 0x3
 6077 0271 91       		.byte	0x91
 6078 0272 B07F     		.sleb128 -80
 6079 0274 0B       		.uleb128 0xb
 6080 0275 31000000 		.4byte	.LASF36
 6081 0279 03       		.byte	0x3
 6082 027a 19       		.byte	0x19
 6083 027b 94000000 		.4byte	0x94
 6084 027f 03       		.uleb128 0x3
 6085 0280 91       		.byte	0x91
 6086 0281 A87F     		.sleb128 -88
 6087 0283 0B       		.uleb128 0xb
 6088 0284 10060000 		.4byte	.LASF37
 6089 0288 03       		.byte	0x3
 6090 0289 19       		.byte	0x19
 6091 028a 68000000 		.4byte	0x68
 6092 028e 02       		.uleb128 0x2
 6093 028f 91       		.byte	0x91
 6094 0290 00       		.sleb128 0
 6095 0291 0C       		.uleb128 0xc
 6096 0292 68020000 		.4byte	.LASF38
 6097 0296 03       		.byte	0x3
 6098 0297 1B       		.byte	0x1b
 6099 0298 D1000000 		.4byte	0xd1
 6100 029c 02       		.uleb128 0x2
 6101 029d 91       		.byte	0x91
 6102 029e 6C       		.sleb128 -20
 6103 029f 0C       		.uleb128 0xc
 6104 02a0 9A000000 		.4byte	.LASF39
 6105 02a4 03       		.byte	0x3
 6106 02a5 22       		.byte	0x22
 6107 02a6 CB020000 		.4byte	0x2cb
 6108 02aa 03       		.uleb128 0x3
 6109 02ab 91       		.byte	0x91
 6110 02ac BC7F     		.sleb128 -68
 6111 02ae 0C       		.uleb128 0xc
 6112 02af 6A030000 		.4byte	.LASF40
 6113 02b3 03       		.byte	0x3
 6114 02b4 25       		.byte	0x25
 6115 02b5 68000000 		.4byte	0x68
 6116 02b9 02       		.uleb128 0x2
 6117 02ba 91       		.byte	0x91
 6118 02bb 68       		.sleb128 -24
 6119 02bc 0C       		.uleb128 0xc
ARM GAS  C:\Users\LOCALA~1\AppData\Local\Temp\ccsQji0c.s 			page 146


 6120 02bd 32020000 		.4byte	.LASF41
 6121 02c1 03       		.byte	0x3
 6122 02c2 4A       		.byte	0x4a
 6123 02c3 68000000 		.4byte	0x68
 6124 02c7 02       		.uleb128 0x2
 6125 02c8 91       		.byte	0x91
 6126 02c9 64       		.sleb128 -28
 6127 02ca 00       		.byte	0
 6128 02cb 0D       		.uleb128 0xd
 6129 02cc 9B000000 		.4byte	0x9b
 6130 02d0 DB020000 		.4byte	0x2db
 6131 02d4 0E       		.uleb128 0xe
 6132 02d5 A9000000 		.4byte	0xa9
 6133 02d9 27       		.byte	0x27
 6134 02da 00       		.byte	0
 6135 02db 11       		.uleb128 0x11
 6136 02dc 3B050000 		.4byte	.LASF53
 6137 02e0 03       		.byte	0x3
 6138 02e1 5A       		.byte	0x5a
 6139 02e2 00000000 		.4byte	.LFB74
 6140 02e6 10010000 		.4byte	.LFE74-.LFB74
 6141 02ea 01       		.uleb128 0x1
 6142 02eb 9C       		.byte	0x9c
 6143 02ec 6E030000 		.4byte	0x36e
 6144 02f0 0C       		.uleb128 0xc
 6145 02f1 68020000 		.4byte	.LASF38
 6146 02f5 03       		.byte	0x3
 6147 02f6 5C       		.byte	0x5c
 6148 02f7 D1000000 		.4byte	0xd1
 6149 02fb 02       		.uleb128 0x2
 6150 02fc 91       		.byte	0x91
 6151 02fd 6C       		.sleb128 -20
 6152 02fe 0C       		.uleb128 0xc
 6153 02ff 17000000 		.4byte	.LASF42
 6154 0303 03       		.byte	0x3
 6155 0304 5D       		.byte	0x5d
 6156 0305 6E030000 		.4byte	0x36e
 6157 0309 02       		.uleb128 0x2
 6158 030a 91       		.byte	0x91
 6159 030b 50       		.sleb128 -48
 6160 030c 0C       		.uleb128 0xc
 6161 030d 9A000000 		.4byte	.LASF39
 6162 0311 03       		.byte	0x3
 6163 0312 5E       		.byte	0x5e
 6164 0313 CB020000 		.4byte	0x2cb
 6165 0317 03       		.uleb128 0x3
 6166 0318 91       		.byte	0x91
 6167 0319 A87F     		.sleb128 -88
 6168 031b 12       		.uleb128 0x12
 6169 031c 14000000 		.4byte	.LBB2
 6170 0320 E4000000 		.4byte	.LBE2-.LBB2
 6171 0324 13       		.uleb128 0x13
 6172 0325 6A00     		.ascii	"j\000"
 6173 0327 03       		.byte	0x3
 6174 0328 61       		.byte	0x61
 6175 0329 68000000 		.4byte	0x68
 6176 032d 02       		.uleb128 0x2
ARM GAS  C:\Users\LOCALA~1\AppData\Local\Temp\ccsQji0c.s 			page 147


 6177 032e 91       		.byte	0x91
 6178 032f 68       		.sleb128 -24
 6179 0330 12       		.uleb128 0x12
 6180 0331 1A000000 		.4byte	.LBB3
 6181 0335 D2000000 		.4byte	.LBE3-.LBB3
 6182 0339 13       		.uleb128 0x13
 6183 033a 6900     		.ascii	"i\000"
 6184 033c 03       		.byte	0x3
 6185 033d 63       		.byte	0x63
 6186 033e 68000000 		.4byte	0x68
 6187 0342 02       		.uleb128 0x2
 6188 0343 91       		.byte	0x91
 6189 0344 64       		.sleb128 -28
 6190 0345 12       		.uleb128 0x12
 6191 0346 20000000 		.4byte	.LBB4
 6192 034a BE000000 		.4byte	.LBE4-.LBB4
 6193 034e 0C       		.uleb128 0xc
 6194 034f 6A030000 		.4byte	.LASF40
 6195 0353 03       		.byte	0x3
 6196 0354 6A       		.byte	0x6a
 6197 0355 68000000 		.4byte	0x68
 6198 0359 02       		.uleb128 0x2
 6199 035a 91       		.byte	0x91
 6200 035b 60       		.sleb128 -32
 6201 035c 0C       		.uleb128 0xc
 6202 035d 32020000 		.4byte	.LASF41
 6203 0361 03       		.byte	0x3
 6204 0362 87       		.byte	0x87
 6205 0363 68000000 		.4byte	0x68
 6206 0367 02       		.uleb128 0x2
 6207 0368 91       		.byte	0x91
 6208 0369 5C       		.sleb128 -36
 6209 036a 00       		.byte	0
 6210 036b 00       		.byte	0
 6211 036c 00       		.byte	0
 6212 036d 00       		.byte	0
 6213 036e 0D       		.uleb128 0xd
 6214 036f 9B000000 		.4byte	0x9b
 6215 0373 7E030000 		.4byte	0x37e
 6216 0377 0E       		.uleb128 0xe
 6217 0378 A9000000 		.4byte	0xa9
 6218 037c 0B       		.byte	0xb
 6219 037d 00       		.byte	0
 6220 037e 0A       		.uleb128 0xa
 6221 037f B2020000 		.4byte	.LASF43
 6222 0383 03       		.byte	0x3
 6223 0384 98       		.byte	0x98
 6224 0385 00000000 		.4byte	.LFB75
 6225 0389 FC000000 		.4byte	.LFE75-.LFB75
 6226 038d 01       		.uleb128 0x1
 6227 038e 9C       		.byte	0x9c
 6228 038f 33040000 		.4byte	0x433
 6229 0393 0B       		.uleb128 0xb
 6230 0394 C9020000 		.4byte	.LASF44
 6231 0398 03       		.byte	0x3
 6232 0399 98       		.byte	0x98
 6233 039a 68000000 		.4byte	0x68
ARM GAS  C:\Users\LOCALA~1\AppData\Local\Temp\ccsQji0c.s 			page 148


 6234 039e 03       		.uleb128 0x3
 6235 039f 91       		.byte	0x91
 6236 03a0 AC7F     		.sleb128 -84
 6237 03a2 0B       		.uleb128 0xb
 6238 03a3 C3070000 		.4byte	.LASF45
 6239 03a7 03       		.byte	0x3
 6240 03a8 98       		.byte	0x98
 6241 03a9 9B000000 		.4byte	0x9b
 6242 03ad 03       		.uleb128 0x3
 6243 03ae 91       		.byte	0x91
 6244 03af AB7F     		.sleb128 -85
 6245 03b1 0B       		.uleb128 0xb
 6246 03b2 CA070000 		.4byte	.LASF46
 6247 03b6 03       		.byte	0x3
 6248 03b7 98       		.byte	0x98
 6249 03b8 9B000000 		.4byte	0x9b
 6250 03bc 03       		.uleb128 0x3
 6251 03bd 91       		.byte	0x91
 6252 03be AA7F     		.sleb128 -86
 6253 03c0 0B       		.uleb128 0xb
 6254 03c1 D1070000 		.4byte	.LASF47
 6255 03c5 03       		.byte	0x3
 6256 03c6 98       		.byte	0x98
 6257 03c7 9B000000 		.4byte	0x9b
 6258 03cb 03       		.uleb128 0x3
 6259 03cc 91       		.byte	0x91
 6260 03cd A97F     		.sleb128 -87
 6261 03cf 0B       		.uleb128 0xb
 6262 03d0 77090000 		.4byte	.LASF48
 6263 03d4 03       		.byte	0x3
 6264 03d5 98       		.byte	0x98
 6265 03d6 94000000 		.4byte	0x94
 6266 03da 02       		.uleb128 0x2
 6267 03db 91       		.byte	0x91
 6268 03dc 00       		.sleb128 0
 6269 03dd 0B       		.uleb128 0xb
 6270 03de 5C070000 		.4byte	.LASF49
 6271 03e2 03       		.byte	0x3
 6272 03e3 98       		.byte	0x98
 6273 03e4 68000000 		.4byte	0x68
 6274 03e8 02       		.uleb128 0x2
 6275 03e9 91       		.byte	0x91
 6276 03ea 08       		.sleb128 8
 6277 03eb 0C       		.uleb128 0xc
 6278 03ec 68020000 		.4byte	.LASF38
 6279 03f0 03       		.byte	0x3
 6280 03f1 9A       		.byte	0x9a
 6281 03f2 D1000000 		.4byte	0xd1
 6282 03f6 02       		.uleb128 0x2
 6283 03f7 91       		.byte	0x91
 6284 03f8 6C       		.sleb128 -20
 6285 03f9 0C       		.uleb128 0xc
 6286 03fa CC050000 		.4byte	.LASF50
 6287 03fe 03       		.byte	0x3
 6288 03ff 9C       		.byte	0x9c
 6289 0400 6E030000 		.4byte	0x36e
 6290 0404 02       		.uleb128 0x2
ARM GAS  C:\Users\LOCALA~1\AppData\Local\Temp\ccsQji0c.s 			page 149


 6291 0405 91       		.byte	0x91
 6292 0406 58       		.sleb128 -40
 6293 0407 0C       		.uleb128 0xc
 6294 0408 9A000000 		.4byte	.LASF39
 6295 040c 03       		.byte	0x3
 6296 040d 9D       		.byte	0x9d
 6297 040e CB020000 		.4byte	0x2cb
 6298 0412 03       		.uleb128 0x3
 6299 0413 91       		.byte	0x91
 6300 0414 B07F     		.sleb128 -80
 6301 0416 0C       		.uleb128 0xc
 6302 0417 6A030000 		.4byte	.LASF40
 6303 041b 03       		.byte	0x3
 6304 041c A7       		.byte	0xa7
 6305 041d 68000000 		.4byte	0x68
 6306 0421 02       		.uleb128 0x2
 6307 0422 91       		.byte	0x91
 6308 0423 68       		.sleb128 -24
 6309 0424 0C       		.uleb128 0xc
 6310 0425 32020000 		.4byte	.LASF41
 6311 0429 03       		.byte	0x3
 6312 042a C4       		.byte	0xc4
 6313 042b 68000000 		.4byte	0x68
 6314 042f 02       		.uleb128 0x2
 6315 0430 91       		.byte	0x91
 6316 0431 64       		.sleb128 -28
 6317 0432 00       		.byte	0
 6318 0433 09       		.uleb128 0x9
 6319 0434 CC080000 		.4byte	.LASF51
 6320 0438 03       		.byte	0x3
 6321 0439 D3       		.byte	0xd3
 6322 043a 00000000 		.4byte	.LFB76
 6323 043e 0C000000 		.4byte	.LFE76-.LFB76
 6324 0442 01       		.uleb128 0x1
 6325 0443 9C       		.byte	0x9c
 6326 0444 14       		.uleb128 0x14
 6327 0445 AD090000 		.4byte	.LASF57
 6328 0449 04       		.byte	0x4
 6329 044a 12       		.byte	0x12
 6330 044b 33000000 		.4byte	0x33
 6331 044f 00000000 		.4byte	.LFB77
 6332 0453 1C000000 		.4byte	.LFE77-.LFB77
 6333 0457 01       		.uleb128 0x1
 6334 0458 9C       		.byte	0x9c
 6335 0459 09       		.uleb128 0x9
 6336 045a 9E070000 		.4byte	.LASF52
 6337 045e 04       		.byte	0x4
 6338 045f 18       		.byte	0x18
 6339 0460 00000000 		.4byte	.LFB78
 6340 0464 18000000 		.4byte	.LFE78-.LFB78
 6341 0468 01       		.uleb128 0x1
 6342 0469 9C       		.byte	0x9c
 6343 046a 11       		.uleb128 0x11
 6344 046b 4F080000 		.4byte	.LASF54
 6345 046f 05       		.byte	0x5
 6346 0470 1B       		.byte	0x1b
 6347 0471 00000000 		.4byte	.LFB79
ARM GAS  C:\Users\LOCALA~1\AppData\Local\Temp\ccsQji0c.s 			page 150


 6348 0475 64000000 		.4byte	.LFE79-.LFB79
 6349 0479 01       		.uleb128 0x1
 6350 047a 9C       		.byte	0x9c
 6351 047b AC040000 		.4byte	0x4ac
 6352 047f 12       		.uleb128 0x12
 6353 0480 06000000 		.4byte	.LBB5
 6354 0484 4C000000 		.4byte	.LBE5-.LBB5
 6355 0488 13       		.uleb128 0x13
 6356 0489 6900     		.ascii	"i\000"
 6357 048b 05       		.byte	0x5
 6358 048c 1D       		.byte	0x1d
 6359 048d 68000000 		.4byte	0x68
 6360 0491 02       		.uleb128 0x2
 6361 0492 91       		.byte	0x91
 6362 0493 74       		.sleb128 -12
 6363 0494 12       		.uleb128 0x12
 6364 0495 0C000000 		.4byte	.LBB6
 6365 0499 3A000000 		.4byte	.LBE6-.LBB6
 6366 049d 13       		.uleb128 0x13
 6367 049e 6A00     		.ascii	"j\000"
 6368 04a0 05       		.byte	0x5
 6369 04a1 1F       		.byte	0x1f
 6370 04a2 68000000 		.4byte	0x68
 6371 04a6 02       		.uleb128 0x2
 6372 04a7 91       		.byte	0x91
 6373 04a8 70       		.sleb128 -16
 6374 04a9 00       		.byte	0
 6375 04aa 00       		.byte	0
 6376 04ab 00       		.byte	0
 6377 04ac 15       		.uleb128 0x15
 6378 04ad D9050000 		.4byte	.LASF75
 6379 04b1 05       		.byte	0x5
 6380 04b2 27       		.byte	0x27
 6381 04b3 68000000 		.4byte	0x68
 6382 04b7 00000000 		.4byte	.LFB80
 6383 04bb C8000000 		.4byte	.LFE80-.LFB80
 6384 04bf 01       		.uleb128 0x1
 6385 04c0 9C       		.byte	0x9c
 6386 04c1 0E050000 		.4byte	0x50e
 6387 04c5 0B       		.uleb128 0xb
 6388 04c6 0D000000 		.4byte	.LASF55
 6389 04ca 05       		.byte	0x5
 6390 04cb 27       		.byte	0x27
 6391 04cc 9B000000 		.4byte	0x9b
 6392 04d0 02       		.uleb128 0x2
 6393 04d1 91       		.byte	0x91
 6394 04d2 67       		.sleb128 -25
 6395 04d3 0C       		.uleb128 0xc
 6396 04d4 500A0000 		.4byte	.LASF56
 6397 04d8 05       		.byte	0x5
 6398 04d9 29       		.byte	0x29
 6399 04da 68000000 		.4byte	0x68
 6400 04de 02       		.uleb128 0x2
 6401 04df 91       		.byte	0x91
 6402 04e0 6C       		.sleb128 -20
 6403 04e1 12       		.uleb128 0x12
 6404 04e2 0E000000 		.4byte	.LBB7
ARM GAS  C:\Users\LOCALA~1\AppData\Local\Temp\ccsQji0c.s 			page 151


 6405 04e6 A6000000 		.4byte	.LBE7-.LBB7
 6406 04ea 13       		.uleb128 0x13
 6407 04eb 6900     		.ascii	"i\000"
 6408 04ed 05       		.byte	0x5
 6409 04ee 2B       		.byte	0x2b
 6410 04ef 68000000 		.4byte	0x68
 6411 04f3 02       		.uleb128 0x2
 6412 04f4 91       		.byte	0x91
 6413 04f5 74       		.sleb128 -12
 6414 04f6 12       		.uleb128 0x12
 6415 04f7 14000000 		.4byte	.LBB8
 6416 04fb 94000000 		.4byte	.LBE8-.LBB8
 6417 04ff 13       		.uleb128 0x13
 6418 0500 6A00     		.ascii	"j\000"
 6419 0502 05       		.byte	0x5
 6420 0503 2D       		.byte	0x2d
 6421 0504 68000000 		.4byte	0x68
 6422 0508 02       		.uleb128 0x2
 6423 0509 91       		.byte	0x91
 6424 050a 70       		.sleb128 -16
 6425 050b 00       		.byte	0
 6426 050c 00       		.byte	0
 6427 050d 00       		.byte	0
 6428 050e 14       		.uleb128 0x14
 6429 050f 7F000000 		.4byte	.LASF58
 6430 0513 05       		.byte	0x5
 6431 0514 42       		.byte	0x42
 6432 0515 68000000 		.4byte	0x68
 6433 0519 00000000 		.4byte	.LFB81
 6434 051d 50000000 		.4byte	.LFE81-.LFB81
 6435 0521 01       		.uleb128 0x1
 6436 0522 9C       		.byte	0x9c
 6437 0523 0A       		.uleb128 0xa
 6438 0524 17070000 		.4byte	.LASF59
 6439 0528 06       		.byte	0x6
 6440 0529 17       		.byte	0x17
 6441 052a 00000000 		.4byte	.LFB82
 6442 052e 8C000000 		.4byte	.LFE82-.LFB82
 6443 0532 01       		.uleb128 0x1
 6444 0533 9C       		.byte	0x9c
 6445 0534 47050000 		.4byte	0x547
 6446 0538 0C       		.uleb128 0xc
 6447 0539 31050000 		.4byte	.LASF60
 6448 053d 06       		.byte	0x6
 6449 053e 19       		.byte	0x19
 6450 053f 9B000000 		.4byte	0x9b
 6451 0543 02       		.uleb128 0x2
 6452 0544 91       		.byte	0x91
 6453 0545 77       		.sleb128 -9
 6454 0546 00       		.byte	0
 6455 0547 0A       		.uleb128 0xa
 6456 0548 4A050000 		.4byte	.LASF61
 6457 054c 07       		.byte	0x7
 6458 054d 13       		.byte	0x13
 6459 054e 00000000 		.4byte	.LFB83
 6460 0552 3C000000 		.4byte	.LFE83-.LFB83
 6461 0556 01       		.uleb128 0x1
ARM GAS  C:\Users\LOCALA~1\AppData\Local\Temp\ccsQji0c.s 			page 152


 6462 0557 9C       		.byte	0x9c
 6463 0558 71050000 		.4byte	0x571
 6464 055c 16       		.uleb128 0x16
 6465 055d 00000000 		.4byte	.Ldebug_ranges0+0
 6466 0561 0C       		.uleb128 0xc
 6467 0562 31050000 		.4byte	.LASF60
 6468 0566 07       		.byte	0x7
 6469 0567 17       		.byte	0x17
 6470 0568 9B000000 		.4byte	0x9b
 6471 056c 02       		.uleb128 0x2
 6472 056d 91       		.byte	0x91
 6473 056e 77       		.sleb128 -9
 6474 056f 00       		.byte	0
 6475 0570 00       		.byte	0
 6476 0571 17       		.uleb128 0x17
 6477 0572 230A0000 		.4byte	.LASF62
 6478 0576 08       		.byte	0x8
 6479 0577 13       		.byte	0x13
 6480 0578 00000000 		.4byte	.LFB84
 6481 057c E0000000 		.4byte	.LFE84-.LFB84
 6482 0580 01       		.uleb128 0x1
 6483 0581 9C       		.byte	0x9c
 6484 0582 0A       		.uleb128 0xa
 6485 0583 91080000 		.4byte	.LASF63
 6486 0587 09       		.byte	0x9
 6487 0588 1C       		.byte	0x1c
 6488 0589 00000000 		.4byte	.LFB85
 6489 058d 1A000000 		.4byte	.LFE85-.LFB85
 6490 0591 01       		.uleb128 0x1
 6491 0592 9C       		.byte	0x9c
 6492 0593 A6050000 		.4byte	0x5a6
 6493 0597 0B       		.uleb128 0xb
 6494 0598 62020000 		.4byte	.LASF64
 6495 059c 09       		.byte	0x9
 6496 059d 1C       		.byte	0x1c
 6497 059e 9B000000 		.4byte	0x9b
 6498 05a2 02       		.uleb128 0x2
 6499 05a3 91       		.byte	0x91
 6500 05a4 77       		.sleb128 -9
 6501 05a5 00       		.byte	0
 6502 05a6 09       		.uleb128 0x9
 6503 05a7 78050000 		.4byte	.LASF65
 6504 05ab 09       		.byte	0x9
 6505 05ac 23       		.byte	0x23
 6506 05ad 00000000 		.4byte	.LFB86
 6507 05b1 44000000 		.4byte	.LFE86-.LFB86
 6508 05b5 01       		.uleb128 0x1
 6509 05b6 9C       		.byte	0x9c
 6510 05b7 0A       		.uleb128 0xa
 6511 05b8 2A080000 		.4byte	.LASF66
 6512 05bc 0A       		.byte	0xa
 6513 05bd 14       		.byte	0x14
 6514 05be 00000000 		.4byte	.LFB87
 6515 05c2 28000000 		.4byte	.LFE87-.LFB87
 6516 05c6 01       		.uleb128 0x1
 6517 05c7 9C       		.byte	0x9c
 6518 05c8 DB050000 		.4byte	0x5db
ARM GAS  C:\Users\LOCALA~1\AppData\Local\Temp\ccsQji0c.s 			page 153


 6519 05cc 0B       		.uleb128 0xb
 6520 05cd DB090000 		.4byte	.LASF67
 6521 05d1 0A       		.byte	0xa
 6522 05d2 14       		.byte	0x14
 6523 05d3 68000000 		.4byte	0x68
 6524 05d7 02       		.uleb128 0x2
 6525 05d8 91       		.byte	0x91
 6526 05d9 74       		.sleb128 -12
 6527 05da 00       		.byte	0
 6528 05db 09       		.uleb128 0x9
 6529 05dc 9A020000 		.4byte	.LASF68
 6530 05e0 0A       		.byte	0xa
 6531 05e1 1A       		.byte	0x1a
 6532 05e2 00000000 		.4byte	.LFB88
 6533 05e6 30000000 		.4byte	.LFE88-.LFB88
 6534 05ea 01       		.uleb128 0x1
 6535 05eb 9C       		.byte	0x9c
 6536 05ec 0A       		.uleb128 0xa
 6537 05ed 10070000 		.4byte	.LASF69
 6538 05f1 0A       		.byte	0xa
 6539 05f2 20       		.byte	0x20
 6540 05f3 00000000 		.4byte	.LFB89
 6541 05f7 28000000 		.4byte	.LFE89-.LFB89
 6542 05fb 01       		.uleb128 0x1
 6543 05fc 9C       		.byte	0x9c
 6544 05fd 10060000 		.4byte	0x610
 6545 0601 0B       		.uleb128 0xb
 6546 0602 DB090000 		.4byte	.LASF67
 6547 0606 0A       		.byte	0xa
 6548 0607 20       		.byte	0x20
 6549 0608 68000000 		.4byte	0x68
 6550 060c 02       		.uleb128 0x2
 6551 060d 91       		.byte	0x91
 6552 060e 74       		.sleb128 -12
 6553 060f 00       		.byte	0
 6554 0610 09       		.uleb128 0x9
 6555 0611 2B040000 		.4byte	.LASF70
 6556 0615 0A       		.byte	0xa
 6557 0616 26       		.byte	0x26
 6558 0617 00000000 		.4byte	.LFB90
 6559 061b 30000000 		.4byte	.LFE90-.LFB90
 6560 061f 01       		.uleb128 0x1
 6561 0620 9C       		.byte	0x9c
 6562 0621 0A       		.uleb128 0xa
 6563 0622 36080000 		.4byte	.LASF71
 6564 0626 0A       		.byte	0xa
 6565 0627 2C       		.byte	0x2c
 6566 0628 00000000 		.4byte	.LFB91
 6567 062c 28000000 		.4byte	.LFE91-.LFB91
 6568 0630 01       		.uleb128 0x1
 6569 0631 9C       		.byte	0x9c
 6570 0632 45060000 		.4byte	0x645
 6571 0636 0B       		.uleb128 0xb
 6572 0637 DB090000 		.4byte	.LASF67
 6573 063b 0A       		.byte	0xa
 6574 063c 2C       		.byte	0x2c
 6575 063d 68000000 		.4byte	0x68
ARM GAS  C:\Users\LOCALA~1\AppData\Local\Temp\ccsQji0c.s 			page 154


 6576 0641 02       		.uleb128 0x2
 6577 0642 91       		.byte	0x91
 6578 0643 74       		.sleb128 -12
 6579 0644 00       		.byte	0
 6580 0645 09       		.uleb128 0x9
 6581 0646 64000000 		.4byte	.LASF72
 6582 064a 0A       		.byte	0xa
 6583 064b 32       		.byte	0x32
 6584 064c 00000000 		.4byte	.LFB92
 6585 0650 30000000 		.4byte	.LFE92-.LFB92
 6586 0654 01       		.uleb128 0x1
 6587 0655 9C       		.byte	0x9c
 6588 0656 09       		.uleb128 0x9
 6589 0657 35090000 		.4byte	.LASF73
 6590 065b 0A       		.byte	0xa
 6591 065c 38       		.byte	0x38
 6592 065d 00000000 		.4byte	.LFB93
 6593 0661 1A000000 		.4byte	.LFE93-.LFB93
 6594 0665 01       		.uleb128 0x1
 6595 0666 9C       		.byte	0x9c
 6596 0667 09       		.uleb128 0x9
 6597 0668 98050000 		.4byte	.LASF74
 6598 066c 0B       		.byte	0xb
 6599 066d 13       		.byte	0x13
 6600 066e 00000000 		.4byte	.LFB94
 6601 0672 1C000000 		.4byte	.LFE94-.LFB94
 6602 0676 01       		.uleb128 0x1
 6603 0677 9C       		.byte	0x9c
 6604 0678 15       		.uleb128 0x15
 6605 0679 E9090000 		.4byte	.LASF76
 6606 067d 0C       		.byte	0xc
 6607 067e 19       		.byte	0x19
 6608 067f 68000000 		.4byte	0x68
 6609 0683 00000000 		.4byte	.LFB95
 6610 0687 70040000 		.4byte	.LFE95-.LFB95
 6611 068b 01       		.uleb128 0x1
 6612 068c 9C       		.byte	0x9c
 6613 068d CA060000 		.4byte	0x6ca
 6614 0691 0B       		.uleb128 0xb
 6615 0692 DD060000 		.4byte	.LASF77
 6616 0696 0C       		.byte	0xc
 6617 0697 19       		.byte	0x19
 6618 0698 BC000000 		.4byte	0xbc
 6619 069c 02       		.uleb128 0x2
 6620 069d 91       		.byte	0x91
 6621 069e 6F       		.sleb128 -17
 6622 069f 0C       		.uleb128 0xc
 6623 06a0 63030000 		.4byte	.LASF78
 6624 06a4 0C       		.byte	0xc
 6625 06a5 1F       		.byte	0x1f
 6626 06a6 68000000 		.4byte	0x68
 6627 06aa 02       		.uleb128 0x2
 6628 06ab 91       		.byte	0x91
 6629 06ac 74       		.sleb128 -12
 6630 06ad 0C       		.uleb128 0xc
 6631 06ae 20040000 		.4byte	.LASF79
 6632 06b2 0C       		.byte	0xc
ARM GAS  C:\Users\LOCALA~1\AppData\Local\Temp\ccsQji0c.s 			page 155


 6633 06b3 20       		.byte	0x20
 6634 06b4 9B000000 		.4byte	0x9b
 6635 06b8 02       		.uleb128 0x2
 6636 06b9 91       		.byte	0x91
 6637 06ba 73       		.sleb128 -13
 6638 06bb 0C       		.uleb128 0xc
 6639 06bc B0010000 		.4byte	.LASF80
 6640 06c0 0C       		.byte	0xc
 6641 06c1 21       		.byte	0x21
 6642 06c2 9B000000 		.4byte	0x9b
 6643 06c6 02       		.uleb128 0x2
 6644 06c7 91       		.byte	0x91
 6645 06c8 72       		.sleb128 -14
 6646 06c9 00       		.byte	0
 6647 06ca 0A       		.uleb128 0xa
 6648 06cb 8E030000 		.4byte	.LASF81
 6649 06cf 0D       		.byte	0xd
 6650 06d0 23       		.byte	0x23
 6651 06d1 00000000 		.4byte	.LFB96
 6652 06d5 38010000 		.4byte	.LFE96-.LFB96
 6653 06d9 01       		.uleb128 0x1
 6654 06da 9C       		.byte	0x9c
 6655 06db 18070000 		.4byte	0x718
 6656 06df 0B       		.uleb128 0xb
 6657 06e0 7D090000 		.4byte	.LASF82
 6658 06e4 0D       		.byte	0xd
 6659 06e5 23       		.byte	0x23
 6660 06e6 8D000000 		.4byte	0x8d
 6661 06ea 02       		.uleb128 0x2
 6662 06eb 91       		.byte	0x91
 6663 06ec 54       		.sleb128 -44
 6664 06ed 0B       		.uleb128 0xb
 6665 06ee 24060000 		.4byte	.LASF83
 6666 06f2 0D       		.byte	0xd
 6667 06f3 23       		.byte	0x23
 6668 06f4 8D000000 		.4byte	0x8d
 6669 06f8 02       		.uleb128 0x2
 6670 06f9 91       		.byte	0x91
 6671 06fa 50       		.sleb128 -48
 6672 06fb 0B       		.uleb128 0xb
 6673 06fc F6030000 		.4byte	.LASF84
 6674 0700 0D       		.byte	0xd
 6675 0701 23       		.byte	0x23
 6676 0702 8D000000 		.4byte	0x8d
 6677 0706 02       		.uleb128 0x2
 6678 0707 91       		.byte	0x91
 6679 0708 4C       		.sleb128 -52
 6680 0709 0C       		.uleb128 0xc
 6681 070a 01080000 		.4byte	.LASF24
 6682 070e 0D       		.byte	0xd
 6683 070f 26       		.byte	0x26
 6684 0710 51010000 		.4byte	0x151
 6685 0714 02       		.uleb128 0x2
 6686 0715 91       		.byte	0x91
 6687 0716 5C       		.sleb128 -36
 6688 0717 00       		.byte	0
 6689 0718 0A       		.uleb128 0xa
ARM GAS  C:\Users\LOCALA~1\AppData\Local\Temp\ccsQji0c.s 			page 156


 6690 0719 E5050000 		.4byte	.LASF85
 6691 071d 0E       		.byte	0xe
 6692 071e 1C       		.byte	0x1c
 6693 071f 00000000 		.4byte	.LFB97
 6694 0723 BC020000 		.4byte	.LFE97-.LFB97
 6695 0727 01       		.uleb128 0x1
 6696 0728 9C       		.byte	0x9c
 6697 0729 9F070000 		.4byte	0x79f
 6698 072d 0B       		.uleb128 0xb
 6699 072e 180A0000 		.4byte	.LASF86
 6700 0732 0E       		.byte	0xe
 6701 0733 1C       		.byte	0x1c
 6702 0734 94000000 		.4byte	0x94
 6703 0738 03       		.uleb128 0x3
 6704 0739 91       		.byte	0x91
 6705 073a B07F     		.sleb128 -80
 6706 073c 18       		.uleb128 0x18
 6707 073d 64697200 		.ascii	"dir\000"
 6708 0741 0E       		.byte	0xe
 6709 0742 1C       		.byte	0x1c
 6710 0743 94000000 		.4byte	0x94
 6711 0747 03       		.uleb128 0x3
 6712 0748 91       		.byte	0x91
 6713 0749 A87F     		.sleb128 -88
 6714 074b 0C       		.uleb128 0xc
 6715 074c 7D040000 		.4byte	.LASF87
 6716 0750 0E       		.byte	0xe
 6717 0751 23       		.byte	0x23
 6718 0752 94000000 		.4byte	0x94
 6719 0756 02       		.uleb128 0x2
 6720 0757 91       		.byte	0x91
 6721 0758 58       		.sleb128 -40
 6722 0759 0C       		.uleb128 0xc
 6723 075a 5C0A0000 		.4byte	.LASF88
 6724 075e 0E       		.byte	0xe
 6725 075f 25       		.byte	0x25
 6726 0760 94000000 		.4byte	0x94
 6727 0764 02       		.uleb128 0x2
 6728 0765 91       		.byte	0x91
 6729 0766 40       		.sleb128 -64
 6730 0767 13       		.uleb128 0x13
 6731 0768 6900     		.ascii	"i\000"
 6732 076a 0E       		.byte	0xe
 6733 076b 27       		.byte	0x27
 6734 076c 68000000 		.4byte	0x68
 6735 0770 02       		.uleb128 0x2
 6736 0771 91       		.byte	0x91
 6737 0772 64       		.sleb128 -28
 6738 0773 0C       		.uleb128 0xc
 6739 0774 37030000 		.4byte	.LASF89
 6740 0778 0E       		.byte	0xe
 6741 0779 29       		.byte	0x29
 6742 077a 94000000 		.4byte	0x94
 6743 077e 03       		.uleb128 0x3
 6744 077f 91       		.byte	0x91
 6745 0780 B87F     		.sleb128 -72
 6746 0782 0C       		.uleb128 0xc
ARM GAS  C:\Users\LOCALA~1\AppData\Local\Temp\ccsQji0c.s 			page 157


 6747 0783 A8020000 		.4byte	.LASF90
 6748 0787 0E       		.byte	0xe
 6749 0788 2B       		.byte	0x2b
 6750 0789 94000000 		.4byte	0x94
 6751 078d 02       		.uleb128 0x2
 6752 078e 91       		.byte	0x91
 6753 078f 50       		.sleb128 -48
 6754 0790 0C       		.uleb128 0xc
 6755 0791 27000000 		.4byte	.LASF91
 6756 0795 0E       		.byte	0xe
 6757 0796 2D       		.byte	0x2d
 6758 0797 94000000 		.4byte	0x94
 6759 079b 02       		.uleb128 0x2
 6760 079c 91       		.byte	0x91
 6761 079d 48       		.sleb128 -56
 6762 079e 00       		.byte	0
 6763 079f 0A       		.uleb128 0xa
 6764 07a0 38010000 		.4byte	.LASF92
 6765 07a4 0E       		.byte	0xe
 6766 07a5 66       		.byte	0x66
 6767 07a6 00000000 		.4byte	.LFB98
 6768 07aa B4000000 		.4byte	.LFE98-.LFB98
 6769 07ae 01       		.uleb128 0x1
 6770 07af 9C       		.byte	0x9c
 6771 07b0 EB070000 		.4byte	0x7eb
 6772 07b4 0B       		.uleb128 0xb
 6773 07b5 180A0000 		.4byte	.LASF86
 6774 07b9 0E       		.byte	0xe
 6775 07ba 66       		.byte	0x66
 6776 07bb 94000000 		.4byte	0x94
 6777 07bf 02       		.uleb128 0x2
 6778 07c0 91       		.byte	0x91
 6779 07c1 58       		.sleb128 -40
 6780 07c2 18       		.uleb128 0x18
 6781 07c3 64697200 		.ascii	"dir\000"
 6782 07c7 0E       		.byte	0xe
 6783 07c8 66       		.byte	0x66
 6784 07c9 94000000 		.4byte	0x94
 6785 07cd 02       		.uleb128 0x2
 6786 07ce 91       		.byte	0x91
 6787 07cf 50       		.sleb128 -48
 6788 07d0 13       		.uleb128 0x13
 6789 07d1 6900     		.ascii	"i\000"
 6790 07d3 0E       		.byte	0xe
 6791 07d4 6D       		.byte	0x6d
 6792 07d5 68000000 		.4byte	0x68
 6793 07d9 02       		.uleb128 0x2
 6794 07da 91       		.byte	0x91
 6795 07db 6C       		.sleb128 -20
 6796 07dc 0C       		.uleb128 0xc
 6797 07dd 37030000 		.4byte	.LASF89
 6798 07e1 0E       		.byte	0xe
 6799 07e2 6F       		.byte	0x6f
 6800 07e3 94000000 		.4byte	0x94
 6801 07e7 02       		.uleb128 0x2
 6802 07e8 91       		.byte	0x91
 6803 07e9 60       		.sleb128 -32
ARM GAS  C:\Users\LOCALA~1\AppData\Local\Temp\ccsQji0c.s 			page 158


 6804 07ea 00       		.byte	0
 6805 07eb 09       		.uleb128 0x9
 6806 07ec 7D050000 		.4byte	.LASF93
 6807 07f0 0E       		.byte	0xe
 6808 07f1 8B       		.byte	0x8b
 6809 07f2 00000000 		.4byte	.LFB99
 6810 07f6 1C000000 		.4byte	.LFE99-.LFB99
 6811 07fa 01       		.uleb128 0x1
 6812 07fb 9C       		.byte	0x9c
 6813 07fc 09       		.uleb128 0x9
 6814 07fd 70080000 		.4byte	.LASF94
 6815 0801 0E       		.byte	0xe
 6816 0802 90       		.byte	0x90
 6817 0803 00000000 		.4byte	.LFB100
 6818 0807 20000000 		.4byte	.LFE100-.LFB100
 6819 080b 01       		.uleb128 0x1
 6820 080c 9C       		.byte	0x9c
 6821 080d 11       		.uleb128 0x11
 6822 080e C0030000 		.4byte	.LASF95
 6823 0812 0E       		.byte	0xe
 6824 0813 95       		.byte	0x95
 6825 0814 00000000 		.4byte	.LFB101
 6826 0818 28000000 		.4byte	.LFE101-.LFB101
 6827 081c 01       		.uleb128 0x1
 6828 081d 9C       		.byte	0x9c
 6829 081e 31080000 		.4byte	0x831
 6830 0822 0C       		.uleb128 0xc
 6831 0823 8B060000 		.4byte	.LASF96
 6832 0827 0E       		.byte	0xe
 6833 0828 97       		.byte	0x97
 6834 0829 68000000 		.4byte	0x68
 6835 082d 02       		.uleb128 0x2
 6836 082e 91       		.byte	0x91
 6837 082f 74       		.sleb128 -12
 6838 0830 00       		.byte	0
 6839 0831 11       		.uleb128 0x11
 6840 0832 4D000000 		.4byte	.LASF97
 6841 0836 0E       		.byte	0xe
 6842 0837 9B       		.byte	0x9b
 6843 0838 00000000 		.4byte	.LFB102
 6844 083c 28000000 		.4byte	.LFE102-.LFB102
 6845 0840 01       		.uleb128 0x1
 6846 0841 9C       		.byte	0x9c
 6847 0842 55080000 		.4byte	0x855
 6848 0846 0C       		.uleb128 0xc
 6849 0847 8B060000 		.4byte	.LASF96
 6850 084b 0E       		.byte	0xe
 6851 084c 9D       		.byte	0x9d
 6852 084d 68000000 		.4byte	0x68
 6853 0851 02       		.uleb128 0x2
 6854 0852 91       		.byte	0x91
 6855 0853 74       		.sleb128 -12
 6856 0854 00       		.byte	0
 6857 0855 09       		.uleb128 0x9
 6858 0856 03090000 		.4byte	.LASF98
 6859 085a 0E       		.byte	0xe
 6860 085b A1       		.byte	0xa1
ARM GAS  C:\Users\LOCALA~1\AppData\Local\Temp\ccsQji0c.s 			page 159


 6861 085c 00000000 		.4byte	.LFB103
 6862 0860 20000000 		.4byte	.LFE103-.LFB103
 6863 0864 01       		.uleb128 0x1
 6864 0865 9C       		.byte	0x9c
 6865 0866 09       		.uleb128 0x9
 6866 0867 DA040000 		.4byte	.LASF99
 6867 086b 0E       		.byte	0xe
 6868 086c A6       		.byte	0xa6
 6869 086d 00000000 		.4byte	.LFB104
 6870 0871 20000000 		.4byte	.LFE104-.LFB104
 6871 0875 01       		.uleb128 0x1
 6872 0876 9C       		.byte	0x9c
 6873 0877 09       		.uleb128 0x9
 6874 0878 D8080000 		.4byte	.LASF100
 6875 087c 0E       		.byte	0xe
 6876 087d AB       		.byte	0xab
 6877 087e 00000000 		.4byte	.LFB105
 6878 0882 32000000 		.4byte	.LFE105-.LFB105
 6879 0886 01       		.uleb128 0x1
 6880 0887 9C       		.byte	0x9c
 6881 0888 0A       		.uleb128 0xa
 6882 0889 84080000 		.4byte	.LASF101
 6883 088d 0F       		.byte	0xf
 6884 088e 19       		.byte	0x19
 6885 088f 00000000 		.4byte	.LFB106
 6886 0893 A8000000 		.4byte	.LFE106-.LFB106
 6887 0897 01       		.uleb128 0x1
 6888 0898 9C       		.byte	0x9c
 6889 0899 AC080000 		.4byte	0x8ac
 6890 089d 0B       		.uleb128 0xb
 6891 089e 46090000 		.4byte	.LASF102
 6892 08a2 0F       		.byte	0xf
 6893 08a3 19       		.byte	0x19
 6894 08a4 BC000000 		.4byte	0xbc
 6895 08a8 02       		.uleb128 0x2
 6896 08a9 91       		.byte	0x91
 6897 08aa 77       		.sleb128 -9
 6898 08ab 00       		.byte	0
 6899 08ac 0A       		.uleb128 0xa
 6900 08ad 67090000 		.4byte	.LASF103
 6901 08b1 0F       		.byte	0xf
 6902 08b2 45       		.byte	0x45
 6903 08b3 00000000 		.4byte	.LFB107
 6904 08b7 DC000000 		.4byte	.LFE107-.LFB107
 6905 08bb 01       		.uleb128 0x1
 6906 08bc 9C       		.byte	0x9c
 6907 08bd D0080000 		.4byte	0x8d0
 6908 08c1 0B       		.uleb128 0xb
 6909 08c2 46090000 		.4byte	.LASF102
 6910 08c6 0F       		.byte	0xf
 6911 08c7 45       		.byte	0x45
 6912 08c8 BC000000 		.4byte	0xbc
 6913 08cc 02       		.uleb128 0x2
 6914 08cd 91       		.byte	0x91
 6915 08ce 77       		.sleb128 -9
 6916 08cf 00       		.byte	0
 6917 08d0 19       		.uleb128 0x19
ARM GAS  C:\Users\LOCALA~1\AppData\Local\Temp\ccsQji0c.s 			page 160


 6918 08d1 8A090000 		.4byte	.LASF104
 6919 08d5 0F       		.byte	0xf
 6920 08d6 6A       		.byte	0x6a
 6921 08d7 68000000 		.4byte	0x68
 6922 08db 00000000 		.4byte	.LFB108
 6923 08df D0000000 		.4byte	.LFE108-.LFB108
 6924 08e3 01       		.uleb128 0x1
 6925 08e4 9C       		.byte	0x9c
 6926 08e5 02090000 		.4byte	0x902
 6927 08e9 12       		.uleb128 0x12
 6928 08ea 3E000000 		.4byte	.LBB11
 6929 08ee 34000000 		.4byte	.LBE11-.LBB11
 6930 08f2 0C       		.uleb128 0xc
 6931 08f3 5C070000 		.4byte	.LASF49
 6932 08f7 0F       		.byte	0xf
 6933 08f8 82       		.byte	0x82
 6934 08f9 68000000 		.4byte	0x68
 6935 08fd 02       		.uleb128 0x2
 6936 08fe 91       		.byte	0x91
 6937 08ff 6C       		.sleb128 -20
 6938 0900 00       		.byte	0
 6939 0901 00       		.byte	0
 6940 0902 0A       		.uleb128 0xa
 6941 0903 01050000 		.4byte	.LASF105
 6942 0907 10       		.byte	0x10
 6943 0908 1D       		.byte	0x1d
 6944 0909 00000000 		.4byte	.LFB109
 6945 090d BC000000 		.4byte	.LFE109-.LFB109
 6946 0911 01       		.uleb128 0x1
 6947 0912 9C       		.byte	0x9c
 6948 0913 5E090000 		.4byte	0x95e
 6949 0917 0B       		.uleb128 0xb
 6950 0918 2C060000 		.4byte	.LASF106
 6951 091c 10       		.byte	0x10
 6952 091d 1D       		.byte	0x1d
 6953 091e 68000000 		.4byte	0x68
 6954 0922 02       		.uleb128 0x2
 6955 0923 91       		.byte	0x91
 6956 0924 5C       		.sleb128 -36
 6957 0925 0B       		.uleb128 0xb
 6958 0926 32060000 		.4byte	.LASF107
 6959 092a 10       		.byte	0x10
 6960 092b 1D       		.byte	0x1d
 6961 092c 68000000 		.4byte	0x68
 6962 0930 02       		.uleb128 0x2
 6963 0931 91       		.byte	0x91
 6964 0932 58       		.sleb128 -40
 6965 0933 0B       		.uleb128 0xb
 6966 0934 E2090000 		.4byte	.LASF108
 6967 0938 10       		.byte	0x10
 6968 0939 1D       		.byte	0x1d
 6969 093a 68000000 		.4byte	0x68
 6970 093e 02       		.uleb128 0x2
 6971 093f 91       		.byte	0x91
 6972 0940 54       		.sleb128 -44
 6973 0941 0B       		.uleb128 0xb
 6974 0942 5F040000 		.4byte	.LASF109
ARM GAS  C:\Users\LOCALA~1\AppData\Local\Temp\ccsQji0c.s 			page 161


 6975 0946 10       		.byte	0x10
 6976 0947 1D       		.byte	0x1d
 6977 0948 68000000 		.4byte	0x68
 6978 094c 02       		.uleb128 0x2
 6979 094d 91       		.byte	0x91
 6980 094e 50       		.sleb128 -48
 6981 094f 0C       		.uleb128 0xc
 6982 0950 01080000 		.4byte	.LASF24
 6983 0954 10       		.byte	0x10
 6984 0955 1F       		.byte	0x1f
 6985 0956 51010000 		.4byte	0x151
 6986 095a 02       		.uleb128 0x2
 6987 095b 91       		.byte	0x91
 6988 095c 64       		.sleb128 -28
 6989 095d 00       		.byte	0
 6990 095e 0A       		.uleb128 0xa
 6991 095f 15080000 		.4byte	.LASF110
 6992 0963 10       		.byte	0x10
 6993 0964 32       		.byte	0x32
 6994 0965 00000000 		.4byte	.LFB110
 6995 0969 64000000 		.4byte	.LFE110-.LFB110
 6996 096d 01       		.uleb128 0x1
 6997 096e 9C       		.byte	0x9c
 6998 096f AC090000 		.4byte	0x9ac
 6999 0973 0B       		.uleb128 0xb
 7000 0974 91050000 		.4byte	.LASF111
 7001 0978 10       		.byte	0x10
 7002 0979 32       		.byte	0x32
 7003 097a 68000000 		.4byte	0x68
 7004 097e 02       		.uleb128 0x2
 7005 097f 91       		.byte	0x91
 7006 0980 6C       		.sleb128 -20
 7007 0981 0B       		.uleb128 0xb
 7008 0982 CF090000 		.4byte	.LASF112
 7009 0986 10       		.byte	0x10
 7010 0987 32       		.byte	0x32
 7011 0988 68000000 		.4byte	0x68
 7012 098c 02       		.uleb128 0x2
 7013 098d 91       		.byte	0x91
 7014 098e 68       		.sleb128 -24
 7015 098f 0C       		.uleb128 0xc
 7016 0990 02020000 		.4byte	.LASF113
 7017 0994 10       		.byte	0x10
 7018 0995 35       		.byte	0x35
 7019 0996 68000000 		.4byte	0x68
 7020 099a 02       		.uleb128 0x2
 7021 099b 91       		.byte	0x91
 7022 099c 74       		.sleb128 -12
 7023 099d 0C       		.uleb128 0xc
 7024 099e 08020000 		.4byte	.LASF114
 7025 09a2 10       		.byte	0x10
 7026 09a3 36       		.byte	0x36
 7027 09a4 68000000 		.4byte	0x68
 7028 09a8 02       		.uleb128 0x2
 7029 09a9 91       		.byte	0x91
 7030 09aa 70       		.sleb128 -16
 7031 09ab 00       		.byte	0
ARM GAS  C:\Users\LOCALA~1\AppData\Local\Temp\ccsQji0c.s 			page 162


 7032 09ac 0A       		.uleb128 0xa
 7033 09ad 42020000 		.4byte	.LASF115
 7034 09b1 11       		.byte	0x11
 7035 09b2 16       		.byte	0x16
 7036 09b3 00000000 		.4byte	.LFB111
 7037 09b7 40000000 		.4byte	.LFE111-.LFB111
 7038 09bb 01       		.uleb128 0x1
 7039 09bc 9C       		.byte	0x9c
 7040 09bd D0090000 		.4byte	0x9d0
 7041 09c1 0B       		.uleb128 0xb
 7042 09c2 5D000000 		.4byte	.LASF20
 7043 09c6 11       		.byte	0x11
 7044 09c7 16       		.byte	0x16
 7045 09c8 B0000000 		.4byte	0xb0
 7046 09cc 02       		.uleb128 0x2
 7047 09cd 91       		.byte	0x91
 7048 09ce 74       		.sleb128 -12
 7049 09cf 00       		.byte	0
 7050 09d0 0A       		.uleb128 0xa
 7051 09d1 04070000 		.4byte	.LASF116
 7052 09d5 12       		.byte	0x12
 7053 09d6 1A       		.byte	0x1a
 7054 09d7 00000000 		.4byte	.LFB112
 7055 09db 90030000 		.4byte	.LFE112-.LFB112
 7056 09df 01       		.uleb128 0x1
 7057 09e0 9C       		.byte	0x9c
 7058 09e1 A90A0000 		.4byte	0xaa9
 7059 09e5 0B       		.uleb128 0xb
 7060 09e6 DD060000 		.4byte	.LASF77
 7061 09ea 12       		.byte	0x12
 7062 09eb 1A       		.byte	0x1a
 7063 09ec BC000000 		.4byte	0xbc
 7064 09f0 03       		.uleb128 0x3
 7065 09f1 91       		.byte	0x91
 7066 09f2 AF7F     		.sleb128 -81
 7067 09f4 0C       		.uleb128 0xc
 7068 09f5 4E060000 		.4byte	.LASF117
 7069 09f9 12       		.byte	0x12
 7070 09fa 1F       		.byte	0x1f
 7071 09fb 9B000000 		.4byte	0x9b
 7072 09ff 02       		.uleb128 0x2
 7073 0a00 91       		.byte	0x91
 7074 0a01 6F       		.sleb128 -17
 7075 0a02 0C       		.uleb128 0xc
 7076 0a03 22020000 		.4byte	.LASF118
 7077 0a07 12       		.byte	0x12
 7078 0a08 20       		.byte	0x20
 7079 0a09 9B000000 		.4byte	0x9b
 7080 0a0d 02       		.uleb128 0x2
 7081 0a0e 91       		.byte	0x91
 7082 0a0f 6E       		.sleb128 -18
 7083 0a10 0C       		.uleb128 0xc
 7084 0a11 040A0000 		.4byte	.LASF119
 7085 0a15 12       		.byte	0x12
 7086 0a16 21       		.byte	0x21
 7087 0a17 68000000 		.4byte	0x68
 7088 0a1b 02       		.uleb128 0x2
ARM GAS  C:\Users\LOCALA~1\AppData\Local\Temp\ccsQji0c.s 			page 163


 7089 0a1c 91       		.byte	0x91
 7090 0a1d 68       		.sleb128 -24
 7091 0a1e 0C       		.uleb128 0xc
 7092 0a1f B9090000 		.4byte	.LASF120
 7093 0a23 12       		.byte	0x12
 7094 0a24 23       		.byte	0x23
 7095 0a25 68000000 		.4byte	0x68
 7096 0a29 02       		.uleb128 0x2
 7097 0a2a 91       		.byte	0x91
 7098 0a2b 64       		.sleb128 -28
 7099 0a2c 0C       		.uleb128 0xc
 7100 0a2d F9050000 		.4byte	.LASF121
 7101 0a31 12       		.byte	0x12
 7102 0a32 27       		.byte	0x27
 7103 0a33 68000000 		.4byte	0x68
 7104 0a37 02       		.uleb128 0x2
 7105 0a38 91       		.byte	0x91
 7106 0a39 60       		.sleb128 -32
 7107 0a3a 0C       		.uleb128 0xc
 7108 0a3b 6D010000 		.4byte	.LASF122
 7109 0a3f 12       		.byte	0x12
 7110 0a40 28       		.byte	0x28
 7111 0a41 9B000000 		.4byte	0x9b
 7112 0a45 02       		.uleb128 0x2
 7113 0a46 91       		.byte	0x91
 7114 0a47 5F       		.sleb128 -33
 7115 0a48 0C       		.uleb128 0xc
 7116 0a49 12090000 		.4byte	.LASF123
 7117 0a4d 12       		.byte	0x12
 7118 0a4e 2A       		.byte	0x2a
 7119 0a4f 94000000 		.4byte	0x94
 7120 0a53 02       		.uleb128 0x2
 7121 0a54 91       		.byte	0x91
 7122 0a55 50       		.sleb128 -48
 7123 0a56 0C       		.uleb128 0xc
 7124 0a57 D8070000 		.4byte	.LASF124
 7125 0a5b 12       		.byte	0x12
 7126 0a5c 2C       		.byte	0x2c
 7127 0a5d 94000000 		.4byte	0x94
 7128 0a61 02       		.uleb128 0x2
 7129 0a62 91       		.byte	0x91
 7130 0a63 48       		.sleb128 -56
 7131 0a64 0C       		.uleb128 0xc
 7132 0a65 8B000000 		.4byte	.LASF125
 7133 0a69 12       		.byte	0x12
 7134 0a6a 30       		.byte	0x30
 7135 0a6b 94000000 		.4byte	0x94
 7136 0a6f 02       		.uleb128 0x2
 7137 0a70 91       		.byte	0x91
 7138 0a71 40       		.sleb128 -64
 7139 0a72 1A       		.uleb128 0x1a
 7140 0a73 1E010000 		.4byte	.LBB12
 7141 0a77 56000000 		.4byte	.LBE12-.LBB12
 7142 0a7b 8F0A0000 		.4byte	0xa8f
 7143 0a7f 0C       		.uleb128 0xc
 7144 0a80 EA040000 		.4byte	.LASF126
 7145 0a84 12       		.byte	0x12
ARM GAS  C:\Users\LOCALA~1\AppData\Local\Temp\ccsQji0c.s 			page 164


 7146 0a85 5C       		.byte	0x5c
 7147 0a86 94000000 		.4byte	0x94
 7148 0a8a 03       		.uleb128 0x3
 7149 0a8b 91       		.byte	0x91
 7150 0a8c B87F     		.sleb128 -72
 7151 0a8e 00       		.byte	0
 7152 0a8f 12       		.uleb128 0x12
 7153 0a90 72020000 		.4byte	.LBB13
 7154 0a94 D2000000 		.4byte	.LBE13-.LBB13
 7155 0a98 0C       		.uleb128 0xc
 7156 0a99 BA050000 		.4byte	.LASF127
 7157 0a9d 12       		.byte	0x12
 7158 0a9e 9D       		.byte	0x9d
 7159 0a9f 68000000 		.4byte	0x68
 7160 0aa3 03       		.uleb128 0x3
 7161 0aa4 91       		.byte	0x91
 7162 0aa5 B47F     		.sleb128 -76
 7163 0aa7 00       		.byte	0
 7164 0aa8 00       		.byte	0
 7165 0aa9 11       		.uleb128 0x11
 7166 0aaa 7F080000 		.4byte	.LASF128
 7167 0aae 13       		.byte	0x13
 7168 0aaf 17       		.byte	0x17
 7169 0ab0 00000000 		.4byte	.LFB113
 7170 0ab4 80020000 		.4byte	.LFE113-.LFB113
 7171 0ab8 01       		.uleb128 0x1
 7172 0ab9 9C       		.byte	0x9c
 7173 0aba EF0A0000 		.4byte	0xaef
 7174 0abe 1A       		.uleb128 0x1a
 7175 0abf 28010000 		.4byte	.LBB14
 7176 0ac3 3E000000 		.4byte	.LBE14-.LBB14
 7177 0ac7 D80A0000 		.4byte	0xad8
 7178 0acb 13       		.uleb128 0x13
 7179 0acc 6900     		.ascii	"i\000"
 7180 0ace 13       		.byte	0x13
 7181 0acf 40       		.byte	0x40
 7182 0ad0 68000000 		.4byte	0x68
 7183 0ad4 02       		.uleb128 0x2
 7184 0ad5 91       		.byte	0x91
 7185 0ad6 6C       		.sleb128 -20
 7186 0ad7 00       		.byte	0
 7187 0ad8 12       		.uleb128 0x12
 7188 0ad9 66010000 		.4byte	.LBB15
 7189 0add 30000000 		.4byte	.LBE15-.LBB15
 7190 0ae1 13       		.uleb128 0x13
 7191 0ae2 6900     		.ascii	"i\000"
 7192 0ae4 13       		.byte	0x13
 7193 0ae5 45       		.byte	0x45
 7194 0ae6 68000000 		.4byte	0x68
 7195 0aea 02       		.uleb128 0x2
 7196 0aeb 91       		.byte	0x91
 7197 0aec 68       		.sleb128 -24
 7198 0aed 00       		.byte	0
 7199 0aee 00       		.byte	0
 7200 0aef 1B       		.uleb128 0x1b
 7201 0af0 96010000 		.4byte	.LASF129
 7202 0af4 14       		.byte	0x14
ARM GAS  C:\Users\LOCALA~1\AppData\Local\Temp\ccsQji0c.s 			page 165


 7203 0af5 1F       		.byte	0x1f
 7204 0af6 68000000 		.4byte	0x68
 7205 0afa 00000000 		.4byte	.LFB114
 7206 0afe 30000000 		.4byte	.LFE114-.LFB114
 7207 0b02 01       		.uleb128 0x1
 7208 0b03 9C       		.byte	0x9c
 7209 0b04 250B0000 		.4byte	0xb25
 7210 0b08 0B       		.uleb128 0xb
 7211 0b09 AB080000 		.4byte	.LASF130
 7212 0b0d 14       		.byte	0x14
 7213 0b0e 1F       		.byte	0x1f
 7214 0b0f 9B000000 		.4byte	0x9b
 7215 0b13 02       		.uleb128 0x2
 7216 0b14 91       		.byte	0x91
 7217 0b15 6F       		.sleb128 -17
 7218 0b16 0C       		.uleb128 0xc
 7219 0b17 4D010000 		.4byte	.LASF131
 7220 0b1b 14       		.byte	0x14
 7221 0b1c 21       		.byte	0x21
 7222 0b1d 68000000 		.4byte	0x68
 7223 0b21 02       		.uleb128 0x2
 7224 0b22 91       		.byte	0x91
 7225 0b23 74       		.sleb128 -12
 7226 0b24 00       		.byte	0
 7227 0b25 15       		.uleb128 0x15
 7228 0b26 E7070000 		.4byte	.LASF132
 7229 0b2a 14       		.byte	0x14
 7230 0b2b 2D       		.byte	0x2d
 7231 0b2c 68000000 		.4byte	0x68
 7232 0b30 00000000 		.4byte	.LFB115
 7233 0b34 5C000000 		.4byte	.LFE115-.LFB115
 7234 0b38 01       		.uleb128 0x1
 7235 0b39 9C       		.byte	0x9c
 7236 0b3a 4D0B0000 		.4byte	0xb4d
 7237 0b3e 0B       		.uleb128 0xb
 7238 0b3f DD060000 		.4byte	.LASF77
 7239 0b43 14       		.byte	0x14
 7240 0b44 2D       		.byte	0x2d
 7241 0b45 BC000000 		.4byte	0xbc
 7242 0b49 02       		.uleb128 0x2
 7243 0b4a 91       		.byte	0x91
 7244 0b4b 77       		.sleb128 -9
 7245 0b4c 00       		.byte	0
 7246 0b4d 0A       		.uleb128 0xa
 7247 0b4e D0020000 		.4byte	.LASF133
 7248 0b52 14       		.byte	0x14
 7249 0b53 42       		.byte	0x42
 7250 0b54 00000000 		.4byte	.LFB116
 7251 0b58 48000000 		.4byte	.LFE116-.LFB116
 7252 0b5c 01       		.uleb128 0x1
 7253 0b5d 9C       		.byte	0x9c
 7254 0b5e 710B0000 		.4byte	0xb71
 7255 0b62 0B       		.uleb128 0xb
 7256 0b63 DD060000 		.4byte	.LASF77
 7257 0b67 14       		.byte	0x14
 7258 0b68 42       		.byte	0x42
 7259 0b69 BC000000 		.4byte	0xbc
ARM GAS  C:\Users\LOCALA~1\AppData\Local\Temp\ccsQji0c.s 			page 166


 7260 0b6d 02       		.uleb128 0x2
 7261 0b6e 91       		.byte	0x91
 7262 0b6f 77       		.sleb128 -9
 7263 0b70 00       		.byte	0
 7264 0b71 14       		.uleb128 0x14
 7265 0b72 1E0A0000 		.4byte	.LASF134
 7266 0b76 14       		.byte	0x14
 7267 0b77 56       		.byte	0x56
 7268 0b78 68000000 		.4byte	0x68
 7269 0b7c 00000000 		.4byte	.LFB117
 7270 0b80 14010000 		.4byte	.LFE117-.LFB117
 7271 0b84 01       		.uleb128 0x1
 7272 0b85 9C       		.byte	0x9c
 7273 0b86 0C       		.uleb128 0xc
 7274 0b87 32070000 		.4byte	.LASF135
 7275 0b8b 06       		.byte	0x6
 7276 0b8c 14       		.byte	0x14
 7277 0b8d 68000000 		.4byte	0x68
 7278 0b91 05       		.uleb128 0x5
 7279 0b92 03       		.byte	0x3
 7280 0b93 60000000 		.4byte	counter
 7281 0b97 1C       		.uleb128 0x1c
 7282 0b98 89010000 		.4byte	.LASF136
 7283 0b9c 19       		.byte	0x19
 7284 0b9d 1207     		.2byte	0x712
 7285 0b9f A30B0000 		.4byte	0xba3
 7286 0ba3 1D       		.uleb128 0x1d
 7287 0ba4 76000000 		.4byte	0x76
 7288 0ba8 1E       		.uleb128 0x1e
 7289 0ba9 3A000000 		.4byte	.LASF137
 7290 0bad 1A       		.byte	0x1a
 7291 0bae 12       		.byte	0x12
 7292 0baf 9B000000 		.4byte	0x9b
 7293 0bb3 05       		.uleb128 0x5
 7294 0bb4 03       		.byte	0x3
 7295 0bb5 00000000 		.4byte	g_NextionInterrupt
 7296 0bb9 1E       		.uleb128 0x1e
 7297 0bba ED060000 		.4byte	.LASF138
 7298 0bbe 1B       		.byte	0x1b
 7299 0bbf 10       		.byte	0x10
 7300 0bc0 9B000000 		.4byte	0x9b
 7301 0bc4 05       		.uleb128 0x5
 7302 0bc5 03       		.byte	0x3
 7303 0bc6 00000000 		.4byte	g_SliderValueReceiving
 7304 0bca 0D       		.uleb128 0xd
 7305 0bcb 9B000000 		.4byte	0x9b
 7306 0bcf DA0B0000 		.4byte	0xbda
 7307 0bd3 0E       		.uleb128 0xe
 7308 0bd4 A9000000 		.4byte	0xa9
 7309 0bd8 03       		.byte	0x3
 7310 0bd9 00       		.byte	0
 7311 0bda 1E       		.uleb128 0x1e
 7312 0bdb A6050000 		.4byte	.LASF139
 7313 0bdf 1B       		.byte	0x1b
 7314 0be0 11       		.byte	0x11
 7315 0be1 CA0B0000 		.4byte	0xbca
 7316 0be5 05       		.uleb128 0x5
ARM GAS  C:\Users\LOCALA~1\AppData\Local\Temp\ccsQji0c.s 			page 167


 7317 0be6 03       		.byte	0x3
 7318 0be7 00000000 		.4byte	g_SliderValueBuffer
 7319 0beb 1E       		.uleb128 0x1e
 7320 0bec B3040000 		.4byte	.LASF140
 7321 0bf0 1A       		.byte	0x1a
 7322 0bf1 1C       		.byte	0x1c
 7323 0bf2 FC0B0000 		.4byte	0xbfc
 7324 0bf6 05       		.uleb128 0x5
 7325 0bf7 03       		.byte	0x3
 7326 0bf8 00000000 		.4byte	g_Error_Code
 7327 0bfc 1D       		.uleb128 0x1d
 7328 0bfd 68000000 		.4byte	0x68
 7329 0c01 1E       		.uleb128 0x1e
 7330 0c02 00040000 		.4byte	.LASF141
 7331 0c06 1A       		.byte	0x1a
 7332 0c07 21       		.byte	0x21
 7333 0c08 9B000000 		.4byte	0x9b
 7334 0c0c 05       		.uleb128 0x5
 7335 0c0d 03       		.byte	0x3
 7336 0c0e 00000000 		.4byte	g_PCInterrupt
 7337 0c12 1E       		.uleb128 0x1e
 7338 0c13 EC050000 		.4byte	.LASF142
 7339 0c17 1A       		.byte	0x1a
 7340 0c18 23       		.byte	0x23
 7341 0c19 9B000000 		.4byte	0x9b
 7342 0c1d 05       		.uleb128 0x5
 7343 0c1e 03       		.byte	0x3
 7344 0c1f 00000000 		.4byte	g_ActivePage
 7345 0c23 1E       		.uleb128 0x1e
 7346 0c24 E7080000 		.4byte	.LASF143
 7347 0c28 1A       		.byte	0x1a
 7348 0c29 26       		.byte	0x26
 7349 0c2a 68000000 		.4byte	0x68
 7350 0c2e 05       		.uleb128 0x5
 7351 0c2f 03       		.byte	0x3
 7352 0c30 00000000 		.4byte	g_NumberOfMeasurements
 7353 0c34 1E       		.uleb128 0x1e
 7354 0c35 9A040000 		.4byte	.LASF144
 7355 0c39 1A       		.byte	0x1a
 7356 0c3a 27       		.byte	0x27
 7357 0c3b 68000000 		.4byte	0x68
 7358 0c3f 05       		.uleb128 0x5
 7359 0c40 03       		.byte	0x3
 7360 0c41 00000000 		.4byte	g_SwitchPeriodOfLaser_ms
 7361 0c45 1E       		.uleb128 0x1e
 7362 0c46 39040000 		.4byte	.LASF145
 7363 0c4a 1A       		.byte	0x1a
 7364 0c4b 28       		.byte	0x28
 7365 0c4c 68000000 		.4byte	0x68
 7366 0c50 05       		.uleb128 0x5
 7367 0c51 03       		.byte	0x3
 7368 0c52 00000000 		.4byte	g_MaxMeasurementTime_min
 7369 0c56 1E       		.uleb128 0x1e
 7370 0c57 22090000 		.4byte	.LASF146
 7371 0c5b 1A       		.byte	0x1a
 7372 0c5c 29       		.byte	0x29
 7373 0c5d 68000000 		.4byte	0x68
ARM GAS  C:\Users\LOCALA~1\AppData\Local\Temp\ccsQji0c.s 			page 168


 7374 0c61 05       		.uleb128 0x5
 7375 0c62 03       		.byte	0x3
 7376 0c63 00000000 		.4byte	g_FormationTime_ms
 7377 0c67 1E       		.uleb128 0x1e
 7378 0c68 5D060000 		.4byte	.LASF147
 7379 0c6c 1A       		.byte	0x1a
 7380 0c6d 2A       		.byte	0x2a
 7381 0c6e 68000000 		.4byte	0x68
 7382 0c72 05       		.uleb128 0x5
 7383 0c73 03       		.byte	0x3
 7384 0c74 00000000 		.4byte	g_RelaxationTime_ms
 7385 0c78 1E       		.uleb128 0x1e
 7386 0c79 38060000 		.4byte	.LASF148
 7387 0c7d 1A       		.byte	0x1a
 7388 0c7e 2B       		.byte	0x2b
 7389 0c7f 68000000 		.4byte	0x68
 7390 0c83 05       		.uleb128 0x5
 7391 0c84 03       		.byte	0x3
 7392 0c85 00000000 		.4byte	g_ConfirmationTime_ms
 7393 0c89 1E       		.uleb128 0x1e
 7394 0c8a B8080000 		.4byte	.LASF149
 7395 0c8e 1A       		.byte	0x1a
 7396 0c8f 2C       		.byte	0x2c
 7397 0c90 68000000 		.4byte	0x68
 7398 0c94 05       		.uleb128 0x5
 7399 0c95 03       		.byte	0x3
 7400 0c96 00000000 		.4byte	g_ThresholdValue_mV
 7401 0c9a 1E       		.uleb128 0x1e
 7402 0c9b A2010000 		.4byte	.LASF150
 7403 0c9f 1A       		.byte	0x1a
 7404 0ca0 2E       		.byte	0x2e
 7405 0ca1 9B000000 		.4byte	0x9b
 7406 0ca5 05       		.uleb128 0x5
 7407 0ca6 03       		.byte	0x3
 7408 0ca7 00000000 		.4byte	g_DataLogging
 7409 0cab 1E       		.uleb128 0x1e
 7410 0cac C0010000 		.4byte	.LASF151
 7411 0cb0 1A       		.byte	0x1a
 7412 0cb1 41       		.byte	0x41
 7413 0cb2 4C010000 		.4byte	0x14c
 7414 0cb6 05       		.uleb128 0x5
 7415 0cb7 03       		.byte	0x3
 7416 0cb8 00000000 		.4byte	MAXMEASUREMENTSTEPS
 7417 0cbc 0D       		.uleb128 0xd
 7418 0cbd 9B000000 		.4byte	0x9b
 7419 0cc1 D20C0000 		.4byte	0xcd2
 7420 0cc5 0E       		.uleb128 0xe
 7421 0cc6 A9000000 		.4byte	0xa9
 7422 0cca 02       		.byte	0x2
 7423 0ccb 0E       		.uleb128 0xe
 7424 0ccc A9000000 		.4byte	0xa9
 7425 0cd0 03       		.byte	0x3
 7426 0cd1 00       		.byte	0
 7427 0cd2 1E       		.uleb128 0x1e
 7428 0cd3 3A070000 		.4byte	.LASF152
 7429 0cd7 1A       		.byte	0x1a
 7430 0cd8 42       		.byte	0x42
ARM GAS  C:\Users\LOCALA~1\AppData\Local\Temp\ccsQji0c.s 			page 169


 7431 0cd9 BC0C0000 		.4byte	0xcbc
 7432 0cdd 05       		.uleb128 0x5
 7433 0cde 03       		.byte	0x3
 7434 0cdf 00000000 		.4byte	g_measurementLasers
 7435 0ce3 1E       		.uleb128 0x1e
 7436 0ce4 76020000 		.4byte	.LASF153
 7437 0ce8 1A       		.byte	0x1a
 7438 0ce9 46       		.byte	0x46
 7439 0cea 9B000000 		.4byte	0x9b
 7440 0cee 05       		.uleb128 0x5
 7441 0cef 03       		.byte	0x3
 7442 0cf0 00000000 		.4byte	LaserState1
 7443 0cf4 1E       		.uleb128 0x1e
 7444 0cf5 82020000 		.4byte	.LASF154
 7445 0cf9 1A       		.byte	0x1a
 7446 0cfa 47       		.byte	0x47
 7447 0cfb 9B000000 		.4byte	0x9b
 7448 0cff 05       		.uleb128 0x5
 7449 0d00 03       		.byte	0x3
 7450 0d01 00000000 		.4byte	LaserState2
 7451 0d05 1E       		.uleb128 0x1e
 7452 0d06 8E020000 		.4byte	.LASF155
 7453 0d0a 1A       		.byte	0x1a
 7454 0d0b 48       		.byte	0x48
 7455 0d0c 9B000000 		.4byte	0x9b
 7456 0d10 05       		.uleb128 0x5
 7457 0d11 03       		.byte	0x3
 7458 0d12 00000000 		.4byte	LaserState3
 7459 0d16 1E       		.uleb128 0x1e
 7460 0d17 00000000 		.4byte	.LASF156
 7461 0d1b 1A       		.byte	0x1a
 7462 0d1c 4B       		.byte	0x4b
 7463 0d1d 9B000000 		.4byte	0x9b
 7464 0d21 05       		.uleb128 0x5
 7465 0d22 03       		.byte	0x3
 7466 0d23 00000000 		.4byte	OutputState1
 7467 0d27 1E       		.uleb128 0x1e
 7468 0d28 03060000 		.4byte	.LASF157
 7469 0d2c 1A       		.byte	0x1a
 7470 0d2d 4C       		.byte	0x4c
 7471 0d2e 9B000000 		.4byte	0x9b
 7472 0d32 05       		.uleb128 0x5
 7473 0d33 03       		.byte	0x3
 7474 0d34 00000000 		.4byte	OutputState2
 7475 0d38 1E       		.uleb128 0x1e
 7476 0d39 14020000 		.4byte	.LASF158
 7477 0d3d 1A       		.byte	0x1a
 7478 0d3e 4F       		.byte	0x4f
 7479 0d3f FC0B0000 		.4byte	0xbfc
 7480 0d43 05       		.uleb128 0x5
 7481 0d44 03       		.byte	0x3
 7482 0d45 00000000 		.4byte	v_timer_100ms
 7483 0d49 1E       		.uleb128 0x1e
 7484 0d4a 3D080000 		.4byte	.LASF159
 7485 0d4e 1A       		.byte	0x1a
 7486 0d4f 50       		.byte	0x50
 7487 0d50 5A0D0000 		.4byte	0xd5a
ARM GAS  C:\Users\LOCALA~1\AppData\Local\Temp\ccsQji0c.s 			page 170


 7488 0d54 05       		.uleb128 0x5
 7489 0d55 03       		.byte	0x3
 7490 0d56 00000000 		.4byte	v_timerflag_100ms
 7491 0d5a 1D       		.uleb128 0x1d
 7492 0d5b 9B000000 		.4byte	0x9b
 7493 0d5f 1E       		.uleb128 0x1e
 7494 0d60 9D090000 		.4byte	.LASF160
 7495 0d64 1A       		.byte	0x1a
 7496 0d65 52       		.byte	0x52
 7497 0d66 FC0B0000 		.4byte	0xbfc
 7498 0d6a 05       		.uleb128 0x5
 7499 0d6b 03       		.byte	0x3
 7500 0d6c 00000000 		.4byte	v_timer_waiting
 7501 0d70 1E       		.uleb128 0x1e
 7502 0d71 D5030000 		.4byte	.LASF161
 7503 0d75 1A       		.byte	0x1a
 7504 0d76 53       		.byte	0x53
 7505 0d77 5A0D0000 		.4byte	0xd5a
 7506 0d7b 05       		.uleb128 0x5
 7507 0d7c 03       		.byte	0x3
 7508 0d7d 00000000 		.4byte	v_timerflag_waiting
 7509 0d81 1E       		.uleb128 0x1e
 7510 0d82 3C0A0000 		.4byte	.LASF162
 7511 0d86 1A       		.byte	0x1a
 7512 0d87 55       		.byte	0x55
 7513 0d88 920D0000 		.4byte	0xd92
 7514 0d8c 05       		.uleb128 0x5
 7515 0d8d 03       		.byte	0x3
 7516 0d8e 00000000 		.4byte	v_timer_Lifetime_ms
 7517 0d92 1D       		.uleb128 0x1d
 7518 0d93 94000000 		.4byte	0x94
 7519 0d97 1E       		.uleb128 0x1e
 7520 0d98 77060000 		.4byte	.LASF163
 7521 0d9c 1A       		.byte	0x1a
 7522 0d9d 57       		.byte	0x57
 7523 0d9e FC0B0000 		.4byte	0xbfc
 7524 0da2 05       		.uleb128 0x5
 7525 0da3 03       		.byte	0x3
 7526 0da4 00000000 		.4byte	v_timer_Measurement
 7527 0da8 1E       		.uleb128 0x1e
 7528 0da9 19050000 		.4byte	.LASF164
 7529 0dad 1A       		.byte	0x1a
 7530 0dae 58       		.byte	0x58
 7531 0daf FC0B0000 		.4byte	0xbfc
 7532 0db3 05       		.uleb128 0x5
 7533 0db4 03       		.byte	0x3
 7534 0db5 00000000 		.4byte	v_timerflag_Measurement
 7535 0db9 1E       		.uleb128 0x1e
 7536 0dba AC030000 		.4byte	.LASF165
 7537 0dbe 1A       		.byte	0x1a
 7538 0dbf 5A       		.byte	0x5a
 7539 0dc0 FC0B0000 		.4byte	0xbfc
 7540 0dc4 05       		.uleb128 0x5
 7541 0dc5 03       		.byte	0x3
 7542 0dc6 00000000 		.4byte	v_timer_LaserSwitch
 7543 0dca 1E       		.uleb128 0x1e
 7544 0dcb 60050000 		.4byte	.LASF166
ARM GAS  C:\Users\LOCALA~1\AppData\Local\Temp\ccsQji0c.s 			page 171


 7545 0dcf 1A       		.byte	0x1a
 7546 0dd0 5B       		.byte	0x5b
 7547 0dd1 FC0B0000 		.4byte	0xbfc
 7548 0dd5 05       		.uleb128 0x5
 7549 0dd6 03       		.byte	0x3
 7550 0dd7 00000000 		.4byte	v_timerflag_LaserSwitch
 7551 0ddb 1E       		.uleb128 0x1e
 7552 0ddc 4E070000 		.4byte	.LASF167
 7553 0de0 1A       		.byte	0x1a
 7554 0de1 5D       		.byte	0x5d
 7555 0de2 FC0B0000 		.4byte	0xbfc
 7556 0de6 05       		.uleb128 0x5
 7557 0de7 03       		.byte	0x3
 7558 0de8 00000000 		.4byte	v_timer_500ms
 7559 0dec 1E       		.uleb128 0x1e
 7560 0ded 75030000 		.4byte	.LASF168
 7561 0df1 1A       		.byte	0x1a
 7562 0df2 5E       		.byte	0x5e
 7563 0df3 FC0B0000 		.4byte	0xbfc
 7564 0df7 05       		.uleb128 0x5
 7565 0df8 03       		.byte	0x3
 7566 0df9 00000000 		.4byte	v_timerflag_500ms
 7567 0dfd 0D       		.uleb128 0xd
 7568 0dfe BC000000 		.4byte	0xbc
 7569 0e02 130E0000 		.4byte	0xe13
 7570 0e06 0E       		.uleb128 0xe
 7571 0e07 A9000000 		.4byte	0xa9
 7572 0e0b 02       		.byte	0x2
 7573 0e0c 0E       		.uleb128 0xe
 7574 0e0d A9000000 		.4byte	0xa9
 7575 0e11 03       		.byte	0x3
 7576 0e12 00       		.byte	0
 7577 0e13 1E       		.uleb128 0x1e
 7578 0e14 9A080000 		.4byte	.LASF169
 7579 0e18 05       		.byte	0x5
 7580 0e19 15       		.byte	0x15
 7581 0e1a 240E0000 		.4byte	0xe24
 7582 0e1e 05       		.uleb128 0x5
 7583 0e1f 03       		.byte	0x3
 7584 0e20 00000000 		.4byte	MeasurementLaser
 7585 0e24 07       		.uleb128 0x7
 7586 0e25 FD0D0000 		.4byte	0xdfd
 7587 0e29 1E       		.uleb128 0x1e
 7588 0e2a F3020000 		.4byte	.LASF170
 7589 0e2e 0E       		.byte	0xe
 7590 0e2f 14       		.byte	0x14
 7591 0e30 68000000 		.4byte	0x68
 7592 0e34 05       		.uleb128 0x5
 7593 0e35 03       		.byte	0x3
 7594 0e36 00000000 		.4byte	g_Stepper_MaxFrequency
 7595 0e3a 1E       		.uleb128 0x1e
 7596 0e3b 83040000 		.4byte	.LASF171
 7597 0e3f 0E       		.byte	0xe
 7598 0e40 15       		.byte	0x15
 7599 0e41 68000000 		.4byte	0x68
 7600 0e45 05       		.uleb128 0x5
 7601 0e46 03       		.byte	0x3
ARM GAS  C:\Users\LOCALA~1\AppData\Local\Temp\ccsQji0c.s 			page 172


 7602 0e47 00000000 		.4byte	g_Stepper_SigmoidShift
 7603 0e4b 1E       		.uleb128 0x1e
 7604 0e4c 44030000 		.4byte	.LASF172
 7605 0e50 0E       		.byte	0xe
 7606 0e51 16       		.byte	0x16
 7607 0e52 68000000 		.4byte	0x68
 7608 0e56 05       		.uleb128 0x5
 7609 0e57 03       		.byte	0x3
 7610 0e58 00000000 		.4byte	g_Stepper_SigmoidRaise
 7611 0e5c 00       		.byte	0
 7612              		.section	.debug_abbrev,"",%progbits
 7613              	.Ldebug_abbrev0:
 7614 0000 01       		.uleb128 0x1
 7615 0001 11       		.uleb128 0x11
 7616 0002 01       		.byte	0x1
 7617 0003 25       		.uleb128 0x25
 7618 0004 0E       		.uleb128 0xe
 7619 0005 13       		.uleb128 0x13
 7620 0006 0B       		.uleb128 0xb
 7621 0007 03       		.uleb128 0x3
 7622 0008 0E       		.uleb128 0xe
 7623 0009 1B       		.uleb128 0x1b
 7624 000a 0E       		.uleb128 0xe
 7625 000b 55       		.uleb128 0x55
 7626 000c 17       		.uleb128 0x17
 7627 000d 11       		.uleb128 0x11
 7628 000e 01       		.uleb128 0x1
 7629 000f 10       		.uleb128 0x10
 7630 0010 17       		.uleb128 0x17
 7631 0011 00       		.byte	0
 7632 0012 00       		.byte	0
 7633 0013 02       		.uleb128 0x2
 7634 0014 24       		.uleb128 0x24
 7635 0015 00       		.byte	0
 7636 0016 0B       		.uleb128 0xb
 7637 0017 0B       		.uleb128 0xb
 7638 0018 3E       		.uleb128 0x3e
 7639 0019 0B       		.uleb128 0xb
 7640 001a 03       		.uleb128 0x3
 7641 001b 0E       		.uleb128 0xe
 7642 001c 00       		.byte	0
 7643 001d 00       		.byte	0
 7644 001e 03       		.uleb128 0x3
 7645 001f 16       		.uleb128 0x16
 7646 0020 00       		.byte	0
 7647 0021 03       		.uleb128 0x3
 7648 0022 0E       		.uleb128 0xe
 7649 0023 3A       		.uleb128 0x3a
 7650 0024 0B       		.uleb128 0xb
 7651 0025 3B       		.uleb128 0x3b
 7652 0026 0B       		.uleb128 0xb
 7653 0027 49       		.uleb128 0x49
 7654 0028 13       		.uleb128 0x13
 7655 0029 00       		.byte	0
 7656 002a 00       		.byte	0
 7657 002b 04       		.uleb128 0x4
 7658 002c 24       		.uleb128 0x24
ARM GAS  C:\Users\LOCALA~1\AppData\Local\Temp\ccsQji0c.s 			page 173


 7659 002d 00       		.byte	0
 7660 002e 0B       		.uleb128 0xb
 7661 002f 0B       		.uleb128 0xb
 7662 0030 3E       		.uleb128 0x3e
 7663 0031 0B       		.uleb128 0xb
 7664 0032 03       		.uleb128 0x3
 7665 0033 08       		.uleb128 0x8
 7666 0034 00       		.byte	0
 7667 0035 00       		.byte	0
 7668 0036 05       		.uleb128 0x5
 7669 0037 16       		.uleb128 0x16
 7670 0038 00       		.byte	0
 7671 0039 03       		.uleb128 0x3
 7672 003a 0E       		.uleb128 0xe
 7673 003b 3A       		.uleb128 0x3a
 7674 003c 0B       		.uleb128 0xb
 7675 003d 3B       		.uleb128 0x3b
 7676 003e 05       		.uleb128 0x5
 7677 003f 49       		.uleb128 0x49
 7678 0040 13       		.uleb128 0x13
 7679 0041 00       		.byte	0
 7680 0042 00       		.byte	0
 7681 0043 06       		.uleb128 0x6
 7682 0044 0F       		.uleb128 0xf
 7683 0045 00       		.byte	0
 7684 0046 0B       		.uleb128 0xb
 7685 0047 0B       		.uleb128 0xb
 7686 0048 49       		.uleb128 0x49
 7687 0049 13       		.uleb128 0x13
 7688 004a 00       		.byte	0
 7689 004b 00       		.byte	0
 7690 004c 07       		.uleb128 0x7
 7691 004d 26       		.uleb128 0x26
 7692 004e 00       		.byte	0
 7693 004f 49       		.uleb128 0x49
 7694 0050 13       		.uleb128 0x13
 7695 0051 00       		.byte	0
 7696 0052 00       		.byte	0
 7697 0053 08       		.uleb128 0x8
 7698 0054 13       		.uleb128 0x13
 7699 0055 00       		.byte	0
 7700 0056 03       		.uleb128 0x3
 7701 0057 0E       		.uleb128 0xe
 7702 0058 3C       		.uleb128 0x3c
 7703 0059 19       		.uleb128 0x19
 7704 005a 00       		.byte	0
 7705 005b 00       		.byte	0
 7706 005c 09       		.uleb128 0x9
 7707 005d 2E       		.uleb128 0x2e
 7708 005e 00       		.byte	0
 7709 005f 3F       		.uleb128 0x3f
 7710 0060 19       		.uleb128 0x19
 7711 0061 03       		.uleb128 0x3
 7712 0062 0E       		.uleb128 0xe
 7713 0063 3A       		.uleb128 0x3a
 7714 0064 0B       		.uleb128 0xb
 7715 0065 3B       		.uleb128 0x3b
ARM GAS  C:\Users\LOCALA~1\AppData\Local\Temp\ccsQji0c.s 			page 174


 7716 0066 0B       		.uleb128 0xb
 7717 0067 11       		.uleb128 0x11
 7718 0068 01       		.uleb128 0x1
 7719 0069 12       		.uleb128 0x12
 7720 006a 06       		.uleb128 0x6
 7721 006b 40       		.uleb128 0x40
 7722 006c 18       		.uleb128 0x18
 7723 006d 9642     		.uleb128 0x2116
 7724 006f 19       		.uleb128 0x19
 7725 0070 00       		.byte	0
 7726 0071 00       		.byte	0
 7727 0072 0A       		.uleb128 0xa
 7728 0073 2E       		.uleb128 0x2e
 7729 0074 01       		.byte	0x1
 7730 0075 3F       		.uleb128 0x3f
 7731 0076 19       		.uleb128 0x19
 7732 0077 03       		.uleb128 0x3
 7733 0078 0E       		.uleb128 0xe
 7734 0079 3A       		.uleb128 0x3a
 7735 007a 0B       		.uleb128 0xb
 7736 007b 3B       		.uleb128 0x3b
 7737 007c 0B       		.uleb128 0xb
 7738 007d 27       		.uleb128 0x27
 7739 007e 19       		.uleb128 0x19
 7740 007f 11       		.uleb128 0x11
 7741 0080 01       		.uleb128 0x1
 7742 0081 12       		.uleb128 0x12
 7743 0082 06       		.uleb128 0x6
 7744 0083 40       		.uleb128 0x40
 7745 0084 18       		.uleb128 0x18
 7746 0085 9642     		.uleb128 0x2116
 7747 0087 19       		.uleb128 0x19
 7748 0088 01       		.uleb128 0x1
 7749 0089 13       		.uleb128 0x13
 7750 008a 00       		.byte	0
 7751 008b 00       		.byte	0
 7752 008c 0B       		.uleb128 0xb
 7753 008d 05       		.uleb128 0x5
 7754 008e 00       		.byte	0
 7755 008f 03       		.uleb128 0x3
 7756 0090 0E       		.uleb128 0xe
 7757 0091 3A       		.uleb128 0x3a
 7758 0092 0B       		.uleb128 0xb
 7759 0093 3B       		.uleb128 0x3b
 7760 0094 0B       		.uleb128 0xb
 7761 0095 49       		.uleb128 0x49
 7762 0096 13       		.uleb128 0x13
 7763 0097 02       		.uleb128 0x2
 7764 0098 18       		.uleb128 0x18
 7765 0099 00       		.byte	0
 7766 009a 00       		.byte	0
 7767 009b 0C       		.uleb128 0xc
 7768 009c 34       		.uleb128 0x34
 7769 009d 00       		.byte	0
 7770 009e 03       		.uleb128 0x3
 7771 009f 0E       		.uleb128 0xe
 7772 00a0 3A       		.uleb128 0x3a
ARM GAS  C:\Users\LOCALA~1\AppData\Local\Temp\ccsQji0c.s 			page 175


 7773 00a1 0B       		.uleb128 0xb
 7774 00a2 3B       		.uleb128 0x3b
 7775 00a3 0B       		.uleb128 0xb
 7776 00a4 49       		.uleb128 0x49
 7777 00a5 13       		.uleb128 0x13
 7778 00a6 02       		.uleb128 0x2
 7779 00a7 18       		.uleb128 0x18
 7780 00a8 00       		.byte	0
 7781 00a9 00       		.byte	0
 7782 00aa 0D       		.uleb128 0xd
 7783 00ab 01       		.uleb128 0x1
 7784 00ac 01       		.byte	0x1
 7785 00ad 49       		.uleb128 0x49
 7786 00ae 13       		.uleb128 0x13
 7787 00af 01       		.uleb128 0x1
 7788 00b0 13       		.uleb128 0x13
 7789 00b1 00       		.byte	0
 7790 00b2 00       		.byte	0
 7791 00b3 0E       		.uleb128 0xe
 7792 00b4 21       		.uleb128 0x21
 7793 00b5 00       		.byte	0
 7794 00b6 49       		.uleb128 0x49
 7795 00b7 13       		.uleb128 0x13
 7796 00b8 2F       		.uleb128 0x2f
 7797 00b9 0B       		.uleb128 0xb
 7798 00ba 00       		.byte	0
 7799 00bb 00       		.byte	0
 7800 00bc 0F       		.uleb128 0xf
 7801 00bd 2E       		.uleb128 0x2e
 7802 00be 01       		.byte	0x1
 7803 00bf 3F       		.uleb128 0x3f
 7804 00c0 19       		.uleb128 0x19
 7805 00c1 03       		.uleb128 0x3
 7806 00c2 0E       		.uleb128 0xe
 7807 00c3 3A       		.uleb128 0x3a
 7808 00c4 0B       		.uleb128 0xb
 7809 00c5 3B       		.uleb128 0x3b
 7810 00c6 0B       		.uleb128 0xb
 7811 00c7 49       		.uleb128 0x49
 7812 00c8 13       		.uleb128 0x13
 7813 00c9 11       		.uleb128 0x11
 7814 00ca 01       		.uleb128 0x1
 7815 00cb 12       		.uleb128 0x12
 7816 00cc 06       		.uleb128 0x6
 7817 00cd 40       		.uleb128 0x40
 7818 00ce 18       		.uleb128 0x18
 7819 00cf 9742     		.uleb128 0x2117
 7820 00d1 19       		.uleb128 0x19
 7821 00d2 01       		.uleb128 0x1
 7822 00d3 13       		.uleb128 0x13
 7823 00d4 00       		.byte	0
 7824 00d5 00       		.byte	0
 7825 00d6 10       		.uleb128 0x10
 7826 00d7 2E       		.uleb128 0x2e
 7827 00d8 01       		.byte	0x1
 7828 00d9 3F       		.uleb128 0x3f
 7829 00da 19       		.uleb128 0x19
ARM GAS  C:\Users\LOCALA~1\AppData\Local\Temp\ccsQji0c.s 			page 176


 7830 00db 03       		.uleb128 0x3
 7831 00dc 0E       		.uleb128 0xe
 7832 00dd 3A       		.uleb128 0x3a
 7833 00de 0B       		.uleb128 0xb
 7834 00df 3B       		.uleb128 0x3b
 7835 00e0 0B       		.uleb128 0xb
 7836 00e1 27       		.uleb128 0x27
 7837 00e2 19       		.uleb128 0x19
 7838 00e3 11       		.uleb128 0x11
 7839 00e4 01       		.uleb128 0x1
 7840 00e5 12       		.uleb128 0x12
 7841 00e6 06       		.uleb128 0x6
 7842 00e7 40       		.uleb128 0x40
 7843 00e8 18       		.uleb128 0x18
 7844 00e9 9742     		.uleb128 0x2117
 7845 00eb 19       		.uleb128 0x19
 7846 00ec 01       		.uleb128 0x1
 7847 00ed 13       		.uleb128 0x13
 7848 00ee 00       		.byte	0
 7849 00ef 00       		.byte	0
 7850 00f0 11       		.uleb128 0x11
 7851 00f1 2E       		.uleb128 0x2e
 7852 00f2 01       		.byte	0x1
 7853 00f3 3F       		.uleb128 0x3f
 7854 00f4 19       		.uleb128 0x19
 7855 00f5 03       		.uleb128 0x3
 7856 00f6 0E       		.uleb128 0xe
 7857 00f7 3A       		.uleb128 0x3a
 7858 00f8 0B       		.uleb128 0xb
 7859 00f9 3B       		.uleb128 0x3b
 7860 00fa 0B       		.uleb128 0xb
 7861 00fb 11       		.uleb128 0x11
 7862 00fc 01       		.uleb128 0x1
 7863 00fd 12       		.uleb128 0x12
 7864 00fe 06       		.uleb128 0x6
 7865 00ff 40       		.uleb128 0x40
 7866 0100 18       		.uleb128 0x18
 7867 0101 9642     		.uleb128 0x2116
 7868 0103 19       		.uleb128 0x19
 7869 0104 01       		.uleb128 0x1
 7870 0105 13       		.uleb128 0x13
 7871 0106 00       		.byte	0
 7872 0107 00       		.byte	0
 7873 0108 12       		.uleb128 0x12
 7874 0109 0B       		.uleb128 0xb
 7875 010a 01       		.byte	0x1
 7876 010b 11       		.uleb128 0x11
 7877 010c 01       		.uleb128 0x1
 7878 010d 12       		.uleb128 0x12
 7879 010e 06       		.uleb128 0x6
 7880 010f 00       		.byte	0
 7881 0110 00       		.byte	0
 7882 0111 13       		.uleb128 0x13
 7883 0112 34       		.uleb128 0x34
 7884 0113 00       		.byte	0
 7885 0114 03       		.uleb128 0x3
 7886 0115 08       		.uleb128 0x8
ARM GAS  C:\Users\LOCALA~1\AppData\Local\Temp\ccsQji0c.s 			page 177


 7887 0116 3A       		.uleb128 0x3a
 7888 0117 0B       		.uleb128 0xb
 7889 0118 3B       		.uleb128 0x3b
 7890 0119 0B       		.uleb128 0xb
 7891 011a 49       		.uleb128 0x49
 7892 011b 13       		.uleb128 0x13
 7893 011c 02       		.uleb128 0x2
 7894 011d 18       		.uleb128 0x18
 7895 011e 00       		.byte	0
 7896 011f 00       		.byte	0
 7897 0120 14       		.uleb128 0x14
 7898 0121 2E       		.uleb128 0x2e
 7899 0122 00       		.byte	0
 7900 0123 3F       		.uleb128 0x3f
 7901 0124 19       		.uleb128 0x19
 7902 0125 03       		.uleb128 0x3
 7903 0126 0E       		.uleb128 0xe
 7904 0127 3A       		.uleb128 0x3a
 7905 0128 0B       		.uleb128 0xb
 7906 0129 3B       		.uleb128 0x3b
 7907 012a 0B       		.uleb128 0xb
 7908 012b 49       		.uleb128 0x49
 7909 012c 13       		.uleb128 0x13
 7910 012d 11       		.uleb128 0x11
 7911 012e 01       		.uleb128 0x1
 7912 012f 12       		.uleb128 0x12
 7913 0130 06       		.uleb128 0x6
 7914 0131 40       		.uleb128 0x40
 7915 0132 18       		.uleb128 0x18
 7916 0133 9642     		.uleb128 0x2116
 7917 0135 19       		.uleb128 0x19
 7918 0136 00       		.byte	0
 7919 0137 00       		.byte	0
 7920 0138 15       		.uleb128 0x15
 7921 0139 2E       		.uleb128 0x2e
 7922 013a 01       		.byte	0x1
 7923 013b 3F       		.uleb128 0x3f
 7924 013c 19       		.uleb128 0x19
 7925 013d 03       		.uleb128 0x3
 7926 013e 0E       		.uleb128 0xe
 7927 013f 3A       		.uleb128 0x3a
 7928 0140 0B       		.uleb128 0xb
 7929 0141 3B       		.uleb128 0x3b
 7930 0142 0B       		.uleb128 0xb
 7931 0143 27       		.uleb128 0x27
 7932 0144 19       		.uleb128 0x19
 7933 0145 49       		.uleb128 0x49
 7934 0146 13       		.uleb128 0x13
 7935 0147 11       		.uleb128 0x11
 7936 0148 01       		.uleb128 0x1
 7937 0149 12       		.uleb128 0x12
 7938 014a 06       		.uleb128 0x6
 7939 014b 40       		.uleb128 0x40
 7940 014c 18       		.uleb128 0x18
 7941 014d 9642     		.uleb128 0x2116
 7942 014f 19       		.uleb128 0x19
 7943 0150 01       		.uleb128 0x1
ARM GAS  C:\Users\LOCALA~1\AppData\Local\Temp\ccsQji0c.s 			page 178


 7944 0151 13       		.uleb128 0x13
 7945 0152 00       		.byte	0
 7946 0153 00       		.byte	0
 7947 0154 16       		.uleb128 0x16
 7948 0155 0B       		.uleb128 0xb
 7949 0156 01       		.byte	0x1
 7950 0157 55       		.uleb128 0x55
 7951 0158 17       		.uleb128 0x17
 7952 0159 00       		.byte	0
 7953 015a 00       		.byte	0
 7954 015b 17       		.uleb128 0x17
 7955 015c 2E       		.uleb128 0x2e
 7956 015d 00       		.byte	0
 7957 015e 3F       		.uleb128 0x3f
 7958 015f 19       		.uleb128 0x19
 7959 0160 03       		.uleb128 0x3
 7960 0161 0E       		.uleb128 0xe
 7961 0162 3A       		.uleb128 0x3a
 7962 0163 0B       		.uleb128 0xb
 7963 0164 3B       		.uleb128 0x3b
 7964 0165 0B       		.uleb128 0xb
 7965 0166 27       		.uleb128 0x27
 7966 0167 19       		.uleb128 0x19
 7967 0168 11       		.uleb128 0x11
 7968 0169 01       		.uleb128 0x1
 7969 016a 12       		.uleb128 0x12
 7970 016b 06       		.uleb128 0x6
 7971 016c 40       		.uleb128 0x40
 7972 016d 18       		.uleb128 0x18
 7973 016e 9642     		.uleb128 0x2116
 7974 0170 19       		.uleb128 0x19
 7975 0171 00       		.byte	0
 7976 0172 00       		.byte	0
 7977 0173 18       		.uleb128 0x18
 7978 0174 05       		.uleb128 0x5
 7979 0175 00       		.byte	0
 7980 0176 03       		.uleb128 0x3
 7981 0177 08       		.uleb128 0x8
 7982 0178 3A       		.uleb128 0x3a
 7983 0179 0B       		.uleb128 0xb
 7984 017a 3B       		.uleb128 0x3b
 7985 017b 0B       		.uleb128 0xb
 7986 017c 49       		.uleb128 0x49
 7987 017d 13       		.uleb128 0x13
 7988 017e 02       		.uleb128 0x2
 7989 017f 18       		.uleb128 0x18
 7990 0180 00       		.byte	0
 7991 0181 00       		.byte	0
 7992 0182 19       		.uleb128 0x19
 7993 0183 2E       		.uleb128 0x2e
 7994 0184 01       		.byte	0x1
 7995 0185 3F       		.uleb128 0x3f
 7996 0186 19       		.uleb128 0x19
 7997 0187 03       		.uleb128 0x3
 7998 0188 0E       		.uleb128 0xe
 7999 0189 3A       		.uleb128 0x3a
 8000 018a 0B       		.uleb128 0xb
ARM GAS  C:\Users\LOCALA~1\AppData\Local\Temp\ccsQji0c.s 			page 179


 8001 018b 3B       		.uleb128 0x3b
 8002 018c 0B       		.uleb128 0xb
 8003 018d 49       		.uleb128 0x49
 8004 018e 13       		.uleb128 0x13
 8005 018f 11       		.uleb128 0x11
 8006 0190 01       		.uleb128 0x1
 8007 0191 12       		.uleb128 0x12
 8008 0192 06       		.uleb128 0x6
 8009 0193 40       		.uleb128 0x40
 8010 0194 18       		.uleb128 0x18
 8011 0195 9642     		.uleb128 0x2116
 8012 0197 19       		.uleb128 0x19
 8013 0198 01       		.uleb128 0x1
 8014 0199 13       		.uleb128 0x13
 8015 019a 00       		.byte	0
 8016 019b 00       		.byte	0
 8017 019c 1A       		.uleb128 0x1a
 8018 019d 0B       		.uleb128 0xb
 8019 019e 01       		.byte	0x1
 8020 019f 11       		.uleb128 0x11
 8021 01a0 01       		.uleb128 0x1
 8022 01a1 12       		.uleb128 0x12
 8023 01a2 06       		.uleb128 0x6
 8024 01a3 01       		.uleb128 0x1
 8025 01a4 13       		.uleb128 0x13
 8026 01a5 00       		.byte	0
 8027 01a6 00       		.byte	0
 8028 01a7 1B       		.uleb128 0x1b
 8029 01a8 2E       		.uleb128 0x2e
 8030 01a9 01       		.byte	0x1
 8031 01aa 3F       		.uleb128 0x3f
 8032 01ab 19       		.uleb128 0x19
 8033 01ac 03       		.uleb128 0x3
 8034 01ad 0E       		.uleb128 0xe
 8035 01ae 3A       		.uleb128 0x3a
 8036 01af 0B       		.uleb128 0xb
 8037 01b0 3B       		.uleb128 0x3b
 8038 01b1 0B       		.uleb128 0xb
 8039 01b2 27       		.uleb128 0x27
 8040 01b3 19       		.uleb128 0x19
 8041 01b4 49       		.uleb128 0x49
 8042 01b5 13       		.uleb128 0x13
 8043 01b6 11       		.uleb128 0x11
 8044 01b7 01       		.uleb128 0x1
 8045 01b8 12       		.uleb128 0x12
 8046 01b9 06       		.uleb128 0x6
 8047 01ba 40       		.uleb128 0x40
 8048 01bb 18       		.uleb128 0x18
 8049 01bc 9742     		.uleb128 0x2117
 8050 01be 19       		.uleb128 0x19
 8051 01bf 01       		.uleb128 0x1
 8052 01c0 13       		.uleb128 0x13
 8053 01c1 00       		.byte	0
 8054 01c2 00       		.byte	0
 8055 01c3 1C       		.uleb128 0x1c
 8056 01c4 34       		.uleb128 0x34
 8057 01c5 00       		.byte	0
ARM GAS  C:\Users\LOCALA~1\AppData\Local\Temp\ccsQji0c.s 			page 180


 8058 01c6 03       		.uleb128 0x3
 8059 01c7 0E       		.uleb128 0xe
 8060 01c8 3A       		.uleb128 0x3a
 8061 01c9 0B       		.uleb128 0xb
 8062 01ca 3B       		.uleb128 0x3b
 8063 01cb 05       		.uleb128 0x5
 8064 01cc 49       		.uleb128 0x49
 8065 01cd 13       		.uleb128 0x13
 8066 01ce 3F       		.uleb128 0x3f
 8067 01cf 19       		.uleb128 0x19
 8068 01d0 3C       		.uleb128 0x3c
 8069 01d1 19       		.uleb128 0x19
 8070 01d2 00       		.byte	0
 8071 01d3 00       		.byte	0
 8072 01d4 1D       		.uleb128 0x1d
 8073 01d5 35       		.uleb128 0x35
 8074 01d6 00       		.byte	0
 8075 01d7 49       		.uleb128 0x49
 8076 01d8 13       		.uleb128 0x13
 8077 01d9 00       		.byte	0
 8078 01da 00       		.byte	0
 8079 01db 1E       		.uleb128 0x1e
 8080 01dc 34       		.uleb128 0x34
 8081 01dd 00       		.byte	0
 8082 01de 03       		.uleb128 0x3
 8083 01df 0E       		.uleb128 0xe
 8084 01e0 3A       		.uleb128 0x3a
 8085 01e1 0B       		.uleb128 0xb
 8086 01e2 3B       		.uleb128 0x3b
 8087 01e3 0B       		.uleb128 0xb
 8088 01e4 49       		.uleb128 0x49
 8089 01e5 13       		.uleb128 0x13
 8090 01e6 3F       		.uleb128 0x3f
 8091 01e7 19       		.uleb128 0x19
 8092 01e8 02       		.uleb128 0x2
 8093 01e9 18       		.uleb128 0x18
 8094 01ea 00       		.byte	0
 8095 01eb 00       		.byte	0
 8096 01ec 00       		.byte	0
 8097              		.section	.debug_aranges,"",%progbits
 8098 0000 C4010000 		.4byte	0x1c4
 8099 0004 0200     		.2byte	0x2
 8100 0006 00000000 		.4byte	.Ldebug_info0
 8101 000a 04       		.byte	0x4
 8102 000b 00       		.byte	0
 8103 000c 0000     		.2byte	0
 8104 000e 0000     		.2byte	0
 8105 0010 00000000 		.4byte	.LFB64
 8106 0014 20000000 		.4byte	.LFE64-.LFB64
 8107 0018 00000000 		.4byte	.LFB65
 8108 001c 1A000000 		.4byte	.LFE65-.LFB65
 8109 0020 00000000 		.4byte	.LFB66
 8110 0024 40000000 		.4byte	.LFE66-.LFB66
 8111 0028 00000000 		.4byte	.LFB67
 8112 002c 38000000 		.4byte	.LFE67-.LFB67
 8113 0030 00000000 		.4byte	.LFB68
 8114 0034 28000000 		.4byte	.LFE68-.LFB68
ARM GAS  C:\Users\LOCALA~1\AppData\Local\Temp\ccsQji0c.s 			page 181


 8115 0038 00000000 		.4byte	.LFB69
 8116 003c 40000000 		.4byte	.LFE69-.LFB69
 8117 0040 00000000 		.4byte	.LFB70
 8118 0044 20000000 		.4byte	.LFE70-.LFB70
 8119 0048 00000000 		.4byte	.LFB71
 8120 004c 1C000000 		.4byte	.LFE71-.LFB71
 8121 0050 00000000 		.4byte	.LFB72
 8122 0054 54000000 		.4byte	.LFE72-.LFB72
 8123 0058 00000000 		.4byte	.LFB73
 8124 005c DC000000 		.4byte	.LFE73-.LFB73
 8125 0060 00000000 		.4byte	.LFB74
 8126 0064 10010000 		.4byte	.LFE74-.LFB74
 8127 0068 00000000 		.4byte	.LFB75
 8128 006c FC000000 		.4byte	.LFE75-.LFB75
 8129 0070 00000000 		.4byte	.LFB76
 8130 0074 0C000000 		.4byte	.LFE76-.LFB76
 8131 0078 00000000 		.4byte	.LFB77
 8132 007c 1C000000 		.4byte	.LFE77-.LFB77
 8133 0080 00000000 		.4byte	.LFB78
 8134 0084 18000000 		.4byte	.LFE78-.LFB78
 8135 0088 00000000 		.4byte	.LFB79
 8136 008c 64000000 		.4byte	.LFE79-.LFB79
 8137 0090 00000000 		.4byte	.LFB80
 8138 0094 C8000000 		.4byte	.LFE80-.LFB80
 8139 0098 00000000 		.4byte	.LFB81
 8140 009c 50000000 		.4byte	.LFE81-.LFB81
 8141 00a0 00000000 		.4byte	.LFB82
 8142 00a4 8C000000 		.4byte	.LFE82-.LFB82
 8143 00a8 00000000 		.4byte	.LFB83
 8144 00ac 3C000000 		.4byte	.LFE83-.LFB83
 8145 00b0 00000000 		.4byte	.LFB84
 8146 00b4 E0000000 		.4byte	.LFE84-.LFB84
 8147 00b8 00000000 		.4byte	.LFB85
 8148 00bc 1A000000 		.4byte	.LFE85-.LFB85
 8149 00c0 00000000 		.4byte	.LFB86
 8150 00c4 44000000 		.4byte	.LFE86-.LFB86
 8151 00c8 00000000 		.4byte	.LFB87
 8152 00cc 28000000 		.4byte	.LFE87-.LFB87
 8153 00d0 00000000 		.4byte	.LFB88
 8154 00d4 30000000 		.4byte	.LFE88-.LFB88
 8155 00d8 00000000 		.4byte	.LFB89
 8156 00dc 28000000 		.4byte	.LFE89-.LFB89
 8157 00e0 00000000 		.4byte	.LFB90
 8158 00e4 30000000 		.4byte	.LFE90-.LFB90
 8159 00e8 00000000 		.4byte	.LFB91
 8160 00ec 28000000 		.4byte	.LFE91-.LFB91
 8161 00f0 00000000 		.4byte	.LFB92
 8162 00f4 30000000 		.4byte	.LFE92-.LFB92
 8163 00f8 00000000 		.4byte	.LFB93
 8164 00fc 1A000000 		.4byte	.LFE93-.LFB93
 8165 0100 00000000 		.4byte	.LFB94
 8166 0104 1C000000 		.4byte	.LFE94-.LFB94
 8167 0108 00000000 		.4byte	.LFB95
 8168 010c 70040000 		.4byte	.LFE95-.LFB95
 8169 0110 00000000 		.4byte	.LFB96
 8170 0114 38010000 		.4byte	.LFE96-.LFB96
 8171 0118 00000000 		.4byte	.LFB97
ARM GAS  C:\Users\LOCALA~1\AppData\Local\Temp\ccsQji0c.s 			page 182


 8172 011c BC020000 		.4byte	.LFE97-.LFB97
 8173 0120 00000000 		.4byte	.LFB98
 8174 0124 B4000000 		.4byte	.LFE98-.LFB98
 8175 0128 00000000 		.4byte	.LFB99
 8176 012c 1C000000 		.4byte	.LFE99-.LFB99
 8177 0130 00000000 		.4byte	.LFB100
 8178 0134 20000000 		.4byte	.LFE100-.LFB100
 8179 0138 00000000 		.4byte	.LFB101
 8180 013c 28000000 		.4byte	.LFE101-.LFB101
 8181 0140 00000000 		.4byte	.LFB102
 8182 0144 28000000 		.4byte	.LFE102-.LFB102
 8183 0148 00000000 		.4byte	.LFB103
 8184 014c 20000000 		.4byte	.LFE103-.LFB103
 8185 0150 00000000 		.4byte	.LFB104
 8186 0154 20000000 		.4byte	.LFE104-.LFB104
 8187 0158 00000000 		.4byte	.LFB105
 8188 015c 32000000 		.4byte	.LFE105-.LFB105
 8189 0160 00000000 		.4byte	.LFB106
 8190 0164 A8000000 		.4byte	.LFE106-.LFB106
 8191 0168 00000000 		.4byte	.LFB107
 8192 016c DC000000 		.4byte	.LFE107-.LFB107
 8193 0170 00000000 		.4byte	.LFB108
 8194 0174 D0000000 		.4byte	.LFE108-.LFB108
 8195 0178 00000000 		.4byte	.LFB109
 8196 017c BC000000 		.4byte	.LFE109-.LFB109
 8197 0180 00000000 		.4byte	.LFB110
 8198 0184 64000000 		.4byte	.LFE110-.LFB110
 8199 0188 00000000 		.4byte	.LFB111
 8200 018c 40000000 		.4byte	.LFE111-.LFB111
 8201 0190 00000000 		.4byte	.LFB112
 8202 0194 90030000 		.4byte	.LFE112-.LFB112
 8203 0198 00000000 		.4byte	.LFB113
 8204 019c 80020000 		.4byte	.LFE113-.LFB113
 8205 01a0 00000000 		.4byte	.LFB114
 8206 01a4 30000000 		.4byte	.LFE114-.LFB114
 8207 01a8 00000000 		.4byte	.LFB115
 8208 01ac 5C000000 		.4byte	.LFE115-.LFB115
 8209 01b0 00000000 		.4byte	.LFB116
 8210 01b4 48000000 		.4byte	.LFE116-.LFB116
 8211 01b8 00000000 		.4byte	.LFB117
 8212 01bc 14010000 		.4byte	.LFE117-.LFB117
 8213 01c0 00000000 		.4byte	0
 8214 01c4 00000000 		.4byte	0
 8215              		.section	.debug_ranges,"",%progbits
 8216              	.Ldebug_ranges0:
 8217 0000 0E000000 		.4byte	.LBB9
 8218 0004 22000000 		.4byte	.LBE9
 8219 0008 24000000 		.4byte	.LBB10
 8220 000c 2A000000 		.4byte	.LBE10
 8221 0010 00000000 		.4byte	0
 8222 0014 00000000 		.4byte	0
 8223 0018 00000000 		.4byte	.LFB64
 8224 001c 20000000 		.4byte	.LFE64
 8225 0020 00000000 		.4byte	.LFB65
 8226 0024 1A000000 		.4byte	.LFE65
 8227 0028 00000000 		.4byte	.LFB66
 8228 002c 40000000 		.4byte	.LFE66
ARM GAS  C:\Users\LOCALA~1\AppData\Local\Temp\ccsQji0c.s 			page 183


 8229 0030 00000000 		.4byte	.LFB67
 8230 0034 38000000 		.4byte	.LFE67
 8231 0038 00000000 		.4byte	.LFB68
 8232 003c 28000000 		.4byte	.LFE68
 8233 0040 00000000 		.4byte	.LFB69
 8234 0044 40000000 		.4byte	.LFE69
 8235 0048 00000000 		.4byte	.LFB70
 8236 004c 20000000 		.4byte	.LFE70
 8237 0050 00000000 		.4byte	.LFB71
 8238 0054 1C000000 		.4byte	.LFE71
 8239 0058 00000000 		.4byte	.LFB72
 8240 005c 54000000 		.4byte	.LFE72
 8241 0060 00000000 		.4byte	.LFB73
 8242 0064 DC000000 		.4byte	.LFE73
 8243 0068 00000000 		.4byte	.LFB74
 8244 006c 10010000 		.4byte	.LFE74
 8245 0070 00000000 		.4byte	.LFB75
 8246 0074 FC000000 		.4byte	.LFE75
 8247 0078 00000000 		.4byte	.LFB76
 8248 007c 0C000000 		.4byte	.LFE76
 8249 0080 00000000 		.4byte	.LFB77
 8250 0084 1C000000 		.4byte	.LFE77
 8251 0088 00000000 		.4byte	.LFB78
 8252 008c 18000000 		.4byte	.LFE78
 8253 0090 00000000 		.4byte	.LFB79
 8254 0094 64000000 		.4byte	.LFE79
 8255 0098 00000000 		.4byte	.LFB80
 8256 009c C8000000 		.4byte	.LFE80
 8257 00a0 00000000 		.4byte	.LFB81
 8258 00a4 50000000 		.4byte	.LFE81
 8259 00a8 00000000 		.4byte	.LFB82
 8260 00ac 8C000000 		.4byte	.LFE82
 8261 00b0 00000000 		.4byte	.LFB83
 8262 00b4 3C000000 		.4byte	.LFE83
 8263 00b8 00000000 		.4byte	.LFB84
 8264 00bc E0000000 		.4byte	.LFE84
 8265 00c0 00000000 		.4byte	.LFB85
 8266 00c4 1A000000 		.4byte	.LFE85
 8267 00c8 00000000 		.4byte	.LFB86
 8268 00cc 44000000 		.4byte	.LFE86
 8269 00d0 00000000 		.4byte	.LFB87
 8270 00d4 28000000 		.4byte	.LFE87
 8271 00d8 00000000 		.4byte	.LFB88
 8272 00dc 30000000 		.4byte	.LFE88
 8273 00e0 00000000 		.4byte	.LFB89
 8274 00e4 28000000 		.4byte	.LFE89
 8275 00e8 00000000 		.4byte	.LFB90
 8276 00ec 30000000 		.4byte	.LFE90
 8277 00f0 00000000 		.4byte	.LFB91
 8278 00f4 28000000 		.4byte	.LFE91
 8279 00f8 00000000 		.4byte	.LFB92
 8280 00fc 30000000 		.4byte	.LFE92
 8281 0100 00000000 		.4byte	.LFB93
 8282 0104 1A000000 		.4byte	.LFE93
 8283 0108 00000000 		.4byte	.LFB94
 8284 010c 1C000000 		.4byte	.LFE94
 8285 0110 00000000 		.4byte	.LFB95
ARM GAS  C:\Users\LOCALA~1\AppData\Local\Temp\ccsQji0c.s 			page 184


 8286 0114 70040000 		.4byte	.LFE95
 8287 0118 00000000 		.4byte	.LFB96
 8288 011c 38010000 		.4byte	.LFE96
 8289 0120 00000000 		.4byte	.LFB97
 8290 0124 BC020000 		.4byte	.LFE97
 8291 0128 00000000 		.4byte	.LFB98
 8292 012c B4000000 		.4byte	.LFE98
 8293 0130 00000000 		.4byte	.LFB99
 8294 0134 1C000000 		.4byte	.LFE99
 8295 0138 00000000 		.4byte	.LFB100
 8296 013c 20000000 		.4byte	.LFE100
 8297 0140 00000000 		.4byte	.LFB101
 8298 0144 28000000 		.4byte	.LFE101
 8299 0148 00000000 		.4byte	.LFB102
 8300 014c 28000000 		.4byte	.LFE102
 8301 0150 00000000 		.4byte	.LFB103
 8302 0154 20000000 		.4byte	.LFE103
 8303 0158 00000000 		.4byte	.LFB104
 8304 015c 20000000 		.4byte	.LFE104
 8305 0160 00000000 		.4byte	.LFB105
 8306 0164 32000000 		.4byte	.LFE105
 8307 0168 00000000 		.4byte	.LFB106
 8308 016c A8000000 		.4byte	.LFE106
 8309 0170 00000000 		.4byte	.LFB107
 8310 0174 DC000000 		.4byte	.LFE107
 8311 0178 00000000 		.4byte	.LFB108
 8312 017c D0000000 		.4byte	.LFE108
 8313 0180 00000000 		.4byte	.LFB109
 8314 0184 BC000000 		.4byte	.LFE109
 8315 0188 00000000 		.4byte	.LFB110
 8316 018c 64000000 		.4byte	.LFE110
 8317 0190 00000000 		.4byte	.LFB111
 8318 0194 40000000 		.4byte	.LFE111
 8319 0198 00000000 		.4byte	.LFB112
 8320 019c 90030000 		.4byte	.LFE112
 8321 01a0 00000000 		.4byte	.LFB113
 8322 01a4 80020000 		.4byte	.LFE113
 8323 01a8 00000000 		.4byte	.LFB114
 8324 01ac 30000000 		.4byte	.LFE114
 8325 01b0 00000000 		.4byte	.LFB115
 8326 01b4 5C000000 		.4byte	.LFE115
 8327 01b8 00000000 		.4byte	.LFB116
 8328 01bc 48000000 		.4byte	.LFE116
 8329 01c0 00000000 		.4byte	.LFB117
 8330 01c4 14010000 		.4byte	.LFE117
 8331 01c8 00000000 		.4byte	0
 8332 01cc 00000000 		.4byte	0
 8333              		.section	.debug_line,"",%progbits
 8334              	.Ldebug_line0:
 8335 0000 310A0000 		.section	.debug_str,"MS",%progbits,1
 8335      0200E902 
 8335      00000201 
 8335      FB0E0D00 
 8335      01010101 
 8336              	.LASF156:
 8337 0000 4F757470 		.ascii	"OutputState1\000"
 8337      75745374 
ARM GAS  C:\Users\LOCALA~1\AppData\Local\Temp\ccsQji0c.s 			page 185


 8337      61746531 
 8337      00
 8338              	.LASF55:
 8339 000d 696E7465 		.ascii	"interrupt\000"
 8339      72727570 
 8339      7400
 8340              	.LASF42:
 8341 0017 62756666 		.ascii	"buffer_FileName\000"
 8341      65725F46 
 8341      696C654E 
 8341      616D6500 
 8342              	.LASF91:
 8343 0027 7369675F 		.ascii	"sig_raise\000"
 8343      72616973 
 8343      6500
 8344              	.LASF36:
 8345 0031 4C696665 		.ascii	"Lifetime\000"
 8345      74696D65 
 8345      00
 8346              	.LASF137:
 8347 003a 675F4E65 		.ascii	"g_NextionInterrupt\000"
 8347      7874696F 
 8347      6E496E74 
 8347      65727275 
 8347      707400
 8348              	.LASF97:
 8349 004d 4D6F7665 		.ascii	"Move10DegreeCCW\000"
 8349      31304465 
 8349      67726565 
 8349      43435700 
 8350              	.LASF20:
 8351 005d 73747269 		.ascii	"string\000"
 8351      6E6700
 8352              	.LASF72:
 8353 0064 4C617365 		.ascii	"Laser3_Toggle\000"
 8353      72335F54 
 8353      6F67676C 
 8353      6500
 8354              	.LASF25:
 8355 0072 736C6964 		.ascii	"slider_value\000"
 8355      65725F76 
 8355      616C7565 
 8355      00
 8356              	.LASF58:
 8357 007f 4C617365 		.ascii	"Laserselect\000"
 8357      7273656C 
 8357      65637400 
 8358              	.LASF125:
 8359 008b 4D61784C 		.ascii	"MaxLifetime_ms\000"
 8359      69666574 
 8359      696D655F 
 8359      6D7300
 8360              	.LASF39:
 8361 009a 62756666 		.ascii	"buffer_nextLine\000"
 8361      65725F6E 
 8361      6578744C 
 8361      696E6500 
ARM GAS  C:\Users\LOCALA~1\AppData\Local\Temp\ccsQji0c.s 			page 186


 8362              	.LASF173:
 8363 00aa 474E5520 		.ascii	"GNU C11 5.4.1 20160609 (release) [ARM/embedded-5-br"
 8363      43313120 
 8363      352E342E 
 8363      31203230 
 8363      31363036 
 8364 00dd 616E6368 		.ascii	"anch revision 237715] -mcpu=cortex-m3 -mthumb -g -O"
 8364      20726576 
 8364      6973696F 
 8364      6E203233 
 8364      37373135 
 8365 0110 30202D66 		.ascii	"0 -ffunction-sections -ffat-lto-objects\000"
 8365      66756E63 
 8365      74696F6E 
 8365      2D736563 
 8365      74696F6E 
 8366              	.LASF92:
 8367 0138 4D6F7665 		.ascii	"MoveToWithConstSpeed\000"
 8367      546F5769 
 8367      7468436F 
 8367      6E737453 
 8367      70656564 
 8368              	.LASF131:
 8369 014d 72657456 		.ascii	"retValue\000"
 8369      616C7565 
 8369      00
 8370              	.LASF7:
 8371 0156 6C6F6E67 		.ascii	"long long unsigned int\000"
 8371      206C6F6E 
 8371      6720756E 
 8371      7369676E 
 8371      65642069 
 8372              	.LASF122:
 8373 016d 52757074 		.ascii	"Rupture_ConfirmationStarted\000"
 8373      7572655F 
 8373      436F6E66 
 8373      69726D61 
 8373      74696F6E 
 8374              	.LASF136:
 8375 0189 49544D5F 		.ascii	"ITM_RxBuffer\000"
 8375      52784275 
 8375      66666572 
 8375      00
 8376              	.LASF129:
 8377 0196 62726561 		.ascii	"breakScreen\000"
 8377      6B536372 
 8377      65656E00 
 8378              	.LASF150:
 8379 01a2 675F4461 		.ascii	"g_DataLogging\000"
 8379      74614C6F 
 8379      6767696E 
 8379      6700
 8380              	.LASF80:
 8381 01b0 55706461 		.ascii	"UpdateNecessary\000"
 8381      74654E65 
 8381      63657373 
 8381      61727900 
ARM GAS  C:\Users\LOCALA~1\AppData\Local\Temp\ccsQji0c.s 			page 187


 8382              	.LASF151:
 8383 01c0 4D41584D 		.ascii	"MAXMEASUREMENTSTEPS\000"
 8383      45415355 
 8383      52454D45 
 8383      4E545354 
 8383      45505300 
 8384              	.LASF6:
 8385 01d4 6C6F6E67 		.ascii	"long long int\000"
 8385      206C6F6E 
 8385      6720696E 
 8385      7400
 8386              	.LASF0:
 8387 01e2 7369676E 		.ascii	"signed char\000"
 8387      65642063 
 8387      68617200 
 8388              	.LASF35:
 8389 01ee 4E756D62 		.ascii	"NumberOfMeasurement\000"
 8389      65724F66 
 8389      4D656173 
 8389      7572656D 
 8389      656E7400 
 8390              	.LASF113:
 8391 0202 746D705F 		.ascii	"tmp_x\000"
 8391      7800
 8392              	.LASF114:
 8393 0208 746D705F 		.ascii	"tmp_y\000"
 8393      7900
 8394              	.LASF27:
 8395 020e 636F6C6F 		.ascii	"color\000"
 8395      7200
 8396              	.LASF158:
 8397 0214 765F7469 		.ascii	"v_timer_100ms\000"
 8397      6D65725F 
 8397      3130306D 
 8397      7300
 8398              	.LASF118:
 8399 0222 4C616D65 		.ascii	"LamellaRuptured\000"
 8399      6C6C6152 
 8399      75707475 
 8399      72656400 
 8400              	.LASF41:
 8401 0232 72657456 		.ascii	"retValFS_FClose\000"
 8401      616C4653 
 8401      5F46436C 
 8401      6F736500 
 8402              	.LASF115:
 8403 0242 46696E69 		.ascii	"Finished\000"
 8403      73686564 
 8403      00
 8404              	.LASF23:
 8405 024b 4E657874 		.ascii	"Nextion_GetSliderValue\000"
 8405      696F6E5F 
 8405      47657453 
 8405      6C696465 
 8405      7256616C 
 8406              	.LASF64:
 8407 0262 73746174 		.ascii	"state\000"
ARM GAS  C:\Users\LOCALA~1\AppData\Local\Temp\ccsQji0c.s 			page 188


 8407      6500
 8408              	.LASF38:
 8409 0268 46696C65 		.ascii	"File\000"
 8409      00
 8410              	.LASF4:
 8411 026d 6C6F6E67 		.ascii	"long int\000"
 8411      20696E74 
 8411      00
 8412              	.LASF153:
 8413 0276 4C617365 		.ascii	"LaserState1\000"
 8413      72537461 
 8413      74653100 
 8414              	.LASF154:
 8415 0282 4C617365 		.ascii	"LaserState2\000"
 8415      72537461 
 8415      74653200 
 8416              	.LASF155:
 8417 028e 4C617365 		.ascii	"LaserState3\000"
 8417      72537461 
 8417      74653300 
 8418              	.LASF68:
 8419 029a 4C617365 		.ascii	"Laser1_Toggle\000"
 8419      72315F54 
 8419      6F67676C 
 8419      6500
 8420              	.LASF90:
 8421 02a8 7369675F 		.ascii	"sig_shift\000"
 8421      73686966 
 8421      7400
 8422              	.LASF43:
 8423 02b2 4C6F6749 		.ascii	"LogIntensity\000"
 8423      6E74656E 
 8423      73697479 
 8423      00
 8424              	.LASF2:
 8425 02bf 73686F72 		.ascii	"short int\000"
 8425      7420696E 
 8425      7400
 8426              	.LASF44:
 8427 02c9 4D656173 		.ascii	"MeasNo\000"
 8427      4E6F00
 8428              	.LASF133:
 8429 02d0 73746172 		.ascii	"startMeasurementPreparation\000"
 8429      744D6561 
 8429      73757265 
 8429      6D656E74 
 8429      50726570 
 8430              	.LASF13:
 8431 02ec 646F7562 		.ascii	"double\000"
 8431      6C6500
 8432              	.LASF170:
 8433 02f3 675F5374 		.ascii	"g_Stepper_MaxFrequency\000"
 8433      65707065 
 8433      725F4D61 
 8433      78467265 
 8433      7175656E 
 8434              	.LASF30:
ARM GAS  C:\Users\LOCALA~1\AppData\Local\Temp\ccsQji0c.s 			page 189


 8435 030a 73657445 		.ascii	"setError\000"
 8435      72726F72 
 8435      00
 8436              	.LASF26:
 8437 0313 4E657874 		.ascii	"Nextion_SendBackgroundColorToButton\000"
 8437      696F6E5F 
 8437      53656E64 
 8437      4261636B 
 8437      67726F75 
 8438              	.LASF89:
 8439 0337 745F5374 		.ascii	"t_StepperCLK\000"
 8439      65707065 
 8439      72434C4B 
 8439      00
 8440              	.LASF172:
 8441 0344 675F5374 		.ascii	"g_Stepper_SigmoidRaise\000"
 8441      65707065 
 8441      725F5369 
 8441      676D6F69 
 8441      64526169 
 8442              	.LASF17:
 8443 035b 46535F46 		.ascii	"FS_FILE\000"
 8443      494C4500 
 8444              	.LASF78:
 8445 0363 6E756D62 		.ascii	"number\000"
 8445      657200
 8446              	.LASF40:
 8447 036a 72657472 		.ascii	"retryCount\000"
 8447      79436F75 
 8447      6E7400
 8448              	.LASF168:
 8449 0375 765F7469 		.ascii	"v_timerflag_500ms\000"
 8449      6D657266 
 8449      6C61675F 
 8449      3530306D 
 8449      7300
 8450              	.LASF11:
 8451 0387 75696E74 		.ascii	"uint16\000"
 8451      313600
 8452              	.LASF81:
 8453 038e 4E657874 		.ascii	"NextionPlot_PointsToSetupAxes\000"
 8453      696F6E50 
 8453      6C6F745F 
 8453      506F696E 
 8453      7473546F 
 8454              	.LASF165:
 8455 03ac 765F7469 		.ascii	"v_timer_LaserSwitch\000"
 8455      6D65725F 
 8455      4C617365 
 8455      72537769 
 8455      74636800 
 8456              	.LASF95:
 8457 03c0 4D6F7665 		.ascii	"Move10DegreeCW\000"
 8457      31304465 
 8457      67726565 
 8457      435700
 8458              	.LASF21:
ARM GAS  C:\Users\LOCALA~1\AppData\Local\Temp\ccsQji0c.s 			page 190


 8459 03cf 76616C75 		.ascii	"value\000"
 8459      6500
 8460              	.LASF161:
 8461 03d5 765F7469 		.ascii	"v_timerflag_waiting\000"
 8461      6D657266 
 8461      6C61675F 
 8461      77616974 
 8461      696E6700 
 8462              	.LASF8:
 8463 03e9 756E7369 		.ascii	"unsigned int\000"
 8463      676E6564 
 8463      20696E74 
 8463      00
 8464              	.LASF84:
 8465 03f6 696E7465 		.ascii	"intensity\000"
 8465      6E736974 
 8465      7900
 8466              	.LASF141:
 8467 0400 675F5043 		.ascii	"g_PCInterrupt\000"
 8467      496E7465 
 8467      72727570 
 8467      7400
 8468              	.LASF5:
 8469 040e 6C6F6E67 		.ascii	"long unsigned int\000"
 8469      20756E73 
 8469      69676E65 
 8469      6420696E 
 8469      7400
 8470              	.LASF79:
 8471 0420 41637469 		.ascii	"ActivePage\000"
 8471      76655061 
 8471      676500
 8472              	.LASF70:
 8473 042b 4C617365 		.ascii	"Laser2_Toggle\000"
 8473      72325F54 
 8473      6F67676C 
 8473      6500
 8474              	.LASF145:
 8475 0439 675F4D61 		.ascii	"g_MaxMeasurementTime_min\000"
 8475      784D6561 
 8475      73757265 
 8475      6D656E74 
 8475      54696D65 
 8476              	.LASF29:
 8477 0452 496E6974 		.ascii	"Init_Nextion\000"
 8477      5F4E6578 
 8477      74696F6E 
 8477      00
 8478              	.LASF109:
 8479 045f 77696474 		.ascii	"width\000"
 8479      6800
 8480              	.LASF34:
 8481 0465 6E616D65 		.ascii	"name\000"
 8481      00
 8482              	.LASF3:
 8483 046a 73686F72 		.ascii	"short unsigned int\000"
 8483      7420756E 
ARM GAS  C:\Users\LOCALA~1\AppData\Local\Temp\ccsQji0c.s 			page 191


 8483      7369676E 
 8483      65642069 
 8483      6E7400
 8484              	.LASF87:
 8485 047d 665F6D61 		.ascii	"f_max\000"
 8485      7800
 8486              	.LASF171:
 8487 0483 675F5374 		.ascii	"g_Stepper_SigmoidShift\000"
 8487      65707065 
 8487      725F5369 
 8487      676D6F69 
 8487      64536869 
 8488              	.LASF144:
 8489 049a 675F5377 		.ascii	"g_SwitchPeriodOfLaser_ms\000"
 8489      69746368 
 8489      50657269 
 8489      6F644F66 
 8489      4C617365 
 8490              	.LASF140:
 8491 04b3 675F4572 		.ascii	"g_Error_Code\000"
 8491      726F725F 
 8491      436F6465 
 8491      00
 8492              	.LASF174:
 8493 04c0 6D61696E 		.ascii	"main.c\000"
 8493      2E6300
 8494              	.LASF18:
 8495 04c7 4E657874 		.ascii	"Nextion_SendString\000"
 8495      696F6E5F 
 8495      53656E64 
 8495      53747269 
 8495      6E6700
 8496              	.LASF99:
 8497 04da 4D6F7665 		.ascii	"Move90DegreeCCW\000"
 8497      39304465 
 8497      67726565 
 8497      43435700 
 8498              	.LASF126:
 8499 04ea 44696666 		.ascii	"DiffMeasurementRupture\000"
 8499      4D656173 
 8499      7572656D 
 8499      656E7452 
 8499      75707475 
 8500              	.LASF105:
 8501 0501 4E657874 		.ascii	"Nextion_SendFillCommand\000"
 8501      696F6E5F 
 8501      53656E64 
 8501      46696C6C 
 8501      436F6D6D 
 8502              	.LASF164:
 8503 0519 765F7469 		.ascii	"v_timerflag_Measurement\000"
 8503      6D657266 
 8503      6C61675F 
 8503      4D656173 
 8503      7572656D 
 8504              	.LASF60:
 8505 0531 6C617374 		.ascii	"last_byte\000"
ARM GAS  C:\Users\LOCALA~1\AppData\Local\Temp\ccsQji0c.s 			page 192


 8505      5F627974 
 8505      6500
 8506              	.LASF53:
 8507 053b 57726974 		.ascii	"WriteSpeedTest\000"
 8507      65537065 
 8507      65645465 
 8507      737400
 8508              	.LASF61:
 8509 054a 50435F49 		.ascii	"PC_Interrupt_Function\000"
 8509      6E746572 
 8509      72757074 
 8509      5F46756E 
 8509      6374696F 
 8510              	.LASF166:
 8511 0560 765F7469 		.ascii	"v_timerflag_LaserSwitch\000"
 8511      6D657266 
 8511      6C61675F 
 8511      4C617365 
 8511      72537769 
 8512              	.LASF65:
 8513 0578 496E6974 		.ascii	"Init\000"
 8513      00
 8514              	.LASF93:
 8515 057d 4D6F7665 		.ascii	"MoveOneStepCW\000"
 8515      4F6E6553 
 8515      74657043 
 8515      5700
 8516              	.LASF32:
 8517 058b 4572726F 		.ascii	"Error\000"
 8517      7200
 8518              	.LASF111:
 8519 0591 4E756D62 		.ascii	"Number\000"
 8519      657200
 8520              	.LASF74:
 8521 0598 686F6D65 		.ascii	"home\000"
 8521      00
 8522              	.LASF16:
 8523 059d 73697A65 		.ascii	"sizetype\000"
 8523      74797065 
 8523      00
 8524              	.LASF139:
 8525 05a6 675F536C 		.ascii	"g_SliderValueBuffer\000"
 8525      69646572 
 8525      56616C75 
 8525      65427566 
 8525      66657200 
 8526              	.LASF127:
 8527 05ba 50726F67 		.ascii	"ProgressInPercent\000"
 8527      72657373 
 8527      496E5065 
 8527      7263656E 
 8527      7400
 8528              	.LASF50:
 8529 05cc 746D705F 		.ascii	"tmp_FileName\000"
 8529      46696C65 
 8529      4E616D65 
 8529      00
ARM GAS  C:\Users\LOCALA~1\AppData\Local\Temp\ccsQji0c.s 			page 193


 8530              	.LASF75:
 8531 05d9 546F6767 		.ascii	"ToggleLaser\000"
 8531      6C654C61 
 8531      73657200 
 8532              	.LASF85:
 8533 05e5 4D6F7665 		.ascii	"MoveTo\000"
 8533      546F00
 8534              	.LASF142:
 8535 05ec 675F4163 		.ascii	"g_ActivePage\000"
 8535      74697665 
 8535      50616765 
 8535      00
 8536              	.LASF121:
 8537 05f9 4144435F 		.ascii	"ADC_Value\000"
 8537      56616C75 
 8537      6500
 8538              	.LASF157:
 8539 0603 4F757470 		.ascii	"OutputState2\000"
 8539      75745374 
 8539      61746532 
 8539      00
 8540              	.LASF37:
 8541 0610 41726269 		.ascii	"ArbitrarilyRuptured\000"
 8541      74726172 
 8541      696C7952 
 8541      75707475 
 8541      72656400 
 8542              	.LASF83:
 8543 0624 7265665F 		.ascii	"ref_ths\000"
 8543      74687300 
 8544              	.LASF106:
 8545 062c 706F735F 		.ascii	"pos_x\000"
 8545      7800
 8546              	.LASF107:
 8547 0632 706F735F 		.ascii	"pos_y\000"
 8547      7900
 8548              	.LASF148:
 8549 0638 675F436F 		.ascii	"g_ConfirmationTime_ms\000"
 8549      6E666972 
 8549      6D617469 
 8549      6F6E5469 
 8549      6D655F6D 
 8550              	.LASF117:
 8551 064e 4C616D65 		.ascii	"LamellaPresent\000"
 8551      6C6C6150 
 8551      72657365 
 8551      6E7400
 8552              	.LASF147:
 8553 065d 675F5265 		.ascii	"g_RelaxationTime_ms\000"
 8553      6C617861 
 8553      74696F6E 
 8553      54696D65 
 8553      5F6D7300 
 8554              	.LASF12:
 8555 0671 666C6F61 		.ascii	"float\000"
 8555      7400
 8556              	.LASF163:
ARM GAS  C:\Users\LOCALA~1\AppData\Local\Temp\ccsQji0c.s 			page 194


 8557 0677 765F7469 		.ascii	"v_timer_Measurement\000"
 8557      6D65725F 
 8557      4D656173 
 8557      7572656D 
 8557      656E7400 
 8558              	.LASF96:
 8559 068b 53746570 		.ascii	"StepsFor10Degree\000"
 8559      73466F72 
 8559      31304465 
 8559      67726565 
 8559      00
 8560              	.LASF33:
 8561 069c 4C6F674C 		.ascii	"LogLifetime\000"
 8561      69666574 
 8561      696D6500 
 8562              	.LASF28:
 8563 06a8 4E657874 		.ascii	"Nextion_SendEndOfCommunication\000"
 8563      696F6E5F 
 8563      53656E64 
 8563      456E644F 
 8563      66436F6D 
 8564              	.LASF10:
 8565 06c7 696E7433 		.ascii	"int32_t\000"
 8565      325F7400 
 8566              	.LASF1:
 8567 06cf 756E7369 		.ascii	"unsigned char\000"
 8567      676E6564 
 8567      20636861 
 8567      7200
 8568              	.LASF77:
 8569 06dd 6D656173 		.ascii	"measurementMode\000"
 8569      7572656D 
 8569      656E744D 
 8569      6F646500 
 8570              	.LASF138:
 8571 06ed 675F536C 		.ascii	"g_SliderValueReceiving\000"
 8571      69646572 
 8571      56616C75 
 8571      65526563 
 8571      65697669 
 8572              	.LASF116:
 8573 0704 4D656173 		.ascii	"Measurement\000"
 8573      7572656D 
 8573      656E7400 
 8574              	.LASF69:
 8575 0710 4C617365 		.ascii	"Laser2\000"
 8575      723200
 8576              	.LASF59:
 8577 0717 4E657874 		.ascii	"Nextion_Interrupt_Function\000"
 8577      696F6E5F 
 8577      496E7465 
 8577      72727570 
 8577      745F4675 
 8578              	.LASF135:
 8579 0732 636F756E 		.ascii	"counter\000"
 8579      74657200 
 8580              	.LASF152:
ARM GAS  C:\Users\LOCALA~1\AppData\Local\Temp\ccsQji0c.s 			page 195


 8581 073a 675F6D65 		.ascii	"g_measurementLasers\000"
 8581      61737572 
 8581      656D656E 
 8581      744C6173 
 8581      65727300 
 8582              	.LASF167:
 8583 074e 765F7469 		.ascii	"v_timer_500ms\000"
 8583      6D65725F 
 8583      3530306D 
 8583      7300
 8584              	.LASF49:
 8585 075c 41444356 		.ascii	"ADCValue\000"
 8585      616C7565 
 8585      00
 8586              	.LASF175:
 8587 0765 443A5C4D 		.ascii	"D:\\Messdaten\\Projekte\\lamella-device\\LamellaDev"
 8587      65737364 
 8587      6174656E 
 8587      5C50726F 
 8587      6A656B74 
 8588 0794 6963652E 		.ascii	"ice.cydsn\000"
 8588      63796473 
 8588      6E00
 8589              	.LASF52:
 8590 079e 496E6974 		.ascii	"Init_ADC\000"
 8590      5F414443 
 8590      00
 8591              	.LASF19:
 8592 07a7 4E657874 		.ascii	"Nextion_SendValueToValueBox\000"
 8592      696F6E5F 
 8592      53656E64 
 8592      56616C75 
 8592      65546F56 
 8593              	.LASF45:
 8594 07c3 53746174 		.ascii	"State1\000"
 8594      653100
 8595              	.LASF46:
 8596 07ca 53746174 		.ascii	"State2\000"
 8596      653200
 8597              	.LASF47:
 8598 07d1 53746174 		.ascii	"State3\000"
 8598      653300
 8599              	.LASF124:
 8600 07d8 74696D65 		.ascii	"timeOfADCValue\000"
 8600      4F664144 
 8600      4356616C 
 8600      756500
 8601              	.LASF132:
 8602 07e7 73746570 		.ascii	"stepsToPrepareMeasurement\000"
 8602      73546F50 
 8602      72657061 
 8602      72654D65 
 8602      61737572 
 8603              	.LASF24:
 8604 0801 6E756D5F 		.ascii	"num_str\000"
 8604      73747200 
 8605              	.LASF15:
ARM GAS  C:\Users\LOCALA~1\AppData\Local\Temp\ccsQji0c.s 			page 196


 8606 0809 6C6F6E67 		.ascii	"long double\000"
 8606      20646F75 
 8606      626C6500 
 8607              	.LASF110:
 8608 0815 4E657874 		.ascii	"Nextion_PlotLifetime\000"
 8608      696F6E5F 
 8608      506C6F74 
 8608      4C696665 
 8608      74696D65 
 8609              	.LASF66:
 8610 082a 4C617365 		.ascii	"Laser1\000"
 8610      723100
 8611              	.LASF14:
 8612 0831 63686172 		.ascii	"char\000"
 8612      00
 8613              	.LASF71:
 8614 0836 4C617365 		.ascii	"Laser3\000"
 8614      723300
 8615              	.LASF159:
 8616 083d 765F7469 		.ascii	"v_timerflag_100ms\000"
 8616      6D657266 
 8616      6C61675F 
 8616      3130306D 
 8616      7300
 8617              	.LASF54:
 8618 084f 496E6974 		.ascii	"Init_MeasurementLasers\000"
 8618      5F4D6561 
 8618      73757265 
 8618      6D656E74 
 8618      4C617365 
 8619              	.LASF9:
 8620 0866 5F5F696E 		.ascii	"__int32_t\000"
 8620      7433325F 
 8620      7400
 8621              	.LASF94:
 8622 0870 4D6F7665 		.ascii	"MoveOneStepCCW\000"
 8622      4F6E6553 
 8622      74657043 
 8622      435700
 8623              	.LASF128:
 8624 087f 54657374 		.ascii	"Test\000"
 8624      00
 8625              	.LASF101:
 8626 0884 73776974 		.ascii	"switchLasers\000"
 8626      63684C61 
 8626      73657273 
 8626      00
 8627              	.LASF63:
 8628 0891 496E6974 		.ascii	"Init_LED\000"
 8628      5F4C4544 
 8628      00
 8629              	.LASF169:
 8630 089a 4D656173 		.ascii	"MeasurementLaser\000"
 8630      7572656D 
 8630      656E744C 
 8630      61736572 
 8630      00
ARM GAS  C:\Users\LOCALA~1\AppData\Local\Temp\ccsQji0c.s 			page 197


 8631              	.LASF130:
 8632 08ab 61637469 		.ascii	"activeScreen\000"
 8632      76655363 
 8632      7265656E 
 8632      00
 8633              	.LASF149:
 8634 08b8 675F5468 		.ascii	"g_ThresholdValue_mV\000"
 8634      72657368 
 8634      6F6C6456 
 8634      616C7565 
 8634      5F6D5600 
 8635              	.LASF51:
 8636 08cc 496E6974 		.ascii	"Init_SDCard\000"
 8636      5F534443 
 8636      61726400 
 8637              	.LASF100:
 8638 08d8 496E6974 		.ascii	"Init_StepMotor\000"
 8638      5F537465 
 8638      704D6F74 
 8638      6F7200
 8639              	.LASF143:
 8640 08e7 675F4E75 		.ascii	"g_NumberOfMeasurements\000"
 8640      6D626572 
 8640      4F664D65 
 8640      61737572 
 8640      656D656E 
 8641              	.LASF31:
 8642 08fe 636F6465 		.ascii	"code\000"
 8642      00
 8643              	.LASF98:
 8644 0903 4D6F7665 		.ascii	"Move90DegreeCW\000"
 8644      39304465 
 8644      67726565 
 8644      435700
 8645              	.LASF123:
 8646 0912 52757074 		.ascii	"RuptureStart_ms\000"
 8646      75726553 
 8646      74617274 
 8646      5F6D7300 
 8647              	.LASF146:
 8648 0922 675F466F 		.ascii	"g_FormationTime_ms\000"
 8648      726D6174 
 8648      696F6E54 
 8648      696D655F 
 8648      6D7300
 8649              	.LASF73:
 8650 0935 7475726E 		.ascii	"turnAllLasersOff\000"
 8650      416C6C4C 
 8650      61736572 
 8650      734F6666 
 8650      00
 8651              	.LASF102:
 8652 0946 73796D62 		.ascii	"symbol\000"
 8652      6F6C00
 8653              	.LASF22:
 8654 094d 4E657874 		.ascii	"Nextion_SendTextToTextBox\000"
 8654      696F6E5F 
ARM GAS  C:\Users\LOCALA~1\AppData\Local\Temp\ccsQji0c.s 			page 198


 8654      53656E64 
 8654      54657874 
 8654      546F5465 
 8655              	.LASF103:
 8656 0967 726F7461 		.ascii	"rotateStepMotor\000"
 8656      74655374 
 8656      65704D6F 
 8656      746F7200 
 8657              	.LASF48:
 8658 0977 74696D65 		.ascii	"timer\000"
 8658      7200
 8659              	.LASF82:
 8660 097d 70726573 		.ascii	"presence_ths\000"
 8660      656E6365 
 8660      5F746873 
 8660      00
 8661              	.LASF104:
 8662 098a 53657475 		.ascii	"SetupOfMeasurement\000"
 8662      704F664D 
 8662      65617375 
 8662      72656D65 
 8662      6E7400
 8663              	.LASF160:
 8664 099d 765F7469 		.ascii	"v_timer_waiting\000"
 8664      6D65725F 
 8664      77616974 
 8664      696E6700 
 8665              	.LASF57:
 8666 09ad 47657441 		.ascii	"GetADCValue\000"
 8666      44435661 
 8666      6C756500 
 8667              	.LASF120:
 8668 09b9 72656365 		.ascii	"recentMeasurementStep\000"
 8668      6E744D65 
 8668      61737572 
 8668      656D656E 
 8668      74537465 
 8669              	.LASF112:
 8670 09cf 4C696665 		.ascii	"Lifetime_ms\000"
 8670      74696D65 
 8670      5F6D7300 
 8671              	.LASF67:
 8672 09db 53746174 		.ascii	"Status\000"
 8672      757300
 8673              	.LASF108:
 8674 09e2 68656967 		.ascii	"height\000"
 8674      687400
 8675              	.LASF76:
 8676 09e9 436F6E66 		.ascii	"ConfigurationOfMeasurement\000"
 8676      69677572 
 8676      6174696F 
 8676      6E4F664D 
 8676      65617375 
 8677              	.LASF119:
 8678 0a04 436F756E 		.ascii	"CounterMeasurements\000"
 8678      7465724D 
 8678      65617375 
ARM GAS  C:\Users\LOCALA~1\AppData\Local\Temp\ccsQji0c.s 			page 199


 8678      72656D65 
 8678      6E747300 
 8679              	.LASF86:
 8680 0a18 73746570 		.ascii	"steps\000"
 8680      7300
 8681              	.LASF134:
 8682 0a1e 6D61696E 		.ascii	"main\000"
 8682      00
 8683              	.LASF62:
 8684 0a23 54696D65 		.ascii	"Timer_Interrupt_Function\000"
 8684      725F496E 
 8684      74657272 
 8684      7570745F 
 8684      46756E63 
 8685              	.LASF162:
 8686 0a3c 765F7469 		.ascii	"v_timer_Lifetime_ms\000"
 8686      6D65725F 
 8686      4C696665 
 8686      74696D65 
 8686      5F6D7300 
 8687              	.LASF56:
 8688 0a50 72657475 		.ascii	"returnValue\000"
 8688      726E5661 
 8688      6C756500 
 8689              	.LASF88:
 8690 0a5c 665F7265 		.ascii	"f_rel\000"
 8690      6C00
 8691              		.ident	"GCC: (GNU Tools for ARM Embedded Processors) 5.4.1 20160609 (release) [ARM/embedded-5-bran
