ARM GAS  C:\Users\LOCALA~1\AppData\Local\Temp\ccsQji0c.s 			page 1


   1              		.syntax unified
   2              		.cpu cortex-m3
   3              		.fpu softvfp
   4              		.eabi_attribute 20, 1
   5              		.eabi_attribute 21, 1
   6              		.eabi_attribute 23, 3
   7              		.eabi_attribute 24, 1
   8              		.eabi_attribute 25, 1
   9              		.eabi_attribute 26, 1
  10              		.eabi_attribute 30, 6
  11              		.eabi_attribute 34, 1
  12              		.eabi_attribute 18, 4
  13              		.thumb
  14              		.syntax unified
  15              		.file	"main.c"
  16              		.text
  17              	.Ltext0:
  18              		.cfi_sections	.debug_frame
  19              		.global	g_NextionInterrupt
  20              		.data
  21              		.type	g_NextionInterrupt, %object
  22              		.size	g_NextionInterrupt, 1
  23              	g_NextionInterrupt:
  24 0000 30       		.byte	48
  25              		.global	g_SliderValueReceiving
  26              		.bss
  27              		.type	g_SliderValueReceiving, %object
  28              		.size	g_SliderValueReceiving, 1
  29              	g_SliderValueReceiving:
  30 0000 00       		.space	1
  31              		.comm	g_SliderValueBuffer,4,4
  32              		.global	g_Error_Code
  33 0001 000000   		.align	2
  34              		.type	g_Error_Code, %object
  35              		.size	g_Error_Code, 4
  36              	g_Error_Code:
  37 0004 00000000 		.space	4
  38              		.global	g_PCInterrupt
  39              		.data
  40              		.type	g_PCInterrupt, %object
  41              		.size	g_PCInterrupt, 1
  42              	g_PCInterrupt:
  43 0001 30       		.byte	48
  44              		.global	g_ActivePage
  45              		.type	g_ActivePage, %object
  46              		.size	g_ActivePage, 1
  47              	g_ActivePage:
  48 0002 30       		.byte	48
  49              		.global	g_NumberOfMeasurements
  50              		.bss
  51              		.align	2
  52              		.type	g_NumberOfMeasurements, %object
  53              		.size	g_NumberOfMeasurements, 4
  54              	g_NumberOfMeasurements:
  55 0008 00000000 		.space	4
  56              		.global	g_SwitchPeriodOfLaser_ms
  57              		.align	2
ARM GAS  C:\Users\LOCALA~1\AppData\Local\Temp\ccsQji0c.s 			page 2


  58              		.type	g_SwitchPeriodOfLaser_ms, %object
  59              		.size	g_SwitchPeriodOfLaser_ms, 4
  60              	g_SwitchPeriodOfLaser_ms:
  61 000c 00000000 		.space	4
  62              		.global	g_MaxMeasurementTime_min
  63              		.align	2
  64              		.type	g_MaxMeasurementTime_min, %object
  65              		.size	g_MaxMeasurementTime_min, 4
  66              	g_MaxMeasurementTime_min:
  67 0010 00000000 		.space	4
  68              		.global	g_FormationTime_ms
  69              		.align	2
  70              		.type	g_FormationTime_ms, %object
  71              		.size	g_FormationTime_ms, 4
  72              	g_FormationTime_ms:
  73 0014 00000000 		.space	4
  74              		.global	g_RelaxationTime_ms
  75              		.align	2
  76              		.type	g_RelaxationTime_ms, %object
  77              		.size	g_RelaxationTime_ms, 4
  78              	g_RelaxationTime_ms:
  79 0018 00000000 		.space	4
  80              		.global	g_ConfirmationTime_ms
  81              		.align	2
  82              		.type	g_ConfirmationTime_ms, %object
  83              		.size	g_ConfirmationTime_ms, 4
  84              	g_ConfirmationTime_ms:
  85 001c 00000000 		.space	4
  86              		.global	g_ThresholdValue_mV
  87              		.align	2
  88              		.type	g_ThresholdValue_mV, %object
  89              		.size	g_ThresholdValue_mV, 4
  90              	g_ThresholdValue_mV:
  91 0020 00000000 		.space	4
  92              		.global	g_DataLogging
  93              		.type	g_DataLogging, %object
  94              		.size	g_DataLogging, 1
  95              	g_DataLogging:
  96 0024 00       		.space	1
  97              		.global	MAXMEASUREMENTSTEPS
  98              		.section	.rodata
  99              		.align	2
 100              		.type	MAXMEASUREMENTSTEPS, %object
 101              		.size	MAXMEASUREMENTSTEPS, 4
 102              	MAXMEASUREMENTSTEPS:
 103 0000 04000000 		.word	4
 104              		.comm	g_measurementLasers,12,4
 105              		.global	LaserState1
 106              		.bss
 107              		.type	LaserState1, %object
 108              		.size	LaserState1, 1
 109              	LaserState1:
 110 0025 00       		.space	1
 111              		.global	LaserState2
 112              		.type	LaserState2, %object
 113              		.size	LaserState2, 1
 114              	LaserState2:
ARM GAS  C:\Users\LOCALA~1\AppData\Local\Temp\ccsQji0c.s 			page 3


 115 0026 00       		.space	1
 116              		.global	LaserState3
 117              		.type	LaserState3, %object
 118              		.size	LaserState3, 1
 119              	LaserState3:
 120 0027 00       		.space	1
 121              		.global	OutputState1
 122              		.type	OutputState1, %object
 123              		.size	OutputState1, 1
 124              	OutputState1:
 125 0028 00       		.space	1
 126              		.global	OutputState2
 127              		.type	OutputState2, %object
 128              		.size	OutputState2, 1
 129              	OutputState2:
 130 0029 00       		.space	1
 131              		.global	v_timer_100ms
 132 002a 0000     		.align	2
 133              		.type	v_timer_100ms, %object
 134              		.size	v_timer_100ms, 4
 135              	v_timer_100ms:
 136 002c 00000000 		.space	4
 137              		.global	v_timerflag_100ms
 138              		.type	v_timerflag_100ms, %object
 139              		.size	v_timerflag_100ms, 1
 140              	v_timerflag_100ms:
 141 0030 00       		.space	1
 142              		.global	v_timer_waiting
 143 0031 000000   		.align	2
 144              		.type	v_timer_waiting, %object
 145              		.size	v_timer_waiting, 4
 146              	v_timer_waiting:
 147 0034 00000000 		.space	4
 148              		.global	v_timerflag_waiting
 149              		.type	v_timerflag_waiting, %object
 150              		.size	v_timerflag_waiting, 1
 151              	v_timerflag_waiting:
 152 0038 00       		.space	1
 153              		.global	v_timer_Lifetime_ms
 154 0039 00000000 		.align	3
 154      000000
 155              		.type	v_timer_Lifetime_ms, %object
 156              		.size	v_timer_Lifetime_ms, 8
 157              	v_timer_Lifetime_ms:
 158 0040 00000000 		.space	8
 158      00000000 
 159              		.global	v_timer_Measurement
 160              		.align	2
 161              		.type	v_timer_Measurement, %object
 162              		.size	v_timer_Measurement, 4
 163              	v_timer_Measurement:
 164 0048 00000000 		.space	4
 165              		.global	v_timerflag_Measurement
 166              		.align	2
 167              		.type	v_timerflag_Measurement, %object
 168              		.size	v_timerflag_Measurement, 4
 169              	v_timerflag_Measurement:
ARM GAS  C:\Users\LOCALA~1\AppData\Local\Temp\ccsQji0c.s 			page 4


 170 004c 00000000 		.space	4
 171              		.global	v_timer_LaserSwitch
 172              		.align	2
 173              		.type	v_timer_LaserSwitch, %object
 174              		.size	v_timer_LaserSwitch, 4
 175              	v_timer_LaserSwitch:
 176 0050 00000000 		.space	4
 177              		.global	v_timerflag_LaserSwitch
 178              		.align	2
 179              		.type	v_timerflag_LaserSwitch, %object
 180              		.size	v_timerflag_LaserSwitch, 4
 181              	v_timerflag_LaserSwitch:
 182 0054 00000000 		.space	4
 183              		.global	v_timer_500ms
 184              		.align	2
 185              		.type	v_timer_500ms, %object
 186              		.size	v_timer_500ms, 4
 187              	v_timer_500ms:
 188 0058 00000000 		.space	4
 189              		.global	v_timerflag_500ms
 190              		.align	2
 191              		.type	v_timerflag_500ms, %object
 192              		.size	v_timerflag_500ms, 4
 193              	v_timerflag_500ms:
 194 005c 00000000 		.space	4
 195              		.section	.text.Nextion_SendEndOfCommunication,"ax",%progbits
 196              		.align	2
 197              		.global	Nextion_SendEndOfCommunication
 198              		.thumb
 199              		.thumb_func
 200              		.type	Nextion_SendEndOfCommunication, %function
 201              	Nextion_SendEndOfCommunication:
 202              	.LFB64:
 203              		.file 1 "./Nextion.h"
   1:./Nextion.h   **** /* ========================================
   2:./Nextion.h   ****  *
   3:./Nextion.h   ****  * Copyright YOUR COMPANY, THE YEAR
   4:./Nextion.h   ****  * All Rights Reserved
   5:./Nextion.h   ****  * UNPUBLISHED, LICENSED SOFTWARE.
   6:./Nextion.h   ****  *
   7:./Nextion.h   ****  * CONFIDENTIAL AND PROPRIETARY INFORMATION
   8:./Nextion.h   ****  * WHICH IS THE PROPERTY OF your company.
   9:./Nextion.h   ****  *
  10:./Nextion.h   ****  * ========================================
  11:./Nextion.h   **** */
  12:./Nextion.h   **** 
  13:./Nextion.h   **** #ifndef NEXTION_H
  14:./Nextion.h   ****     #define NEXTION_H
  15:./Nextion.h   **** 
  16:./Nextion.h   ****     #include <project.h>
  17:./Nextion.h   ****     #include <stdlib.h>
  18:./Nextion.h   ****     #include <ProgramParts.h>
  19:./Nextion.h   ****     #include <GlobalVariables.h>
  20:./Nextion.h   ****     
  21:./Nextion.h   ****     void Nextion_SendEndOfCommunication()
  22:./Nextion.h   ****     {
 204              		.loc 1 22 0
ARM GAS  C:\Users\LOCALA~1\AppData\Local\Temp\ccsQji0c.s 			page 5


 205              		.cfi_startproc
 206              		@ args = 0, pretend = 0, frame = 0
 207              		@ frame_needed = 1, uses_anonymous_args = 0
 208 0000 80B5     		push	{r7, lr}
 209              		.cfi_def_cfa_offset 8
 210              		.cfi_offset 7, -8
 211              		.cfi_offset 14, -4
 212 0002 00AF     		add	r7, sp, #0
 213              		.cfi_def_cfa_register 7
  23:./Nextion.h   ****         CyDelay(10);
 214              		.loc 1 23 0
 215 0004 0A20     		movs	r0, #10
 216 0006 FFF7FEFF 		bl	CyDelay
  24:./Nextion.h   ****         UART_TFT_PutChar(0xFF);
 217              		.loc 1 24 0
 218 000a FF20     		movs	r0, #255
 219 000c FFF7FEFF 		bl	UART_TFT_PutChar
  25:./Nextion.h   ****         UART_TFT_PutChar(0xFF);
 220              		.loc 1 25 0
 221 0010 FF20     		movs	r0, #255
 222 0012 FFF7FEFF 		bl	UART_TFT_PutChar
  26:./Nextion.h   ****         UART_TFT_PutChar(0xFF);
 223              		.loc 1 26 0
 224 0016 FF20     		movs	r0, #255
 225 0018 FFF7FEFF 		bl	UART_TFT_PutChar
  27:./Nextion.h   ****     }
 226              		.loc 1 27 0
 227 001c 00BF     		nop
 228 001e 80BD     		pop	{r7, pc}
 229              		.cfi_endproc
 230              	.LFE64:
 231              		.size	Nextion_SendEndOfCommunication, .-Nextion_SendEndOfCommunication
 232              		.section	.text.Nextion_SendString,"ax",%progbits
 233              		.align	2
 234              		.global	Nextion_SendString
 235              		.thumb
 236              		.thumb_func
 237              		.type	Nextion_SendString, %function
 238              	Nextion_SendString:
 239              	.LFB65:
  28:./Nextion.h   ****     
  29:./Nextion.h   ****     void Nextion_SendString(const char *string)
  30:./Nextion.h   ****     {
 240              		.loc 1 30 0
 241              		.cfi_startproc
 242              		@ args = 0, pretend = 0, frame = 8
 243              		@ frame_needed = 1, uses_anonymous_args = 0
 244 0000 80B5     		push	{r7, lr}
 245              		.cfi_def_cfa_offset 8
 246              		.cfi_offset 7, -8
 247              		.cfi_offset 14, -4
 248 0002 82B0     		sub	sp, sp, #8
 249              		.cfi_def_cfa_offset 16
 250 0004 00AF     		add	r7, sp, #0
 251              		.cfi_def_cfa_register 7
 252 0006 7860     		str	r0, [r7, #4]
  31:./Nextion.h   ****         UART_TFT_PutString(string);
ARM GAS  C:\Users\LOCALA~1\AppData\Local\Temp\ccsQji0c.s 			page 6


 253              		.loc 1 31 0
 254 0008 7868     		ldr	r0, [r7, #4]
 255 000a FFF7FEFF 		bl	UART_TFT_PutString
  32:./Nextion.h   ****         Nextion_SendEndOfCommunication();
 256              		.loc 1 32 0
 257 000e FFF7FEFF 		bl	Nextion_SendEndOfCommunication
  33:./Nextion.h   ****     }
 258              		.loc 1 33 0
 259 0012 00BF     		nop
 260 0014 0837     		adds	r7, r7, #8
 261              		.cfi_def_cfa_offset 8
 262 0016 BD46     		mov	sp, r7
 263              		.cfi_def_cfa_register 13
 264              		@ sp needed
 265 0018 80BD     		pop	{r7, pc}
 266              		.cfi_endproc
 267              	.LFE65:
 268              		.size	Nextion_SendString, .-Nextion_SendString
 269 001a 00BF     		.section	.rodata
 270              		.align	2
 271              	.LC0:
 272 0004 2E76616C 		.ascii	".val=\000"
 272      3D00
 273              		.section	.text.Nextion_SendValueToValueBox,"ax",%progbits
 274              		.align	2
 275              		.global	Nextion_SendValueToValueBox
 276              		.thumb
 277              		.thumb_func
 278              		.type	Nextion_SendValueToValueBox, %function
 279              	Nextion_SendValueToValueBox:
 280              	.LFB66:
  34:./Nextion.h   ****     
  35:./Nextion.h   ****     void Nextion_SendValueToValueBox(const char *string, const int value)
  36:./Nextion.h   ****     {
 281              		.loc 1 36 0
 282              		.cfi_startproc
 283              		@ args = 0, pretend = 0, frame = 32
 284              		@ frame_needed = 1, uses_anonymous_args = 0
 285 0000 80B5     		push	{r7, lr}
 286              		.cfi_def_cfa_offset 8
 287              		.cfi_offset 7, -8
 288              		.cfi_offset 14, -4
 289 0002 88B0     		sub	sp, sp, #32
 290              		.cfi_def_cfa_offset 40
 291 0004 00AF     		add	r7, sp, #0
 292              		.cfi_def_cfa_register 7
 293 0006 7860     		str	r0, [r7, #4]
 294 0008 3960     		str	r1, [r7]
  37:./Nextion.h   ****         // Hilfsvariable mit 20 Zeichen, in der new_value als char gespeichert wird
  38:./Nextion.h   ****         char num_str[20];
  39:./Nextion.h   ****     
  40:./Nextion.h   ****         // neuen Wert setzen
  41:./Nextion.h   ****         UART_TFT_PutString((char*)string);
 295              		.loc 1 41 0
 296 000a 7868     		ldr	r0, [r7, #4]
 297 000c FFF7FEFF 		bl	UART_TFT_PutString
  42:./Nextion.h   ****         UART_TFT_PutString((char*)".val=");
ARM GAS  C:\Users\LOCALA~1\AppData\Local\Temp\ccsQji0c.s 			page 7


 298              		.loc 1 42 0
 299 0010 0A48     		ldr	r0, .L4
 300 0012 FFF7FEFF 		bl	UART_TFT_PutString
  43:./Nextion.h   ****         // Umwandlung Integer -> Array of char ("String") x_str im Decimalsystem
  44:./Nextion.h   ****         itoa(value, num_str, 10);
 301              		.loc 1 44 0
 302 0016 07F10C03 		add	r3, r7, #12
 303 001a 0A22     		movs	r2, #10
 304 001c 1946     		mov	r1, r3
 305 001e 3868     		ldr	r0, [r7]
 306 0020 FFF7FEFF 		bl	itoa
  45:./Nextion.h   ****         UART_TFT_PutString((char*)num_str);
 307              		.loc 1 45 0
 308 0024 07F10C03 		add	r3, r7, #12
 309 0028 1846     		mov	r0, r3
 310 002a FFF7FEFF 		bl	UART_TFT_PutString
  46:./Nextion.h   ****         // Anfrage absenden
  47:./Nextion.h   ****         Nextion_SendEndOfCommunication();
 311              		.loc 1 47 0
 312 002e FFF7FEFF 		bl	Nextion_SendEndOfCommunication
  48:./Nextion.h   ****     }
 313              		.loc 1 48 0
 314 0032 00BF     		nop
 315 0034 2037     		adds	r7, r7, #32
 316              		.cfi_def_cfa_offset 8
 317 0036 BD46     		mov	sp, r7
 318              		.cfi_def_cfa_register 13
 319              		@ sp needed
 320 0038 80BD     		pop	{r7, pc}
 321              	.L5:
 322 003a 00BF     		.align	2
 323              	.L4:
 324 003c 04000000 		.word	.LC0
 325              		.cfi_endproc
 326              	.LFE66:
 327              		.size	Nextion_SendValueToValueBox, .-Nextion_SendValueToValueBox
 328              		.section	.rodata
 329 000a 0000     		.align	2
 330              	.LC1:
 331 000c 2E747874 		.ascii	".txt=\"\000"
 331      3D2200
 332 0013 00       		.align	2
 333              	.LC2:
 334 0014 2200     		.ascii	"\"\000"
 335              		.section	.text.Nextion_SendTextToTextBox,"ax",%progbits
 336              		.align	2
 337              		.global	Nextion_SendTextToTextBox
 338              		.thumb
 339              		.thumb_func
 340              		.type	Nextion_SendTextToTextBox, %function
 341              	Nextion_SendTextToTextBox:
 342              	.LFB67:
  49:./Nextion.h   ****     
  50:./Nextion.h   ****     void Nextion_SendTextToTextBox(char *string, char *value)
  51:./Nextion.h   ****     {
 343              		.loc 1 51 0
 344              		.cfi_startproc
ARM GAS  C:\Users\LOCALA~1\AppData\Local\Temp\ccsQji0c.s 			page 8


 345              		@ args = 0, pretend = 0, frame = 8
 346              		@ frame_needed = 1, uses_anonymous_args = 0
 347 0000 80B5     		push	{r7, lr}
 348              		.cfi_def_cfa_offset 8
 349              		.cfi_offset 7, -8
 350              		.cfi_offset 14, -4
 351 0002 82B0     		sub	sp, sp, #8
 352              		.cfi_def_cfa_offset 16
 353 0004 00AF     		add	r7, sp, #0
 354              		.cfi_def_cfa_register 7
 355 0006 7860     		str	r0, [r7, #4]
 356 0008 3960     		str	r1, [r7]
  52:./Nextion.h   ****         UART_TFT_PutString((char*)string);
 357              		.loc 1 52 0
 358 000a 7868     		ldr	r0, [r7, #4]
 359 000c FFF7FEFF 		bl	UART_TFT_PutString
  53:./Nextion.h   ****         UART_TFT_PutString((char*)".txt=\"");
 360              		.loc 1 53 0
 361 0010 0748     		ldr	r0, .L7
 362 0012 FFF7FEFF 		bl	UART_TFT_PutString
  54:./Nextion.h   ****         UART_TFT_PutString((char*)value);
 363              		.loc 1 54 0
 364 0016 3868     		ldr	r0, [r7]
 365 0018 FFF7FEFF 		bl	UART_TFT_PutString
  55:./Nextion.h   ****         UART_TFT_PutString("\"");
 366              		.loc 1 55 0
 367 001c 0548     		ldr	r0, .L7+4
 368 001e FFF7FEFF 		bl	UART_TFT_PutString
  56:./Nextion.h   ****         // Anfrage absenden
  57:./Nextion.h   ****         Nextion_SendEndOfCommunication();
 369              		.loc 1 57 0
 370 0022 FFF7FEFF 		bl	Nextion_SendEndOfCommunication
  58:./Nextion.h   ****     }
 371              		.loc 1 58 0
 372 0026 00BF     		nop
 373 0028 0837     		adds	r7, r7, #8
 374              		.cfi_def_cfa_offset 8
 375 002a BD46     		mov	sp, r7
 376              		.cfi_def_cfa_register 13
 377              		@ sp needed
 378 002c 80BD     		pop	{r7, pc}
 379              	.L8:
 380 002e 00BF     		.align	2
 381              	.L7:
 382 0030 0C000000 		.word	.LC1
 383 0034 14000000 		.word	.LC2
 384              		.cfi_endproc
 385              	.LFE67:
 386              		.size	Nextion_SendTextToTextBox, .-Nextion_SendTextToTextBox
 387              		.section	.text.Nextion_GetSliderValue,"ax",%progbits
 388              		.align	2
 389              		.global	Nextion_GetSliderValue
 390              		.thumb
 391              		.thumb_func
 392              		.type	Nextion_GetSliderValue, %function
 393              	Nextion_GetSliderValue:
 394              	.LFB68:
ARM GAS  C:\Users\LOCALA~1\AppData\Local\Temp\ccsQji0c.s 			page 9


  59:./Nextion.h   ****     
  60:./Nextion.h   ****     int Nextion_GetSliderValue(){
 395              		.loc 1 60 0
 396              		.cfi_startproc
 397              		@ args = 0, pretend = 0, frame = 8
 398              		@ frame_needed = 1, uses_anonymous_args = 0
 399              		@ link register save eliminated.
 400 0000 80B4     		push	{r7}
 401              		.cfi_def_cfa_offset 4
 402              		.cfi_offset 7, -4
 403 0002 83B0     		sub	sp, sp, #12
 404              		.cfi_def_cfa_offset 16
 405 0004 00AF     		add	r7, sp, #0
 406              		.cfi_def_cfa_register 7
  61:./Nextion.h   ****         int slider_value = (g_SliderValueBuffer[0]+g_SliderValueBuffer[1]*256);
 407              		.loc 1 61 0
 408 0006 074B     		ldr	r3, .L11
 409 0008 1B78     		ldrb	r3, [r3]	@ zero_extendqisi2
 410 000a 1A46     		mov	r2, r3
 411 000c 054B     		ldr	r3, .L11
 412 000e 5B78     		ldrb	r3, [r3, #1]	@ zero_extendqisi2
 413 0010 1B02     		lsls	r3, r3, #8
 414 0012 1344     		add	r3, r3, r2
 415 0014 7B60     		str	r3, [r7, #4]
  62:./Nextion.h   ****         return slider_value;
 416              		.loc 1 62 0
 417 0016 7B68     		ldr	r3, [r7, #4]
  63:./Nextion.h   ****     }
 418              		.loc 1 63 0
 419 0018 1846     		mov	r0, r3
 420 001a 0C37     		adds	r7, r7, #12
 421              		.cfi_def_cfa_offset 4
 422 001c BD46     		mov	sp, r7
 423              		.cfi_def_cfa_register 13
 424              		@ sp needed
 425 001e 80BC     		pop	{r7}
 426              		.cfi_restore 7
 427              		.cfi_def_cfa_offset 0
 428 0020 7047     		bx	lr
 429              	.L12:
 430 0022 00BF     		.align	2
 431              	.L11:
 432 0024 00000000 		.word	g_SliderValueBuffer
 433              		.cfi_endproc
 434              	.LFE68:
 435              		.size	Nextion_GetSliderValue, .-Nextion_GetSliderValue
 436              		.section	.rodata
 437 0016 0000     		.align	2
 438              	.LC3:
 439 0018 2E62636F 		.ascii	".bco=\000"
 439      3D00
 440              		.section	.text.Nextion_SendBackgroundColorToButton,"ax",%progbits
 441              		.align	2
 442              		.global	Nextion_SendBackgroundColorToButton
 443              		.thumb
 444              		.thumb_func
 445              		.type	Nextion_SendBackgroundColorToButton, %function
ARM GAS  C:\Users\LOCALA~1\AppData\Local\Temp\ccsQji0c.s 			page 10


 446              	Nextion_SendBackgroundColorToButton:
 447              	.LFB69:
  64:./Nextion.h   ****     
  65:./Nextion.h   ****     void Nextion_SendBackgroundColorToButton(char *string, int color)
  66:./Nextion.h   ****     {
 448              		.loc 1 66 0
 449              		.cfi_startproc
 450              		@ args = 0, pretend = 0, frame = 32
 451              		@ frame_needed = 1, uses_anonymous_args = 0
 452 0000 80B5     		push	{r7, lr}
 453              		.cfi_def_cfa_offset 8
 454              		.cfi_offset 7, -8
 455              		.cfi_offset 14, -4
 456 0002 88B0     		sub	sp, sp, #32
 457              		.cfi_def_cfa_offset 40
 458 0004 00AF     		add	r7, sp, #0
 459              		.cfi_def_cfa_register 7
 460 0006 7860     		str	r0, [r7, #4]
 461 0008 3960     		str	r1, [r7]
  67:./Nextion.h   ****         char num_str[20];
  68:./Nextion.h   ****         itoa(color, num_str, 10);
 462              		.loc 1 68 0
 463 000a 07F10C03 		add	r3, r7, #12
 464 000e 0A22     		movs	r2, #10
 465 0010 1946     		mov	r1, r3
 466 0012 3868     		ldr	r0, [r7]
 467 0014 FFF7FEFF 		bl	itoa
  69:./Nextion.h   ****         UART_TFT_PutString((char*)string);
 468              		.loc 1 69 0
 469 0018 7868     		ldr	r0, [r7, #4]
 470 001a FFF7FEFF 		bl	UART_TFT_PutString
  70:./Nextion.h   ****         UART_TFT_PutString((char*)".bco=");
 471              		.loc 1 70 0
 472 001e 0748     		ldr	r0, .L14
 473 0020 FFF7FEFF 		bl	UART_TFT_PutString
  71:./Nextion.h   ****         UART_TFT_PutString((char*)num_str);
 474              		.loc 1 71 0
 475 0024 07F10C03 		add	r3, r7, #12
 476 0028 1846     		mov	r0, r3
 477 002a FFF7FEFF 		bl	UART_TFT_PutString
  72:./Nextion.h   ****         Nextion_SendEndOfCommunication();
 478              		.loc 1 72 0
 479 002e FFF7FEFF 		bl	Nextion_SendEndOfCommunication
  73:./Nextion.h   ****     }
 480              		.loc 1 73 0
 481 0032 00BF     		nop
 482 0034 2037     		adds	r7, r7, #32
 483              		.cfi_def_cfa_offset 8
 484 0036 BD46     		mov	sp, r7
 485              		.cfi_def_cfa_register 13
 486              		@ sp needed
 487 0038 80BD     		pop	{r7, pc}
 488              	.L15:
 489 003a 00BF     		.align	2
 490              	.L14:
 491 003c 18000000 		.word	.LC3
 492              		.cfi_endproc
ARM GAS  C:\Users\LOCALA~1\AppData\Local\Temp\ccsQji0c.s 			page 11


 493              	.LFE69:
 494              		.size	Nextion_SendBackgroundColorToButton, .-Nextion_SendBackgroundColorToButton
 495              		.section	.rodata
 496 001e 0000     		.align	2
 497              	.LC4:
 498 0020 70616765 		.ascii	"page Home\000"
 498      20486F6D 
 498      6500
 499              		.section	.text.Init_Nextion,"ax",%progbits
 500              		.align	2
 501              		.global	Init_Nextion
 502              		.thumb
 503              		.thumb_func
 504              		.type	Init_Nextion, %function
 505              	Init_Nextion:
 506              	.LFB70:
  74:./Nextion.h   ****     
  75:./Nextion.h   ****     void Init_Nextion()
  76:./Nextion.h   ****     {
 507              		.loc 1 76 0
 508              		.cfi_startproc
 509              		@ args = 0, pretend = 0, frame = 0
 510              		@ frame_needed = 1, uses_anonymous_args = 0
 511 0000 80B5     		push	{r7, lr}
 512              		.cfi_def_cfa_offset 8
 513              		.cfi_offset 7, -8
 514              		.cfi_offset 14, -4
 515 0002 00AF     		add	r7, sp, #0
 516              		.cfi_def_cfa_register 7
  77:./Nextion.h   ****         UART_TFT_Start();
 517              		.loc 1 77 0
 518 0004 FFF7FEFF 		bl	UART_TFT_Start
  78:./Nextion.h   ****         CyDelay(2000);
 519              		.loc 1 78 0
 520 0008 4FF4FA60 		mov	r0, #2000
 521 000c FFF7FEFF 		bl	CyDelay
  79:./Nextion.h   ****         Nextion_SendString("page Home");
 522              		.loc 1 79 0
 523 0010 0248     		ldr	r0, .L17
 524 0012 FFF7FEFF 		bl	Nextion_SendString
  80:./Nextion.h   ****         
  81:./Nextion.h   ****     }
 525              		.loc 1 81 0
 526 0016 00BF     		nop
 527 0018 80BD     		pop	{r7, pc}
 528              	.L18:
 529 001a 00BF     		.align	2
 530              	.L17:
 531 001c 20000000 		.word	.LC4
 532              		.cfi_endproc
 533              	.LFE70:
 534              		.size	Init_Nextion, .-Init_Nextion
 535              		.section	.text.setError,"ax",%progbits
 536              		.align	2
 537              		.global	setError
 538              		.thumb
 539              		.thumb_func
ARM GAS  C:\Users\LOCALA~1\AppData\Local\Temp\ccsQji0c.s 			page 12


 540              		.type	setError, %function
 541              	setError:
 542              	.LFB71:
 543              		.file 2 "./Error.h"
   1:./Error.h     **** /* ========================================
   2:./Error.h     ****  *
   3:./Error.h     ****  * Copyright YOUR COMPANY, THE YEAR
   4:./Error.h     ****  * All Rights Reserved
   5:./Error.h     ****  * UNPUBLISHED, LICENSED SOFTWARE.
   6:./Error.h     ****  *
   7:./Error.h     ****  * CONFIDENTIAL AND PROPRIETARY INFORMATION
   8:./Error.h     ****  * WHICH IS THE PROPERTY OF your company.
   9:./Error.h     ****  *
  10:./Error.h     ****  * ========================================
  11:./Error.h     **** */
  12:./Error.h     **** #ifndef ERROR_H
  13:./Error.h     ****     #define ERROR_H
  14:./Error.h     ****     
  15:./Error.h     ****     #include <Nextion.h>
  16:./Error.h     ****     #include <GlobalVariables.h>
  17:./Error.h     ****     
  18:./Error.h     ****     void setError(int code)
  19:./Error.h     ****     {
 544              		.loc 2 19 0
 545              		.cfi_startproc
 546              		@ args = 0, pretend = 0, frame = 8
 547              		@ frame_needed = 1, uses_anonymous_args = 0
 548              		@ link register save eliminated.
 549 0000 80B4     		push	{r7}
 550              		.cfi_def_cfa_offset 4
 551              		.cfi_offset 7, -4
 552 0002 83B0     		sub	sp, sp, #12
 553              		.cfi_def_cfa_offset 16
 554 0004 00AF     		add	r7, sp, #0
 555              		.cfi_def_cfa_register 7
 556 0006 7860     		str	r0, [r7, #4]
  20:./Error.h     ****         g_Error_Code = code;
 557              		.loc 2 20 0
 558 0008 034A     		ldr	r2, .L20
 559 000a 7B68     		ldr	r3, [r7, #4]
 560 000c 1360     		str	r3, [r2]
  21:./Error.h     ****     }
 561              		.loc 2 21 0
 562 000e 00BF     		nop
 563 0010 0C37     		adds	r7, r7, #12
 564              		.cfi_def_cfa_offset 4
 565 0012 BD46     		mov	sp, r7
 566              		.cfi_def_cfa_register 13
 567              		@ sp needed
 568 0014 80BC     		pop	{r7}
 569              		.cfi_restore 7
 570              		.cfi_def_cfa_offset 0
 571 0016 7047     		bx	lr
 572              	.L21:
 573              		.align	2
 574              	.L20:
 575 0018 00000000 		.word	g_Error_Code
ARM GAS  C:\Users\LOCALA~1\AppData\Local\Temp\ccsQji0c.s 			page 13


 576              		.cfi_endproc
 577              	.LFE71:
 578              		.size	setError, .-setError
 579              		.section	.rodata
 580 002a 0000     		.align	2
 581              	.LC5:
 582 002c 70616765 		.ascii	"page Error\000"
 582      20457272 
 582      6F7200
 583 0037 00       		.align	2
 584              	.LC6:
 585 0038 6E5F4572 		.ascii	"n_ErrorCode\000"
 585      726F7243 
 585      6F646500 
 586              		.section	.text.Error,"ax",%progbits
 587              		.align	2
 588              		.global	Error
 589              		.thumb
 590              		.thumb_func
 591              		.type	Error, %function
 592              	Error:
 593              	.LFB72:
  22:./Error.h     ****     
  23:./Error.h     ****     void Error()
  24:./Error.h     ****     {
 594              		.loc 2 24 0
 595              		.cfi_startproc
 596              		@ args = 0, pretend = 0, frame = 0
 597              		@ frame_needed = 1, uses_anonymous_args = 0
 598 0000 80B5     		push	{r7, lr}
 599              		.cfi_def_cfa_offset 8
 600              		.cfi_offset 7, -8
 601              		.cfi_offset 14, -4
 602 0002 00AF     		add	r7, sp, #0
 603              		.cfi_def_cfa_register 7
  25:./Error.h     ****         // INIT
  26:./Error.h     ****         
  27:./Error.h     ****         // MAIN
  28:./Error.h     ****         
  29:./Error.h     ****         Nextion_SendString("page Error");
 604              		.loc 2 29 0
 605 0004 0F48     		ldr	r0, .L25
 606 0006 FFF7FEFF 		bl	Nextion_SendString
  30:./Error.h     ****         CyDelay(100);
 607              		.loc 2 30 0
 608 000a 6420     		movs	r0, #100
 609 000c FFF7FEFF 		bl	CyDelay
  31:./Error.h     ****        
  32:./Error.h     ****         Nextion_SendValueToValueBox("n_ErrorCode", g_Error_Code);
 610              		.loc 2 32 0
 611 0010 0D4B     		ldr	r3, .L25+4
 612 0012 1B68     		ldr	r3, [r3]
 613 0014 1946     		mov	r1, r3
 614 0016 0D48     		ldr	r0, .L25+8
 615 0018 FFF7FEFF 		bl	Nextion_SendValueToValueBox
  33:./Error.h     ****         CyDelay(100);
 616              		.loc 2 33 0
ARM GAS  C:\Users\LOCALA~1\AppData\Local\Temp\ccsQji0c.s 			page 14


 617 001c 6420     		movs	r0, #100
 618 001e FFF7FEFF 		bl	CyDelay
  34:./Error.h     ****         g_Error_Code = 0;
 619              		.loc 2 34 0
 620 0022 094B     		ldr	r3, .L25+4
 621 0024 0022     		movs	r2, #0
 622 0026 1A60     		str	r2, [r3]
  35:./Error.h     ****         
  36:./Error.h     ****         while (g_NextionInterrupt != BUTTON_HOME)
 623              		.loc 2 36 0
 624 0028 02E0     		b	.L23
 625              	.L24:
  37:./Error.h     ****         {
  38:./Error.h     ****             CyDelay(5);
 626              		.loc 2 38 0
 627 002a 0520     		movs	r0, #5
 628 002c FFF7FEFF 		bl	CyDelay
 629              	.L23:
  36:./Error.h     ****         {
 630              		.loc 2 36 0
 631 0030 074B     		ldr	r3, .L25+12
 632 0032 1B78     		ldrb	r3, [r3]	@ zero_extendqisi2
 633 0034 482B     		cmp	r3, #72
 634 0036 F8D1     		bne	.L24
  39:./Error.h     ****         }
  40:./Error.h     ****         g_NextionInterrupt = '0';
 635              		.loc 2 40 0
 636 0038 054B     		ldr	r3, .L25+12
 637 003a 3022     		movs	r2, #48
 638 003c 1A70     		strb	r2, [r3]
  41:./Error.h     ****     }
 639              		.loc 2 41 0
 640 003e 00BF     		nop
 641 0040 80BD     		pop	{r7, pc}
 642              	.L26:
 643 0042 00BF     		.align	2
 644              	.L25:
 645 0044 2C000000 		.word	.LC5
 646 0048 00000000 		.word	g_Error_Code
 647 004c 38000000 		.word	.LC6
 648 0050 00000000 		.word	g_NextionInterrupt
 649              		.cfi_endproc
 650              	.LFE72:
 651              		.size	Error, .-Error
 652              		.section	.rodata
 653              		.align	2
 654              	.LC7:
 655 0044 6100     		.ascii	"a\000"
 656              		.global	__aeabi_ddiv
 657 0046 0000     		.align	2
 658              	.LC8:
 659 0048 25640925 		.ascii	"%d\011%f\011%i\012\000"
 659      66092569 
 659      0A00
 660              		.section	.text.LogLifetime,"ax",%progbits
 661              		.align	2
 662              		.global	LogLifetime
ARM GAS  C:\Users\LOCALA~1\AppData\Local\Temp\ccsQji0c.s 			page 15


 663              		.thumb
 664              		.thumb_func
 665              		.type	LogLifetime, %function
 666              	LogLifetime:
 667              	.LFB73:
 668              		.file 3 "./SDCard.h"
   1:./SDCard.h    **** /* ========================================
   2:./SDCard.h    ****  *
   3:./SDCard.h    ****  * Copyright YOUR COMPANY, THE YEAR
   4:./SDCard.h    ****  * All Rights Reserved
   5:./SDCard.h    ****  * UNPUBLISHED, LICENSED SOFTWARE.
   6:./SDCard.h    ****  *
   7:./SDCard.h    ****  * CONFIDENTIAL AND PROPRIETARY INFORMATION
   8:./SDCard.h    ****  * WHICH IS THE PROPERTY OF your company.
   9:./SDCard.h    ****  *
  10:./SDCard.h    ****  * ========================================
  11:./SDCard.h    **** */
  12:./SDCard.h    **** 
  13:./SDCard.h    **** #ifndef SDCARD_H
  14:./SDCard.h    ****     #define SDCARD_H
  15:./SDCard.h    ****     
  16:./SDCard.h    ****     #include <project.h>
  17:./SDCard.h    ****     #include <stdio.h>
  18:./SDCard.h    ****     #include <stdlib.h>
  19:./SDCard.h    ****     #include <FS.h>
  20:./SDCard.h    ****     #include <GlobalVariables.h>
  21:./SDCard.h    ****     #include <Error.h>
  22:./SDCard.h    ****     
  23:./SDCard.h    ****     #define MaxRetriesForFileOpening 100
  24:./SDCard.h    ****     
  25:./SDCard.h    ****     void LogLifetime(char *name, int NumberOfMeasurement, double Lifetime, int ArbitrarilyRuptured)
  26:./SDCard.h    ****     {
 669              		.loc 3 26 0
 670              		.cfi_startproc
 671              		@ args = 4, pretend = 0, frame = 72
 672              		@ frame_needed = 1, uses_anonymous_args = 0
 673 0000 90B5     		push	{r4, r7, lr}
 674              		.cfi_def_cfa_offset 12
 675              		.cfi_offset 4, -12
 676              		.cfi_offset 7, -8
 677              		.cfi_offset 14, -4
 678 0002 97B0     		sub	sp, sp, #92
 679              		.cfi_def_cfa_offset 104
 680 0004 04AF     		add	r7, sp, #16
 681              		.cfi_def_cfa 7, 88
 682 0006 F860     		str	r0, [r7, #12]
 683 0008 B960     		str	r1, [r7, #8]
 684 000a C7E90023 		strd	r2, [r7]
  27:./SDCard.h    ****         FS_FILE *File;
  28:./SDCard.h    ****         
  29:./SDCard.h    ****         #ifdef ChangeFileName
  30:./SDCard.h    ****             char tmp_FileName[13];
  31:./SDCard.h    ****             sprintf(tmp_FileName, "%s.txt", FileName);
  32:./SDCard.h    ****         #endif    
  33:./SDCard.h    ****            
  34:./SDCard.h    ****         char buffer_nextLine[40];
  35:./SDCard.h    **** 
ARM GAS  C:\Users\LOCALA~1\AppData\Local\Temp\ccsQji0c.s 			page 16


  36:./SDCard.h    ****         
  37:./SDCard.h    ****         int retryCount;
  38:./SDCard.h    ****         retryCount = 0; 
 685              		.loc 3 38 0
 686 000e 0023     		movs	r3, #0
 687 0010 3B64     		str	r3, [r7, #64]
  39:./SDCard.h    ****         #ifdef ChangeFileName
  40:./SDCard.h    ****         File = FS_FOpen((char*)tmp_FileName, "a");
  41:./SDCard.h    ****         #else
  42:./SDCard.h    ****             File = FS_FOpen(name, "a");    
 688              		.loc 3 42 0
 689 0012 2F49     		ldr	r1, .L35
 690 0014 F868     		ldr	r0, [r7, #12]
 691 0016 FFF7FEFF 		bl	FS_FOpen
 692 001a 7864     		str	r0, [r7, #68]
  43:./SDCard.h    ****         #endif
  44:./SDCard.h    ****         CyDelay(10);
 693              		.loc 3 44 0
 694 001c 0A20     		movs	r0, #10
 695 001e FFF7FEFF 		bl	CyDelay
  45:./SDCard.h    ****         
  46:./SDCard.h    ****         while (File == 0)
 696              		.loc 3 46 0
 697 0022 12E0     		b	.L28
 698              	.L30:
  47:./SDCard.h    ****         {
  48:./SDCard.h    ****             retryCount++;
 699              		.loc 3 48 0
 700 0024 3B6C     		ldr	r3, [r7, #64]
 701 0026 0133     		adds	r3, r3, #1
 702 0028 3B64     		str	r3, [r7, #64]
  49:./SDCard.h    ****             #ifdef ChangeFileName
  50:./SDCard.h    ****                 File = FS_FOpen((char*)tmp_FileName, "a");
  51:./SDCard.h    ****             #else
  52:./SDCard.h    ****                 File = FS_FOpen(name, "a");    
 703              		.loc 3 52 0
 704 002a 2949     		ldr	r1, .L35
 705 002c F868     		ldr	r0, [r7, #12]
 706 002e FFF7FEFF 		bl	FS_FOpen
 707 0032 7864     		str	r0, [r7, #68]
  53:./SDCard.h    ****             #endif
  54:./SDCard.h    ****             CyDelay(10);
 708              		.loc 3 54 0
 709 0034 0A20     		movs	r0, #10
 710 0036 FFF7FEFF 		bl	CyDelay
  55:./SDCard.h    ****             if (retryCount > MaxRetriesForFileOpening)
 711              		.loc 3 55 0
 712 003a 3B6C     		ldr	r3, [r7, #64]
 713 003c 642B     		cmp	r3, #100
 714 003e 04DD     		ble	.L28
  56:./SDCard.h    ****             {
  57:./SDCard.h    ****                 setError(700);
 715              		.loc 3 57 0
 716 0040 4FF42F70 		mov	r0, #700
 717 0044 FFF7FEFF 		bl	setError
  58:./SDCard.h    ****                 return;                 // Stop logging, file is not open
 718              		.loc 3 58 0
ARM GAS  C:\Users\LOCALA~1\AppData\Local\Temp\ccsQji0c.s 			page 17


 719 0048 3FE0     		b	.L27
 720              	.L28:
  46:./SDCard.h    ****         {
 721              		.loc 3 46 0
 722 004a 7B6C     		ldr	r3, [r7, #68]
 723 004c 002B     		cmp	r3, #0
 724 004e E9D0     		beq	.L30
  59:./SDCard.h    ****             }
  60:./SDCard.h    ****         }
  61:./SDCard.h    ****         
  62:./SDCard.h    ****         sprintf((char*)buffer_nextLine, "%d\t%f\t%i\n", NumberOfMeasurement, Lifetime/1000.0, Arbit
 725              		.loc 3 62 0
 726 0050 4FF00002 		mov	r2, #0
 727 0054 1F4B     		ldr	r3, .L35+4
 728 0056 D7E90001 		ldrd	r0, [r7]
 729 005a FFF7FEFF 		bl	__aeabi_ddiv
 730 005e 0346     		mov	r3, r0
 731 0060 0C46     		mov	r4, r1
 732 0062 07F11400 		add	r0, r7, #20
 733 0066 BA6D     		ldr	r2, [r7, #88]
 734 0068 0292     		str	r2, [sp, #8]
 735 006a CDE90034 		strd	r3, [sp]
 736 006e BA68     		ldr	r2, [r7, #8]
 737 0070 1949     		ldr	r1, .L35+8
 738 0072 FFF7FEFF 		bl	sprintf
  63:./SDCard.h    ****         
  64:./SDCard.h    ****         if (0 != FS_Write(File, buffer_nextLine, strlen(buffer_nextLine)))
 739              		.loc 3 64 0
 740 0076 07F11403 		add	r3, r7, #20
 741 007a 1846     		mov	r0, r3
 742 007c FFF7FEFF 		bl	strlen
 743 0080 0246     		mov	r2, r0
 744 0082 07F11403 		add	r3, r7, #20
 745 0086 1946     		mov	r1, r3
 746 0088 786C     		ldr	r0, [r7, #68]
 747 008a FFF7FEFF 		bl	FS_Write
 748 008e 0346     		mov	r3, r0
 749 0090 002B     		cmp	r3, #0
 750 0092 03D1     		bne	.L31
  65:./SDCard.h    ****         {
  66:./SDCard.h    ****             // Write successfull, do nothing    
  67:./SDCard.h    ****         }
  68:./SDCard.h    ****         else
  69:./SDCard.h    ****         {
  70:./SDCard.h    ****             // Error, Write failed. 
  71:./SDCard.h    ****             setError(701);
 751              		.loc 3 71 0
 752 0094 40F2BD20 		movw	r0, #701
 753 0098 FFF7FEFF 		bl	setError
 754              	.L31:
  72:./SDCard.h    ****         }
  73:./SDCard.h    ****         
  74:./SDCard.h    ****         int retValFS_FClose = 1;
 755              		.loc 3 74 0
 756 009c 0123     		movs	r3, #1
 757 009e FB63     		str	r3, [r7, #60]
  75:./SDCard.h    ****         retryCount = 0;
ARM GAS  C:\Users\LOCALA~1\AppData\Local\Temp\ccsQji0c.s 			page 18


 758              		.loc 3 75 0
 759 00a0 0023     		movs	r3, #0
 760 00a2 3B64     		str	r3, [r7, #64]
  76:./SDCard.h    ****         while (retValFS_FClose)
 761              		.loc 3 76 0
 762 00a4 0EE0     		b	.L32
 763              	.L33:
  77:./SDCard.h    ****         {
  78:./SDCard.h    ****             retryCount++;
 764              		.loc 3 78 0
 765 00a6 3B6C     		ldr	r3, [r7, #64]
 766 00a8 0133     		adds	r3, r3, #1
 767 00aa 3B64     		str	r3, [r7, #64]
  79:./SDCard.h    ****             retValFS_FClose = FS_FClose(File);
 768              		.loc 3 79 0
 769 00ac 786C     		ldr	r0, [r7, #68]
 770 00ae FFF7FEFF 		bl	FS_FClose
 771 00b2 F863     		str	r0, [r7, #60]
  80:./SDCard.h    ****             
  81:./SDCard.h    ****             if (retryCount > 100)
 772              		.loc 3 81 0
 773 00b4 3B6C     		ldr	r3, [r7, #64]
 774 00b6 642B     		cmp	r3, #100
 775 00b8 04DD     		ble	.L32
  82:./SDCard.h    ****             {
  83:./SDCard.h    ****                 setError(702);
 776              		.loc 3 83 0
 777 00ba 40F2BE20 		movw	r0, #702
 778 00be FFF7FEFF 		bl	setError
  84:./SDCard.h    ****                 return;
 779              		.loc 3 84 0
 780 00c2 02E0     		b	.L27
 781              	.L32:
  76:./SDCard.h    ****         {
 782              		.loc 3 76 0
 783 00c4 FB6B     		ldr	r3, [r7, #60]
 784 00c6 002B     		cmp	r3, #0
 785 00c8 EDD1     		bne	.L33
 786              	.L27:
  85:./SDCard.h    ****             }
  86:./SDCard.h    ****         }
  87:./SDCard.h    ****     }
 787              		.loc 3 87 0
 788 00ca 4C37     		adds	r7, r7, #76
 789              		.cfi_def_cfa_offset 12
 790 00cc BD46     		mov	sp, r7
 791              		.cfi_def_cfa_register 13
 792              		@ sp needed
 793 00ce 90BD     		pop	{r4, r7, pc}
 794              	.L36:
 795              		.align	2
 796              	.L35:
 797 00d0 44000000 		.word	.LC7
 798 00d4 00408F40 		.word	1083129856
 799 00d8 48000000 		.word	.LC8
 800              		.cfi_endproc
 801              	.LFE73:
ARM GAS  C:\Users\LOCALA~1\AppData\Local\Temp\ccsQji0c.s 			page 19


 802              		.size	LogLifetime, .-LogLifetime
 803              		.section	.rodata
 804 0052 0000     		.align	2
 805              	.LC9:
 806 0054 53702530 		.ascii	"Sp%04i.txt\000"
 806      34692E74 
 806      787400
 807 005f 00       		.align	2
 808              	.LC10:
 809 0060 25302E33 		.ascii	"%0.3f\012\000"
 809      660A00
 810              		.section	.text.WriteSpeedTest,"ax",%progbits
 811              		.align	2
 812              		.global	WriteSpeedTest
 813              		.thumb
 814              		.thumb_func
 815              		.type	WriteSpeedTest, %function
 816              	WriteSpeedTest:
 817              	.LFB74:
  88:./SDCard.h    ****     
  89:./SDCard.h    ****     
  90:./SDCard.h    ****     void WriteSpeedTest()
  91:./SDCard.h    ****     {
 818              		.loc 3 91 0
 819              		.cfi_startproc
 820              		@ args = 0, pretend = 0, frame = 72
 821              		@ frame_needed = 1, uses_anonymous_args = 0
 822 0000 90B5     		push	{r4, r7, lr}
 823              		.cfi_def_cfa_offset 12
 824              		.cfi_offset 4, -12
 825              		.cfi_offset 7, -8
 826              		.cfi_offset 14, -4
 827 0002 93B0     		sub	sp, sp, #76
 828              		.cfi_def_cfa_offset 88
 829 0004 00AF     		add	r7, sp, #0
 830              		.cfi_def_cfa_register 7
  92:./SDCard.h    ****         FS_FILE *File;
  93:./SDCard.h    ****         char buffer_FileName[12];
  94:./SDCard.h    ****         char buffer_nextLine[40];
  95:./SDCard.h    **** 
  96:./SDCard.h    ****         v_timer_Lifetime_ms = 0;
 831              		.loc 3 96 0
 832 0006 3E4A     		ldr	r2, .L49
 833 0008 4FF00003 		mov	r3, #0
 834 000c 4FF00004 		mov	r4, #0
 835 0010 C2E90034 		strd	r3, [r2]
 836              	.LBB2:
  97:./SDCard.h    ****         for (int j = 100; j > 0; j = j-10)
 837              		.loc 3 97 0
 838 0014 6423     		movs	r3, #100
 839 0016 3B64     		str	r3, [r7, #64]
 840 0018 6BE0     		b	.L38
 841              	.L47:
 842              	.LBB3:
  98:./SDCard.h    ****         {
  99:./SDCard.h    ****             for (int i = 0; i < 1000; i++)
 843              		.loc 3 99 0
ARM GAS  C:\Users\LOCALA~1\AppData\Local\Temp\ccsQji0c.s 			page 20


 844 001a 0023     		movs	r3, #0
 845 001c FB63     		str	r3, [r7, #60]
 846 001e 61E0     		b	.L39
 847              	.L46:
 848              	.LBB4:
 100:./SDCard.h    ****             {
 101:./SDCard.h    ****                 sprintf((char*)buffer_FileName, "Sp%04i.txt", j);
 849              		.loc 3 101 0
 850 0020 07F12803 		add	r3, r7, #40
 851 0024 3A6C     		ldr	r2, [r7, #64]
 852 0026 3749     		ldr	r1, .L49+4
 853 0028 1846     		mov	r0, r3
 854 002a FFF7FEFF 		bl	sprintf
 102:./SDCard.h    ****                 
 103:./SDCard.h    ****                 File = FS_FOpen(buffer_FileName, "a");
 855              		.loc 3 103 0
 856 002e 07F12803 		add	r3, r7, #40
 857 0032 3549     		ldr	r1, .L49+8
 858 0034 1846     		mov	r0, r3
 859 0036 FFF7FEFF 		bl	FS_FOpen
 860 003a 7864     		str	r0, [r7, #68]
 104:./SDCard.h    ****                 CyDelay(j);
 861              		.loc 3 104 0
 862 003c 3B6C     		ldr	r3, [r7, #64]
 863 003e 1846     		mov	r0, r3
 864 0040 FFF7FEFF 		bl	CyDelay
 105:./SDCard.h    ****                 
 106:./SDCard.h    ****                 int retryCount;
 107:./SDCard.h    ****                 retryCount = 0;
 865              		.loc 3 107 0
 866 0044 0023     		movs	r3, #0
 867 0046 BB63     		str	r3, [r7, #56]
 108:./SDCard.h    ****                 
 109:./SDCard.h    ****                 while (File == 0)
 868              		.loc 3 109 0
 869 0048 15E0     		b	.L40
 870              	.L42:
 110:./SDCard.h    ****                 {
 111:./SDCard.h    ****                     retryCount++;
 871              		.loc 3 111 0
 872 004a BB6B     		ldr	r3, [r7, #56]
 873 004c 0133     		adds	r3, r3, #1
 874 004e BB63     		str	r3, [r7, #56]
 112:./SDCard.h    ****                     File = FS_FOpen(buffer_FileName, "a");
 875              		.loc 3 112 0
 876 0050 07F12803 		add	r3, r7, #40
 877 0054 2C49     		ldr	r1, .L49+8
 878 0056 1846     		mov	r0, r3
 879 0058 FFF7FEFF 		bl	FS_FOpen
 880 005c 7864     		str	r0, [r7, #68]
 113:./SDCard.h    ****                     CyDelay(j);
 881              		.loc 3 113 0
 882 005e 3B6C     		ldr	r3, [r7, #64]
 883 0060 1846     		mov	r0, r3
 884 0062 FFF7FEFF 		bl	CyDelay
 114:./SDCard.h    ****                     if (retryCount > MaxRetriesForFileOpening)
 885              		.loc 3 114 0
ARM GAS  C:\Users\LOCALA~1\AppData\Local\Temp\ccsQji0c.s 			page 21


 886 0066 BB6B     		ldr	r3, [r7, #56]
 887 0068 642B     		cmp	r3, #100
 888 006a 04DD     		ble	.L40
 115:./SDCard.h    ****                     {
 116:./SDCard.h    ****                         setError(710);
 889              		.loc 3 116 0
 890 006c 40F2C620 		movw	r0, #710
 891 0070 FFF7FEFF 		bl	setError
 117:./SDCard.h    ****                         return;                 // Stop logging, file is not open
 892              		.loc 3 117 0
 893 0074 40E0     		b	.L37
 894              	.L40:
 109:./SDCard.h    ****                 {
 895              		.loc 3 109 0
 896 0076 7B6C     		ldr	r3, [r7, #68]
 897 0078 002B     		cmp	r3, #0
 898 007a E6D0     		beq	.L42
 118:./SDCard.h    ****                     }
 119:./SDCard.h    ****                 }
 120:./SDCard.h    ****                 
 121:./SDCard.h    ****                 sprintf((char*)buffer_nextLine, "%0.3f\n", v_timer_Lifetime_ms);
 899              		.loc 3 121 0
 900 007c 204B     		ldr	r3, .L49
 901 007e 18CB     		ldmia	r3, {r3-r4}
 902 0080 3846     		mov	r0, r7
 903 0082 1A46     		mov	r2, r3
 904 0084 2346     		mov	r3, r4
 905 0086 2149     		ldr	r1, .L49+12
 906 0088 FFF7FEFF 		bl	sprintf
 122:./SDCard.h    ****                 
 123:./SDCard.h    ****                 
 124:./SDCard.h    ****                 if (0 != FS_Write(File, buffer_nextLine, strlen(buffer_nextLine)))
 907              		.loc 3 124 0
 908 008c 3B46     		mov	r3, r7
 909 008e 1846     		mov	r0, r3
 910 0090 FFF7FEFF 		bl	strlen
 911 0094 0246     		mov	r2, r0
 912 0096 3B46     		mov	r3, r7
 913 0098 1946     		mov	r1, r3
 914 009a 786C     		ldr	r0, [r7, #68]
 915 009c FFF7FEFF 		bl	FS_Write
 916 00a0 0346     		mov	r3, r0
 917 00a2 002B     		cmp	r3, #0
 918 00a4 04D1     		bne	.L43
 125:./SDCard.h    ****                 {
 126:./SDCard.h    ****                     // Write successfull, do nothing    
 127:./SDCard.h    ****                 }
 128:./SDCard.h    ****                 else
 129:./SDCard.h    ****                 {
 130:./SDCard.h    ****                     // Error, Write failed. 
 131:./SDCard.h    ****                     setError(711);
 919              		.loc 3 131 0
 920 00a6 40F2C720 		movw	r0, #711
 921 00aa FFF7FEFF 		bl	setError
 132:./SDCard.h    ****                     return;
 922              		.loc 3 132 0
 923 00ae 23E0     		b	.L37
ARM GAS  C:\Users\LOCALA~1\AppData\Local\Temp\ccsQji0c.s 			page 22


 924              	.L43:
 133:./SDCard.h    ****                 }
 134:./SDCard.h    ****                 
 135:./SDCard.h    ****                 int retValFS_FClose = 1;
 925              		.loc 3 135 0
 926 00b0 0123     		movs	r3, #1
 927 00b2 7B63     		str	r3, [r7, #52]
 136:./SDCard.h    ****                 retryCount = 0;
 928              		.loc 3 136 0
 929 00b4 0023     		movs	r3, #0
 930 00b6 BB63     		str	r3, [r7, #56]
 137:./SDCard.h    ****                 while (retValFS_FClose)
 931              		.loc 3 137 0
 932 00b8 0EE0     		b	.L44
 933              	.L45:
 138:./SDCard.h    ****                 {
 139:./SDCard.h    ****                     retryCount++;
 934              		.loc 3 139 0
 935 00ba BB6B     		ldr	r3, [r7, #56]
 936 00bc 0133     		adds	r3, r3, #1
 937 00be BB63     		str	r3, [r7, #56]
 140:./SDCard.h    ****                     retValFS_FClose = FS_FClose(File);
 938              		.loc 3 140 0
 939 00c0 786C     		ldr	r0, [r7, #68]
 940 00c2 FFF7FEFF 		bl	FS_FClose
 941 00c6 7863     		str	r0, [r7, #52]
 141:./SDCard.h    ****                     
 142:./SDCard.h    ****                     if (retryCount > 100)
 942              		.loc 3 142 0
 943 00c8 BB6B     		ldr	r3, [r7, #56]
 944 00ca 642B     		cmp	r3, #100
 945 00cc 04DD     		ble	.L44
 143:./SDCard.h    ****                     {
 144:./SDCard.h    ****                         setError(712);
 946              		.loc 3 144 0
 947 00ce 4FF43270 		mov	r0, #712
 948 00d2 FFF7FEFF 		bl	setError
 145:./SDCard.h    ****                         return;
 949              		.loc 3 145 0
 950 00d6 0FE0     		b	.L37
 951              	.L44:
 137:./SDCard.h    ****                 {
 952              		.loc 3 137 0
 953 00d8 7B6B     		ldr	r3, [r7, #52]
 954 00da 002B     		cmp	r3, #0
 955 00dc EDD1     		bne	.L45
 956              	.LBE4:
  99:./SDCard.h    ****             {
 957              		.loc 3 99 0 discriminator 2
 958 00de FB6B     		ldr	r3, [r7, #60]
 959 00e0 0133     		adds	r3, r3, #1
 960 00e2 FB63     		str	r3, [r7, #60]
 961              	.L39:
  99:./SDCard.h    ****             {
 962              		.loc 3 99 0 is_stmt 0 discriminator 1
 963 00e4 FB6B     		ldr	r3, [r7, #60]
 964 00e6 B3F57A7F 		cmp	r3, #1000
ARM GAS  C:\Users\LOCALA~1\AppData\Local\Temp\ccsQji0c.s 			page 23


 965 00ea 99DB     		blt	.L46
 966              	.LBE3:
  97:./SDCard.h    ****         {
 967              		.loc 3 97 0 is_stmt 1 discriminator 2
 968 00ec 3B6C     		ldr	r3, [r7, #64]
 969 00ee 0A3B     		subs	r3, r3, #10
 970 00f0 3B64     		str	r3, [r7, #64]
 971              	.L38:
  97:./SDCard.h    ****         {
 972              		.loc 3 97 0 is_stmt 0 discriminator 1
 973 00f2 3B6C     		ldr	r3, [r7, #64]
 974 00f4 002B     		cmp	r3, #0
 975 00f6 90DC     		bgt	.L47
 976              	.L37:
 977              	.LBE2:
 146:./SDCard.h    ****                     }
 147:./SDCard.h    ****                 }
 148:./SDCard.h    ****             }
 149:./SDCard.h    ****         }
 150:./SDCard.h    ****     }
 978              		.loc 3 150 0 is_stmt 1
 979 00f8 4C37     		adds	r7, r7, #76
 980              		.cfi_def_cfa_offset 12
 981 00fa BD46     		mov	sp, r7
 982              		.cfi_def_cfa_register 13
 983              		@ sp needed
 984 00fc 90BD     		pop	{r4, r7, pc}
 985              	.L50:
 986 00fe 00BF     		.align	2
 987              	.L49:
 988 0100 00000000 		.word	v_timer_Lifetime_ms
 989 0104 54000000 		.word	.LC9
 990 0108 44000000 		.word	.LC7
 991 010c 60000000 		.word	.LC10
 992              		.cfi_endproc
 993              	.LFE74:
 994              		.size	WriteSpeedTest, .-WriteSpeedTest
 995              		.section	.rodata
 996 0067 00       		.align	2
 997              	.LC11:
 998 0068 25303864 		.ascii	"%08d.raw\000"
 998      2E726177 
 998      00
 999 0071 000000   		.align	2
 1000              	.LC12:
 1001 0074 25690925 		.ascii	"%i\011%i\011%i\011%0.0f\011%i\012\000"
 1001      69092569 
 1001      0925302E 
 1001      30660925 
 1001      690A00
 1002              		.section	.text.LogIntensity,"ax",%progbits
 1003              		.align	2
 1004              		.global	LogIntensity
 1005              		.thumb
 1006              		.thumb_func
 1007              		.type	LogIntensity, %function
 1008              	LogIntensity:
ARM GAS  C:\Users\LOCALA~1\AppData\Local\Temp\ccsQji0c.s 			page 24


 1009              	.LFB75:
 151:./SDCard.h    ****     
 152:./SDCard.h    ****     void LogIntensity(int MeasNo, char State1, char State2, char State3, double timer, int ADCValue
 153:./SDCard.h    ****     {
 1010              		.loc 3 153 0
 1011              		.cfi_startproc
 1012              		@ args = 12, pretend = 0, frame = 72
 1013              		@ frame_needed = 1, uses_anonymous_args = 0
 1014 0000 B0B5     		push	{r4, r5, r7, lr}
 1015              		.cfi_def_cfa_offset 16
 1016              		.cfi_offset 4, -16
 1017              		.cfi_offset 5, -12
 1018              		.cfi_offset 7, -8
 1019              		.cfi_offset 14, -4
 1020 0002 98B0     		sub	sp, sp, #96
 1021              		.cfi_def_cfa_offset 112
 1022 0004 06AF     		add	r7, sp, #24
 1023              		.cfi_def_cfa 7, 88
 1024 0006 7860     		str	r0, [r7, #4]
 1025 0008 0846     		mov	r0, r1
 1026 000a 1146     		mov	r1, r2
 1027 000c 1A46     		mov	r2, r3
 1028 000e 0346     		mov	r3, r0
 1029 0010 FB70     		strb	r3, [r7, #3]
 1030 0012 0B46     		mov	r3, r1
 1031 0014 BB70     		strb	r3, [r7, #2]
 1032 0016 1346     		mov	r3, r2
 1033 0018 7B70     		strb	r3, [r7, #1]
 154:./SDCard.h    ****         FS_FILE *File;
 155:./SDCard.h    ****         
 156:./SDCard.h    ****         char tmp_FileName[12];
 157:./SDCard.h    ****         char buffer_nextLine[40];
 158:./SDCard.h    ****         #ifdef ChangeFileName
 159:./SDCard.h    ****             sprintf((char*)tmp_FileName, "%s%04d.raw", FileName, MeasNo);
 160:./SDCard.h    ****         #else
 161:./SDCard.h    ****             sprintf((char*)tmp_FileName, "%08d.raw", MeasNo);
 1034              		.loc 3 161 0
 1035 001a 07F13003 		add	r3, r7, #48
 1036 001e 7A68     		ldr	r2, [r7, #4]
 1037 0020 3349     		ldr	r1, .L59
 1038 0022 1846     		mov	r0, r3
 1039 0024 FFF7FEFF 		bl	sprintf
 162:./SDCard.h    ****             
 163:./SDCard.h    ****         #endif
 164:./SDCard.h    ****         File = FS_FOpen(tmp_FileName, "a");
 1040              		.loc 3 164 0
 1041 0028 07F13003 		add	r3, r7, #48
 1042 002c 3149     		ldr	r1, .L59+4
 1043 002e 1846     		mov	r0, r3
 1044 0030 FFF7FEFF 		bl	FS_FOpen
 1045 0034 7864     		str	r0, [r7, #68]
 165:./SDCard.h    ****         CyDelay(10);
 1046              		.loc 3 165 0
 1047 0036 0A20     		movs	r0, #10
 1048 0038 FFF7FEFF 		bl	CyDelay
 166:./SDCard.h    ****         
 167:./SDCard.h    ****         int retryCount;
ARM GAS  C:\Users\LOCALA~1\AppData\Local\Temp\ccsQji0c.s 			page 25


 168:./SDCard.h    **** 
 169:./SDCard.h    ****         
 170:./SDCard.h    ****         retryCount = 0;
 1049              		.loc 3 170 0
 1050 003c 0023     		movs	r3, #0
 1051 003e 3B64     		str	r3, [r7, #64]
 171:./SDCard.h    ****         
 172:./SDCard.h    ****         while (File == 0)
 1052              		.loc 3 172 0
 1053 0040 14E0     		b	.L52
 1054              	.L54:
 173:./SDCard.h    ****         {
 174:./SDCard.h    ****             retryCount++;
 1055              		.loc 3 174 0
 1056 0042 3B6C     		ldr	r3, [r7, #64]
 1057 0044 0133     		adds	r3, r3, #1
 1058 0046 3B64     		str	r3, [r7, #64]
 175:./SDCard.h    ****             File = FS_FOpen(tmp_FileName, "a");
 1059              		.loc 3 175 0
 1060 0048 07F13003 		add	r3, r7, #48
 1061 004c 2949     		ldr	r1, .L59+4
 1062 004e 1846     		mov	r0, r3
 1063 0050 FFF7FEFF 		bl	FS_FOpen
 1064 0054 7864     		str	r0, [r7, #68]
 176:./SDCard.h    ****             CyDelay(10);
 1065              		.loc 3 176 0
 1066 0056 0A20     		movs	r0, #10
 1067 0058 FFF7FEFF 		bl	CyDelay
 177:./SDCard.h    ****             if (retryCount > MaxRetriesForFileOpening)
 1068              		.loc 3 177 0
 1069 005c 3B6C     		ldr	r3, [r7, #64]
 1070 005e 642B     		cmp	r3, #100
 1071 0060 04DD     		ble	.L52
 178:./SDCard.h    ****             {
 179:./SDCard.h    ****                 setError(720);
 1072              		.loc 3 179 0
 1073 0062 4FF43470 		mov	r0, #720
 1074 0066 FFF7FEFF 		bl	setError
 180:./SDCard.h    ****                 return;                 // Stop logging, file is not open
 1075              		.loc 3 180 0
 1076 006a 3DE0     		b	.L51
 1077              	.L52:
 172:./SDCard.h    ****         {
 1078              		.loc 3 172 0
 1079 006c 7B6C     		ldr	r3, [r7, #68]
 1080 006e 002B     		cmp	r3, #0
 1081 0070 E7D0     		beq	.L54
 181:./SDCard.h    ****             }
 182:./SDCard.h    ****         }
 183:./SDCard.h    ****         
 184:./SDCard.h    ****         sprintf((char*)buffer_nextLine, "%i\t%i\t%i\t%0.0f\t%i\n", State1, State2, State3, timer, A
 1082              		.loc 3 184 0
 1083 0072 F978     		ldrb	r1, [r7, #3]	@ zero_extendqisi2
 1084 0074 BD78     		ldrb	r5, [r7, #2]	@ zero_extendqisi2
 1085 0076 7A78     		ldrb	r2, [r7, #1]	@ zero_extendqisi2
 1086 0078 07F10800 		add	r0, r7, #8
 1087 007c 3B6E     		ldr	r3, [r7, #96]
ARM GAS  C:\Users\LOCALA~1\AppData\Local\Temp\ccsQji0c.s 			page 26


 1088 007e 0493     		str	r3, [sp, #16]
 1089 0080 D7E91634 		ldrd	r3, [r7, #88]
 1090 0084 CDE90234 		strd	r3, [sp, #8]
 1091 0088 0092     		str	r2, [sp]
 1092 008a 2B46     		mov	r3, r5
 1093 008c 0A46     		mov	r2, r1
 1094 008e 1A49     		ldr	r1, .L59+8
 1095 0090 FFF7FEFF 		bl	sprintf
 185:./SDCard.h    ****         
 186:./SDCard.h    ****         if (0 != FS_Write(File, buffer_nextLine, strlen(buffer_nextLine)))
 1096              		.loc 3 186 0
 1097 0094 07F10803 		add	r3, r7, #8
 1098 0098 1846     		mov	r0, r3
 1099 009a FFF7FEFF 		bl	strlen
 1100 009e 0246     		mov	r2, r0
 1101 00a0 07F10803 		add	r3, r7, #8
 1102 00a4 1946     		mov	r1, r3
 1103 00a6 786C     		ldr	r0, [r7, #68]
 1104 00a8 FFF7FEFF 		bl	FS_Write
 1105 00ac 0346     		mov	r3, r0
 1106 00ae 002B     		cmp	r3, #0
 1107 00b0 03D1     		bne	.L55
 187:./SDCard.h    ****         {
 188:./SDCard.h    ****             // Write successfull, do nothing    
 189:./SDCard.h    ****         }
 190:./SDCard.h    ****         else
 191:./SDCard.h    ****         {
 192:./SDCard.h    ****             // Error, Write failed. 
 193:./SDCard.h    ****             setError(721);
 1108              		.loc 3 193 0
 1109 00b2 40F2D120 		movw	r0, #721
 1110 00b6 FFF7FEFF 		bl	setError
 1111              	.L55:
 194:./SDCard.h    ****         }
 195:./SDCard.h    ****         
 196:./SDCard.h    ****         int retValFS_FClose = 1;
 1112              		.loc 3 196 0
 1113 00ba 0123     		movs	r3, #1
 1114 00bc FB63     		str	r3, [r7, #60]
 197:./SDCard.h    ****         retryCount = 0;
 1115              		.loc 3 197 0
 1116 00be 0023     		movs	r3, #0
 1117 00c0 3B64     		str	r3, [r7, #64]
 198:./SDCard.h    ****         while (retValFS_FClose)
 1118              		.loc 3 198 0
 1119 00c2 0EE0     		b	.L56
 1120              	.L57:
 199:./SDCard.h    ****         {
 200:./SDCard.h    ****             retryCount++;
 1121              		.loc 3 200 0
 1122 00c4 3B6C     		ldr	r3, [r7, #64]
 1123 00c6 0133     		adds	r3, r3, #1
 1124 00c8 3B64     		str	r3, [r7, #64]
 201:./SDCard.h    ****             retValFS_FClose = FS_FClose(File);
 1125              		.loc 3 201 0
 1126 00ca 786C     		ldr	r0, [r7, #68]
 1127 00cc FFF7FEFF 		bl	FS_FClose
ARM GAS  C:\Users\LOCALA~1\AppData\Local\Temp\ccsQji0c.s 			page 27


 1128 00d0 F863     		str	r0, [r7, #60]
 202:./SDCard.h    ****             
 203:./SDCard.h    ****             if (retryCount > 100)
 1129              		.loc 3 203 0
 1130 00d2 3B6C     		ldr	r3, [r7, #64]
 1131 00d4 642B     		cmp	r3, #100
 1132 00d6 04DD     		ble	.L56
 204:./SDCard.h    ****             {
 205:./SDCard.h    ****                 setError(722);
 1133              		.loc 3 205 0
 1134 00d8 40F2D220 		movw	r0, #722
 1135 00dc FFF7FEFF 		bl	setError
 206:./SDCard.h    ****                 return;
 1136              		.loc 3 206 0
 1137 00e0 02E0     		b	.L51
 1138              	.L56:
 198:./SDCard.h    ****         {
 1139              		.loc 3 198 0
 1140 00e2 FB6B     		ldr	r3, [r7, #60]
 1141 00e4 002B     		cmp	r3, #0
 1142 00e6 EDD1     		bne	.L57
 1143              	.L51:
 207:./SDCard.h    ****             }
 208:./SDCard.h    ****         }
 209:./SDCard.h    ****     }
 1144              		.loc 3 209 0
 1145 00e8 4837     		adds	r7, r7, #72
 1146              		.cfi_def_cfa_offset 16
 1147 00ea BD46     		mov	sp, r7
 1148              		.cfi_def_cfa_register 13
 1149              		@ sp needed
 1150 00ec B0BD     		pop	{r4, r5, r7, pc}
 1151              	.L60:
 1152 00ee 00BF     		.align	2
 1153              	.L59:
 1154 00f0 68000000 		.word	.LC11
 1155 00f4 44000000 		.word	.LC7
 1156 00f8 74000000 		.word	.LC12
 1157              		.cfi_endproc
 1158              	.LFE75:
 1159              		.size	LogIntensity, .-LogIntensity
 1160              		.section	.text.Init_SDCard,"ax",%progbits
 1161              		.align	2
 1162              		.global	Init_SDCard
 1163              		.thumb
 1164              		.thumb_func
 1165              		.type	Init_SDCard, %function
 1166              	Init_SDCard:
 1167              	.LFB76:
 210:./SDCard.h    ****     
 211:./SDCard.h    ****     void Init_SDCard()
 212:./SDCard.h    ****     {
 1168              		.loc 3 212 0
 1169              		.cfi_startproc
 1170              		@ args = 0, pretend = 0, frame = 0
 1171              		@ frame_needed = 1, uses_anonymous_args = 0
 1172 0000 80B5     		push	{r7, lr}
ARM GAS  C:\Users\LOCALA~1\AppData\Local\Temp\ccsQji0c.s 			page 28


 1173              		.cfi_def_cfa_offset 8
 1174              		.cfi_offset 7, -8
 1175              		.cfi_offset 14, -4
 1176 0002 00AF     		add	r7, sp, #0
 1177              		.cfi_def_cfa_register 7
 213:./SDCard.h    ****         FS_Init();   
 1178              		.loc 3 213 0
 1179 0004 FFF7FEFF 		bl	FS_Init
 214:./SDCard.h    ****     }
 1180              		.loc 3 214 0
 1181 0008 00BF     		nop
 1182 000a 80BD     		pop	{r7, pc}
 1183              		.cfi_endproc
 1184              	.LFE76:
 1185              		.size	Init_SDCard, .-Init_SDCard
 1186              		.section	.text.GetADCValue,"ax",%progbits
 1187              		.align	2
 1188              		.global	GetADCValue
 1189              		.thumb
 1190              		.thumb_func
 1191              		.type	GetADCValue, %function
 1192              	GetADCValue:
 1193              	.LFB77:
 1194              		.file 4 "./ADC.h"
   1:./ADC.h       **** /* ========================================
   2:./ADC.h       ****  *
   3:./ADC.h       ****  * Copyright YOUR COMPANY, THE YEAR
   4:./ADC.h       ****  * All Rights Reserved
   5:./ADC.h       ****  * UNPUBLISHED, LICENSED SOFTWARE.
   6:./ADC.h       ****  *
   7:./ADC.h       ****  * CONFIDENTIAL AND PROPRIETARY INFORMATION
   8:./ADC.h       ****  * WHICH IS THE PROPERTY OF your company.
   9:./ADC.h       ****  *
  10:./ADC.h       ****  * ========================================
  11:./ADC.h       **** */
  12:./ADC.h       **** 
  13:./ADC.h       **** #ifndef ADC_H
  14:./ADC.h       ****     #define ADC_H
  15:./ADC.h       **** 
  16:./ADC.h       ****     #include <project.h>
  17:./ADC.h       ****     
  18:./ADC.h       ****     short GetADCValue()
  19:./ADC.h       ****     {
 1195              		.loc 4 19 0
 1196              		.cfi_startproc
 1197              		@ args = 0, pretend = 0, frame = 0
 1198              		@ frame_needed = 1, uses_anonymous_args = 0
 1199 0000 80B5     		push	{r7, lr}
 1200              		.cfi_def_cfa_offset 8
 1201              		.cfi_offset 7, -8
 1202              		.cfi_offset 14, -4
 1203 0002 00AF     		add	r7, sp, #0
 1204              		.cfi_def_cfa_register 7
  20:./ADC.h       ****         Analog_Digital_Converter_IsEndConversion(Analog_Digital_Converter_WAIT_FOR_RESULT);
 1205              		.loc 4 20 0
 1206 0004 0020     		movs	r0, #0
 1207 0006 FFF7FEFF 		bl	Analog_Digital_Converter_IsEndConversion
ARM GAS  C:\Users\LOCALA~1\AppData\Local\Temp\ccsQji0c.s 			page 29


  21:./ADC.h       ****         return Analog_Digital_Converter_GetResult16()/2;
 1208              		.loc 4 21 0
 1209 000a FFF7FEFF 		bl	Analog_Digital_Converter_GetResult16
 1210 000e 0346     		mov	r3, r0
 1211 0010 DA0F     		lsrs	r2, r3, #31
 1212 0012 1344     		add	r3, r3, r2
 1213 0014 5B10     		asrs	r3, r3, #1
 1214 0016 1BB2     		sxth	r3, r3
  22:./ADC.h       ****     }
 1215              		.loc 4 22 0
 1216 0018 1846     		mov	r0, r3
 1217 001a 80BD     		pop	{r7, pc}
 1218              		.cfi_endproc
 1219              	.LFE77:
 1220              		.size	GetADCValue, .-GetADCValue
 1221              		.section	.text.Init_ADC,"ax",%progbits
 1222              		.align	2
 1223              		.global	Init_ADC
 1224              		.thumb
 1225              		.thumb_func
 1226              		.type	Init_ADC, %function
 1227              	Init_ADC:
 1228              	.LFB78:
  23:./ADC.h       ****     
  24:./ADC.h       ****     void Init_ADC()
  25:./ADC.h       ****     {
 1229              		.loc 4 25 0
 1230              		.cfi_startproc
 1231              		@ args = 0, pretend = 0, frame = 0
 1232              		@ frame_needed = 1, uses_anonymous_args = 0
 1233 0000 80B5     		push	{r7, lr}
 1234              		.cfi_def_cfa_offset 8
 1235              		.cfi_offset 7, -8
 1236              		.cfi_offset 14, -4
 1237 0002 00AF     		add	r7, sp, #0
 1238              		.cfi_def_cfa_register 7
  26:./ADC.h       ****         TIA_1_Start();
 1239              		.loc 4 26 0
 1240 0004 FFF7FEFF 		bl	TIA_1_Start
  27:./ADC.h       ****         PGA_Photo_Start();
 1241              		.loc 4 27 0
 1242 0008 FFF7FEFF 		bl	PGA_Photo_Start
  28:./ADC.h       ****         
  29:./ADC.h       ****         Analog_Digital_Converter_Start();
 1243              		.loc 4 29 0
 1244 000c FFF7FEFF 		bl	Analog_Digital_Converter_Start
  30:./ADC.h       ****         Analog_Digital_Converter_StartConvert();
 1245              		.loc 4 30 0
 1246 0010 FFF7FEFF 		bl	Analog_Digital_Converter_StartConvert
  31:./ADC.h       ****     }
 1247              		.loc 4 31 0
 1248 0014 00BF     		nop
 1249 0016 80BD     		pop	{r7, pc}
 1250              		.cfi_endproc
 1251              	.LFE78:
 1252              		.size	Init_ADC, .-Init_ADC
 1253              		.global	MeasurementLaser
ARM GAS  C:\Users\LOCALA~1\AppData\Local\Temp\ccsQji0c.s 			page 30


 1254              		.section	.rodata
 1255 0087 00       		.align	2
 1256              		.type	MeasurementLaser, %object
 1257              		.size	MeasurementLaser, 12
 1258              	MeasurementLaser:
 1259 0088 61       		.byte	97
 1260 0089 62       		.byte	98
 1261 008a 63       		.byte	99
 1262 008b 64       		.byte	100
 1263 008c 65       		.byte	101
 1264 008d 66       		.byte	102
 1265 008e 67       		.byte	103
 1266 008f 68       		.byte	104
 1267 0090 69       		.byte	105
 1268 0091 6A       		.byte	106
 1269 0092 6B       		.byte	107
 1270 0093 6C       		.byte	108
 1271              		.section	.text.Init_MeasurementLasers,"ax",%progbits
 1272              		.align	2
 1273              		.global	Init_MeasurementLasers
 1274              		.thumb
 1275              		.thumb_func
 1276              		.type	Init_MeasurementLasers, %function
 1277              	Init_MeasurementLasers:
 1278              	.LFB79:
 1279              		.file 5 "./LaserSelect.h"
   1:./LaserSelect.h **** /* ========================================
   2:./LaserSelect.h ****  *
   3:./LaserSelect.h ****  * Copyright YOUR COMPANY, THE YEAR
   4:./LaserSelect.h ****  * All Rights Reserved
   5:./LaserSelect.h ****  * UNPUBLISHED, LICENSED SOFTWARE.
   6:./LaserSelect.h ****  *
   7:./LaserSelect.h ****  * CONFIDENTIAL AND PROPRIETARY INFORMATION
   8:./LaserSelect.h ****  * WHICH IS THE PROPERTY OF your company.
   9:./LaserSelect.h ****  *
  10:./LaserSelect.h ****  * ========================================
  11:./LaserSelect.h **** */
  12:./LaserSelect.h **** 
  13:./LaserSelect.h **** #ifndef LASERSELECT_H
  14:./LaserSelect.h ****     #define LASERSELECT_H
  15:./LaserSelect.h **** 
  16:./LaserSelect.h ****     #include <project.h>
  17:./LaserSelect.h ****     #include <GlobalVariables.h>
  18:./LaserSelect.h ****     #include <Nextion.h>
  19:./LaserSelect.h ****     
  20:./LaserSelect.h ****     
  21:./LaserSelect.h ****     const char MeasurementLaser[3][4] = {
  22:./LaserSelect.h ****         {BUTTON_L1_1, BUTTON_L1_2, BUTTON_L1_3, BUTTON_L1_4},
  23:./LaserSelect.h ****         {BUTTON_L2_1, BUTTON_L2_2, BUTTON_L2_3, BUTTON_L2_4},
  24:./LaserSelect.h ****         {BUTTON_L3_1, BUTTON_L3_2, BUTTON_L3_3, BUTTON_L3_4}
  25:./LaserSelect.h ****     };
  26:./LaserSelect.h ****     
  27:./LaserSelect.h ****     void Init_MeasurementLasers()
  28:./LaserSelect.h ****     {
 1280              		.loc 5 28 0
 1281              		.cfi_startproc
 1282              		@ args = 0, pretend = 0, frame = 8
ARM GAS  C:\Users\LOCALA~1\AppData\Local\Temp\ccsQji0c.s 			page 31


 1283              		@ frame_needed = 1, uses_anonymous_args = 0
 1284 0000 80B5     		push	{r7, lr}
 1285              		.cfi_def_cfa_offset 8
 1286              		.cfi_offset 7, -8
 1287              		.cfi_offset 14, -4
 1288 0002 82B0     		sub	sp, sp, #8
 1289              		.cfi_def_cfa_offset 16
 1290 0004 00AF     		add	r7, sp, #0
 1291              		.cfi_def_cfa_register 7
 1292              	.LBB5:
  29:./LaserSelect.h ****         for (int i = 0; i < 3; ++i)
 1293              		.loc 5 29 0
 1294 0006 0023     		movs	r3, #0
 1295 0008 7B60     		str	r3, [r7, #4]
 1296 000a 1FE0     		b	.L66
 1297              	.L69:
 1298              	.LBB6:
  30:./LaserSelect.h ****         {
  31:./LaserSelect.h ****             for (int j = 0; j < 4; ++j)
 1299              		.loc 5 31 0
 1300 000c 0023     		movs	r3, #0
 1301 000e 3B60     		str	r3, [r7]
 1302 0010 16E0     		b	.L67
 1303              	.L68:
  32:./LaserSelect.h ****             {
  33:./LaserSelect.h ****                 g_measurementLasers[i][j] = 0;
 1304              		.loc 5 33 0 discriminator 3
 1305 0012 124A     		ldr	r2, .L70
 1306 0014 7B68     		ldr	r3, [r7, #4]
 1307 0016 9B00     		lsls	r3, r3, #2
 1308 0018 1A44     		add	r2, r2, r3
 1309 001a 3B68     		ldr	r3, [r7]
 1310 001c 1344     		add	r3, r3, r2
 1311 001e 0022     		movs	r2, #0
 1312 0020 1A70     		strb	r2, [r3]
  34:./LaserSelect.h ****                 Nextion_SendBackgroundColorToButton((char*)MeasurementLaser[i][j], NextionColor_Red
 1313              		.loc 5 34 0 discriminator 3
 1314 0022 0F4A     		ldr	r2, .L70+4
 1315 0024 7B68     		ldr	r3, [r7, #4]
 1316 0026 9B00     		lsls	r3, r3, #2
 1317 0028 1A44     		add	r2, r2, r3
 1318 002a 3B68     		ldr	r3, [r7]
 1319 002c 1344     		add	r3, r3, r2
 1320 002e 1B78     		ldrb	r3, [r3]	@ zero_extendqisi2
 1321 0030 4FF47841 		mov	r1, #63488
 1322 0034 1846     		mov	r0, r3
 1323 0036 FFF7FEFF 		bl	Nextion_SendBackgroundColorToButton
  31:./LaserSelect.h ****             {
 1324              		.loc 5 31 0 discriminator 3
 1325 003a 3B68     		ldr	r3, [r7]
 1326 003c 0133     		adds	r3, r3, #1
 1327 003e 3B60     		str	r3, [r7]
 1328              	.L67:
  31:./LaserSelect.h ****             {
 1329              		.loc 5 31 0 is_stmt 0 discriminator 1
 1330 0040 3B68     		ldr	r3, [r7]
 1331 0042 032B     		cmp	r3, #3
ARM GAS  C:\Users\LOCALA~1\AppData\Local\Temp\ccsQji0c.s 			page 32


 1332 0044 E5DD     		ble	.L68
 1333              	.LBE6:
  29:./LaserSelect.h ****         {
 1334              		.loc 5 29 0 is_stmt 1 discriminator 2
 1335 0046 7B68     		ldr	r3, [r7, #4]
 1336 0048 0133     		adds	r3, r3, #1
 1337 004a 7B60     		str	r3, [r7, #4]
 1338              	.L66:
  29:./LaserSelect.h ****         {
 1339              		.loc 5 29 0 is_stmt 0 discriminator 1
 1340 004c 7B68     		ldr	r3, [r7, #4]
 1341 004e 022B     		cmp	r3, #2
 1342 0050 DCDD     		ble	.L69
 1343              	.LBE5:
  35:./LaserSelect.h ****             }
  36:./LaserSelect.h ****         }
  37:./LaserSelect.h ****     }
 1344              		.loc 5 37 0 is_stmt 1
 1345 0052 00BF     		nop
 1346 0054 0837     		adds	r7, r7, #8
 1347              		.cfi_def_cfa_offset 8
 1348 0056 BD46     		mov	sp, r7
 1349              		.cfi_def_cfa_register 13
 1350              		@ sp needed
 1351 0058 80BD     		pop	{r7, pc}
 1352              	.L71:
 1353 005a 00BF     		.align	2
 1354              	.L70:
 1355 005c 00000000 		.word	g_measurementLasers
 1356 0060 00000000 		.word	MeasurementLaser
 1357              		.cfi_endproc
 1358              	.LFE79:
 1359              		.size	Init_MeasurementLasers, .-Init_MeasurementLasers
 1360              		.section	.text.ToggleLaser,"ax",%progbits
 1361              		.align	2
 1362              		.global	ToggleLaser
 1363              		.thumb
 1364              		.thumb_func
 1365              		.type	ToggleLaser, %function
 1366              	ToggleLaser:
 1367              	.LFB80:
  38:./LaserSelect.h ****     
  39:./LaserSelect.h ****     int ToggleLaser(char interrupt)
  40:./LaserSelect.h ****     {
 1368              		.loc 5 40 0
 1369              		.cfi_startproc
 1370              		@ args = 0, pretend = 0, frame = 24
 1371              		@ frame_needed = 1, uses_anonymous_args = 0
 1372 0000 80B5     		push	{r7, lr}
 1373              		.cfi_def_cfa_offset 8
 1374              		.cfi_offset 7, -8
 1375              		.cfi_offset 14, -4
 1376 0002 86B0     		sub	sp, sp, #24
 1377              		.cfi_def_cfa_offset 32
 1378 0004 00AF     		add	r7, sp, #0
 1379              		.cfi_def_cfa_register 7
 1380 0006 0346     		mov	r3, r0
ARM GAS  C:\Users\LOCALA~1\AppData\Local\Temp\ccsQji0c.s 			page 33


 1381 0008 FB71     		strb	r3, [r7, #7]
  41:./LaserSelect.h ****         int returnValue = 0;
 1382              		.loc 5 41 0
 1383 000a 0023     		movs	r3, #0
 1384 000c FB60     		str	r3, [r7, #12]
 1385              	.LBB7:
  42:./LaserSelect.h ****         
  43:./LaserSelect.h ****         for (int i = 0; i < 3; ++i)
 1386              		.loc 5 43 0
 1387 000e 0023     		movs	r3, #0
 1388 0010 7B61     		str	r3, [r7, #20]
 1389 0012 4CE0     		b	.L73
 1390              	.L78:
 1391              	.LBB8:
  44:./LaserSelect.h ****         {
  45:./LaserSelect.h ****             for (int j = 0; j < 4; ++j)
 1392              		.loc 5 45 0
 1393 0014 0023     		movs	r3, #0
 1394 0016 3B61     		str	r3, [r7, #16]
 1395 0018 43E0     		b	.L74
 1396              	.L77:
  46:./LaserSelect.h ****             {           
  47:./LaserSelect.h ****                 if (MeasurementLaser[i][j] == interrupt)
 1397              		.loc 5 47 0
 1398 001a 294A     		ldr	r2, .L80
 1399 001c 7B69     		ldr	r3, [r7, #20]
 1400 001e 9B00     		lsls	r3, r3, #2
 1401 0020 1A44     		add	r2, r2, r3
 1402 0022 3B69     		ldr	r3, [r7, #16]
 1403 0024 1344     		add	r3, r3, r2
 1404 0026 1B78     		ldrb	r3, [r3]	@ zero_extendqisi2
 1405 0028 FA79     		ldrb	r2, [r7, #7]	@ zero_extendqisi2
 1406 002a 9A42     		cmp	r2, r3
 1407 002c 36D1     		bne	.L75
  48:./LaserSelect.h ****                 {
  49:./LaserSelect.h ****                     g_measurementLasers[i][j] = !g_measurementLasers[i][j];
 1408              		.loc 5 49 0
 1409 002e 254A     		ldr	r2, .L80+4
 1410 0030 7B69     		ldr	r3, [r7, #20]
 1411 0032 9B00     		lsls	r3, r3, #2
 1412 0034 1A44     		add	r2, r2, r3
 1413 0036 3B69     		ldr	r3, [r7, #16]
 1414 0038 1344     		add	r3, r3, r2
 1415 003a 1B78     		ldrb	r3, [r3]	@ zero_extendqisi2
 1416 003c 002B     		cmp	r3, #0
 1417 003e 0CBF     		ite	eq
 1418 0040 0123     		moveq	r3, #1
 1419 0042 0023     		movne	r3, #0
 1420 0044 DBB2     		uxtb	r3, r3
 1421 0046 1946     		mov	r1, r3
 1422 0048 1E4A     		ldr	r2, .L80+4
 1423 004a 7B69     		ldr	r3, [r7, #20]
 1424 004c 9B00     		lsls	r3, r3, #2
 1425 004e 1A44     		add	r2, r2, r3
 1426 0050 3B69     		ldr	r3, [r7, #16]
 1427 0052 1344     		add	r3, r3, r2
 1428 0054 0A46     		mov	r2, r1
ARM GAS  C:\Users\LOCALA~1\AppData\Local\Temp\ccsQji0c.s 			page 34


 1429 0056 1A70     		strb	r2, [r3]
  50:./LaserSelect.h ****                     if (g_measurementLasers[i][j])
 1430              		.loc 5 50 0
 1431 0058 1A4A     		ldr	r2, .L80+4
 1432 005a 7B69     		ldr	r3, [r7, #20]
 1433 005c 9B00     		lsls	r3, r3, #2
 1434 005e 1A44     		add	r2, r2, r3
 1435 0060 3B69     		ldr	r3, [r7, #16]
 1436 0062 1344     		add	r3, r3, r2
 1437 0064 1B78     		ldrb	r3, [r3]	@ zero_extendqisi2
 1438 0066 002B     		cmp	r3, #0
 1439 0068 0CD0     		beq	.L76
  51:./LaserSelect.h ****                     {
  52:./LaserSelect.h ****                         Nextion_SendBackgroundColorToButton((char*)MeasurementLaser[i][j], NextionC
 1440              		.loc 5 52 0
 1441 006a 154A     		ldr	r2, .L80
 1442 006c 7B69     		ldr	r3, [r7, #20]
 1443 006e 9B00     		lsls	r3, r3, #2
 1444 0070 1A44     		add	r2, r2, r3
 1445 0072 3B69     		ldr	r3, [r7, #16]
 1446 0074 1344     		add	r3, r3, r2
 1447 0076 1B78     		ldrb	r3, [r3]	@ zero_extendqisi2
 1448 0078 48F2E071 		movw	r1, #34784
 1449 007c 1846     		mov	r0, r3
 1450 007e FFF7FEFF 		bl	Nextion_SendBackgroundColorToButton
 1451 0082 0BE0     		b	.L75
 1452              	.L76:
  53:./LaserSelect.h ****                     }
  54:./LaserSelect.h ****                     else
  55:./LaserSelect.h ****                     {
  56:./LaserSelect.h ****                         Nextion_SendBackgroundColorToButton((char*)MeasurementLaser[i][j], NextionC
 1453              		.loc 5 56 0
 1454 0084 0E4A     		ldr	r2, .L80
 1455 0086 7B69     		ldr	r3, [r7, #20]
 1456 0088 9B00     		lsls	r3, r3, #2
 1457 008a 1A44     		add	r2, r2, r3
 1458 008c 3B69     		ldr	r3, [r7, #16]
 1459 008e 1344     		add	r3, r3, r2
 1460 0090 1B78     		ldrb	r3, [r3]	@ zero_extendqisi2
 1461 0092 4FF47841 		mov	r1, #63488
 1462 0096 1846     		mov	r0, r3
 1463 0098 FFF7FEFF 		bl	Nextion_SendBackgroundColorToButton
 1464              	.L75:
  45:./LaserSelect.h ****             {           
 1465              		.loc 5 45 0 discriminator 2
 1466 009c 3B69     		ldr	r3, [r7, #16]
 1467 009e 0133     		adds	r3, r3, #1
 1468 00a0 3B61     		str	r3, [r7, #16]
 1469              	.L74:
  45:./LaserSelect.h ****             {           
 1470              		.loc 5 45 0 is_stmt 0 discriminator 1
 1471 00a2 3B69     		ldr	r3, [r7, #16]
 1472 00a4 032B     		cmp	r3, #3
 1473 00a6 B8DD     		ble	.L77
 1474              	.LBE8:
  43:./LaserSelect.h ****         {
 1475              		.loc 5 43 0 is_stmt 1 discriminator 2
ARM GAS  C:\Users\LOCALA~1\AppData\Local\Temp\ccsQji0c.s 			page 35


 1476 00a8 7B69     		ldr	r3, [r7, #20]
 1477 00aa 0133     		adds	r3, r3, #1
 1478 00ac 7B61     		str	r3, [r7, #20]
 1479              	.L73:
  43:./LaserSelect.h ****         {
 1480              		.loc 5 43 0 is_stmt 0 discriminator 1
 1481 00ae 7B69     		ldr	r3, [r7, #20]
 1482 00b0 022B     		cmp	r3, #2
 1483 00b2 AFDD     		ble	.L78
 1484              	.LBE7:
  57:./LaserSelect.h ****                     }
  58:./LaserSelect.h ****                 
  59:./LaserSelect.h ****                 }
  60:./LaserSelect.h ****             }
  61:./LaserSelect.h ****         }
  62:./LaserSelect.h ****         
  63:./LaserSelect.h ****         return returnValue;
 1485              		.loc 5 63 0 is_stmt 1
 1486 00b4 FB68     		ldr	r3, [r7, #12]
  64:./LaserSelect.h ****     }
 1487              		.loc 5 64 0
 1488 00b6 1846     		mov	r0, r3
 1489 00b8 1837     		adds	r7, r7, #24
 1490              		.cfi_def_cfa_offset 8
 1491 00ba BD46     		mov	sp, r7
 1492              		.cfi_def_cfa_register 13
 1493              		@ sp needed
 1494 00bc 80BD     		pop	{r7, pc}
 1495              	.L81:
 1496 00be 00BF     		.align	2
 1497              	.L80:
 1498 00c0 00000000 		.word	MeasurementLaser
 1499 00c4 00000000 		.word	g_measurementLasers
 1500              		.cfi_endproc
 1501              	.LFE80:
 1502              		.size	ToggleLaser, .-ToggleLaser
 1503              		.section	.rodata
 1504              		.align	2
 1505              	.LC13:
 1506 0094 70616765 		.ascii	"page LaserSelect\000"
 1506      204C6173 
 1506      65725365 
 1506      6C656374 
 1506      00
 1507              		.section	.text.Laserselect,"ax",%progbits
 1508              		.align	2
 1509              		.global	Laserselect
 1510              		.thumb
 1511              		.thumb_func
 1512              		.type	Laserselect, %function
 1513              	Laserselect:
 1514              	.LFB81:
  65:./LaserSelect.h ****     
  66:./LaserSelect.h ****     int Laserselect()
  67:./LaserSelect.h ****     {   
 1515              		.loc 5 67 0
 1516              		.cfi_startproc
ARM GAS  C:\Users\LOCALA~1\AppData\Local\Temp\ccsQji0c.s 			page 36


 1517              		@ args = 0, pretend = 0, frame = 0
 1518              		@ frame_needed = 1, uses_anonymous_args = 0
 1519 0000 80B5     		push	{r7, lr}
 1520              		.cfi_def_cfa_offset 8
 1521              		.cfi_offset 7, -8
 1522              		.cfi_offset 14, -4
 1523 0002 00AF     		add	r7, sp, #0
 1524              		.cfi_def_cfa_register 7
  68:./LaserSelect.h ****         Init_MeasurementLasers();
 1525              		.loc 5 68 0
 1526 0004 FFF7FEFF 		bl	Init_MeasurementLasers
  69:./LaserSelect.h ****         
  70:./LaserSelect.h ****         g_NextionInterrupt = '0';
 1527              		.loc 5 70 0
 1528 0008 0F4B     		ldr	r3, .L92
 1529 000a 3022     		movs	r2, #48
 1530 000c 1A70     		strb	r2, [r3]
  71:./LaserSelect.h ****         Nextion_SendString("page LaserSelect");
 1531              		.loc 5 71 0
 1532 000e 0F48     		ldr	r0, .L92+4
 1533 0010 FFF7FEFF 		bl	Nextion_SendString
 1534              	.L89:
  72:./LaserSelect.h ****         
  73:./LaserSelect.h ****         while (1)
  74:./LaserSelect.h ****         {
  75:./LaserSelect.h ****             switch (g_NextionInterrupt)
 1535              		.loc 5 75 0
 1536 0014 0C4B     		ldr	r3, .L92
 1537 0016 1B78     		ldrb	r3, [r3]	@ zero_extendqisi2
 1538 0018 482B     		cmp	r3, #72
 1539 001a 06D0     		beq	.L84
 1540 001c 592B     		cmp	r3, #89
 1541 001e 02D0     		beq	.L85
 1542 0020 302B     		cmp	r3, #48
 1543 0022 0AD0     		beq	.L91
 1544 0024 03E0     		b	.L90
 1545              	.L85:
  76:./LaserSelect.h ****             {
  77:./LaserSelect.h ****                 case '0':
  78:./LaserSelect.h ****                     // Do nothing
  79:./LaserSelect.h ****                     break;
  80:./LaserSelect.h ****                 case BUTTON_CONFIRM:
  81:./LaserSelect.h ****                     return 0;
 1546              		.loc 5 81 0
 1547 0026 0023     		movs	r3, #0
 1548 0028 0CE0     		b	.L88
 1549              	.L84:
  82:./LaserSelect.h ****                     break;
  83:./LaserSelect.h ****                 case 'H':
  84:./LaserSelect.h ****                     return 1;
 1550              		.loc 5 84 0
 1551 002a 0123     		movs	r3, #1
 1552 002c 0AE0     		b	.L88
 1553              	.L90:
  85:./LaserSelect.h ****                     break;
  86:./LaserSelect.h ****                 default:
  87:./LaserSelect.h ****                     ToggleLaser(g_NextionInterrupt);
ARM GAS  C:\Users\LOCALA~1\AppData\Local\Temp\ccsQji0c.s 			page 37


 1554              		.loc 5 87 0
 1555 002e 064B     		ldr	r3, .L92
 1556 0030 1B78     		ldrb	r3, [r3]	@ zero_extendqisi2
 1557 0032 1846     		mov	r0, r3
 1558 0034 FFF7FEFF 		bl	ToggleLaser
  88:./LaserSelect.h ****                     break;
 1559              		.loc 5 88 0
 1560 0038 00E0     		b	.L87
 1561              	.L91:
  79:./LaserSelect.h ****                 case BUTTON_CONFIRM:
 1562              		.loc 5 79 0
 1563 003a 00BF     		nop
 1564              	.L87:
  89:./LaserSelect.h ****             }
  90:./LaserSelect.h ****             g_NextionInterrupt = '0';
 1565              		.loc 5 90 0
 1566 003c 024B     		ldr	r3, .L92
 1567 003e 3022     		movs	r2, #48
 1568 0040 1A70     		strb	r2, [r3]
  91:./LaserSelect.h ****         }
 1569              		.loc 5 91 0
 1570 0042 E7E7     		b	.L89
 1571              	.L88:
  92:./LaserSelect.h ****     }
 1572              		.loc 5 92 0
 1573 0044 1846     		mov	r0, r3
 1574 0046 80BD     		pop	{r7, pc}
 1575              	.L93:
 1576              		.align	2
 1577              	.L92:
 1578 0048 00000000 		.word	g_NextionInterrupt
 1579 004c 94000000 		.word	.LC13
 1580              		.cfi_endproc
 1581              	.LFE81:
 1582              		.size	Laserselect, .-Laserselect
 1583              		.bss
 1584              		.align	2
 1585              	counter:
 1586 0060 00000000 		.space	4
 1587              		.section	.text.Nextion_Interrupt_Function,"ax",%progbits
 1588              		.align	2
 1589              		.global	Nextion_Interrupt_Function
 1590              		.thumb
 1591              		.thumb_func
 1592              		.type	Nextion_Interrupt_Function, %function
 1593              	Nextion_Interrupt_Function:
 1594              	.LFB82:
 1595              		.file 6 "./CY_ISR_Nextion.h"
   1:./CY_ISR_Nextion.h **** /* ========================================
   2:./CY_ISR_Nextion.h ****  *
   3:./CY_ISR_Nextion.h ****  * Copyright YOUR COMPANY, THE YEAR
   4:./CY_ISR_Nextion.h ****  * All Rights Reserved
   5:./CY_ISR_Nextion.h ****  * UNPUBLISHED, LICENSED SOFTWARE.
   6:./CY_ISR_Nextion.h ****  *
   7:./CY_ISR_Nextion.h ****  * CONFIDENTIAL AND PROPRIETARY INFORMATION
   8:./CY_ISR_Nextion.h ****  * WHICH IS THE PROPERTY OF your company.
   9:./CY_ISR_Nextion.h ****  *
ARM GAS  C:\Users\LOCALA~1\AppData\Local\Temp\ccsQji0c.s 			page 38


  10:./CY_ISR_Nextion.h ****  * ========================================
  11:./CY_ISR_Nextion.h **** */
  12:./CY_ISR_Nextion.h **** 
  13:./CY_ISR_Nextion.h **** #ifndef CYISRNEXTION_H
  14:./CY_ISR_Nextion.h ****     #define CYISRNEXTION_H
  15:./CY_ISR_Nextion.h ****    
  16:./CY_ISR_Nextion.h ****     #include <project.h>
  17:./CY_ISR_Nextion.h ****     
  18:./CY_ISR_Nextion.h ****     #include <GlobalVariables.h>
  19:./CY_ISR_Nextion.h ****     
  20:./CY_ISR_Nextion.h ****     static int counter = 0;
  21:./CY_ISR_Nextion.h ****     
  22:./CY_ISR_Nextion.h ****     
  23:./CY_ISR_Nextion.h ****     CY_ISR(Nextion_Interrupt_Function)
  24:./CY_ISR_Nextion.h ****     {
 1596              		.loc 6 24 0
 1597              		.cfi_startproc
 1598              		@ args = 0, pretend = 0, frame = 8
 1599              		@ frame_needed = 1, uses_anonymous_args = 0
 1600 0000 80B5     		push	{r7, lr}
 1601              		.cfi_def_cfa_offset 8
 1602              		.cfi_offset 7, -8
 1603              		.cfi_offset 14, -4
 1604 0002 82B0     		sub	sp, sp, #8
 1605              		.cfi_def_cfa_offset 16
 1606 0004 00AF     		add	r7, sp, #0
 1607              		.cfi_def_cfa_register 7
  25:./CY_ISR_Nextion.h ****         char last_byte;
  26:./CY_ISR_Nextion.h ****         last_byte = UART_TFT_GetByte();
 1608              		.loc 6 26 0
 1609 0006 FFF7FEFF 		bl	UART_TFT_GetByte
 1610 000a 0346     		mov	r3, r0
 1611 000c FB71     		strb	r3, [r7, #7]
  27:./CY_ISR_Nextion.h ****         
  28:./CY_ISR_Nextion.h ****         if (last_byte != 0xFF)                      // 0xFF indicates end of communication from/to 
 1612              		.loc 6 28 0
 1613 000e FB79     		ldrb	r3, [r7, #7]	@ zero_extendqisi2
 1614 0010 FF2B     		cmp	r3, #255
 1615 0012 2CD0     		beq	.L100
  29:./CY_ISR_Nextion.h ****         {             
  30:./CY_ISR_Nextion.h ****             if (g_SliderValueReceiving == 1)
 1616              		.loc 6 30 0
 1617 0014 184B     		ldr	r3, .L101
 1618 0016 1B78     		ldrb	r3, [r3]	@ zero_extendqisi2
 1619 0018 012B     		cmp	r3, #1
 1620 001a 14D1     		bne	.L96
  31:./CY_ISR_Nextion.h ****             {
  32:./CY_ISR_Nextion.h ****                 g_SliderValueBuffer[counter] = last_byte;
 1621              		.loc 6 32 0
 1622 001c 174B     		ldr	r3, .L101+4
 1623 001e 1B68     		ldr	r3, [r3]
 1624 0020 1749     		ldr	r1, .L101+8
 1625 0022 FA79     		ldrb	r2, [r7, #7]
 1626 0024 CA54     		strb	r2, [r1, r3]
  33:./CY_ISR_Nextion.h ****                 counter++;
 1627              		.loc 6 33 0
 1628 0026 154B     		ldr	r3, .L101+4
ARM GAS  C:\Users\LOCALA~1\AppData\Local\Temp\ccsQji0c.s 			page 39


 1629 0028 1B68     		ldr	r3, [r3]
 1630 002a 0133     		adds	r3, r3, #1
 1631 002c 134A     		ldr	r2, .L101+4
 1632 002e 1360     		str	r3, [r2]
  34:./CY_ISR_Nextion.h ****                 if (counter == 4){
 1633              		.loc 6 34 0
 1634 0030 124B     		ldr	r3, .L101+4
 1635 0032 1B68     		ldr	r3, [r3]
 1636 0034 042B     		cmp	r3, #4
 1637 0036 1AD1     		bne	.L100
  35:./CY_ISR_Nextion.h ****                     g_SliderValueReceiving = 2;     // indicates that all slider values got receive
 1638              		.loc 6 35 0
 1639 0038 0F4B     		ldr	r3, .L101
 1640 003a 0222     		movs	r2, #2
 1641 003c 1A70     		strb	r2, [r3]
  36:./CY_ISR_Nextion.h ****                     counter = 0;                    // counter reset for finished transmission
 1642              		.loc 6 36 0
 1643 003e 0F4B     		ldr	r3, .L101+4
 1644 0040 0022     		movs	r2, #0
 1645 0042 1A60     		str	r2, [r3]
  37:./CY_ISR_Nextion.h ****                 }
  38:./CY_ISR_Nextion.h ****             }
  39:./CY_ISR_Nextion.h ****             else if (last_byte == '&')                   // Slider value will be sent
  40:./CY_ISR_Nextion.h ****             {
  41:./CY_ISR_Nextion.h ****                 g_SliderValueReceiving = 1;              
  42:./CY_ISR_Nextion.h ****                 counter = 0;                            // Counter reset, if transmission gets inte
  43:./CY_ISR_Nextion.h ****                 
  44:./CY_ISR_Nextion.h ****             }else if (last_byte == 'H')             // Stop everything and return to home!
  45:./CY_ISR_Nextion.h ****             {
  46:./CY_ISR_Nextion.h ****                 g_ActivePage = 'H';
  47:./CY_ISR_Nextion.h ****             }
  48:./CY_ISR_Nextion.h ****             else 
  49:./CY_ISR_Nextion.h ****             {
  50:./CY_ISR_Nextion.h ****                 g_NextionInterrupt = last_byte;   
  51:./CY_ISR_Nextion.h ****             }
  52:./CY_ISR_Nextion.h ****         }
  53:./CY_ISR_Nextion.h ****     }
 1646              		.loc 6 53 0
 1647 0044 13E0     		b	.L100
 1648              	.L96:
  39:./CY_ISR_Nextion.h ****             {
 1649              		.loc 6 39 0
 1650 0046 FB79     		ldrb	r3, [r7, #7]	@ zero_extendqisi2
 1651 0048 262B     		cmp	r3, #38
 1652 004a 06D1     		bne	.L98
  41:./CY_ISR_Nextion.h ****                 counter = 0;                            // Counter reset, if transmission gets inte
 1653              		.loc 6 41 0
 1654 004c 0A4B     		ldr	r3, .L101
 1655 004e 0122     		movs	r2, #1
 1656 0050 1A70     		strb	r2, [r3]
  42:./CY_ISR_Nextion.h ****                 
 1657              		.loc 6 42 0
 1658 0052 0A4B     		ldr	r3, .L101+4
 1659 0054 0022     		movs	r2, #0
 1660 0056 1A60     		str	r2, [r3]
 1661              		.loc 6 53 0
 1662 0058 09E0     		b	.L100
ARM GAS  C:\Users\LOCALA~1\AppData\Local\Temp\ccsQji0c.s 			page 40


 1663              	.L98:
  44:./CY_ISR_Nextion.h ****             {
 1664              		.loc 6 44 0
 1665 005a FB79     		ldrb	r3, [r7, #7]	@ zero_extendqisi2
 1666 005c 482B     		cmp	r3, #72
 1667 005e 03D1     		bne	.L99
  46:./CY_ISR_Nextion.h ****             }
 1668              		.loc 6 46 0
 1669 0060 084B     		ldr	r3, .L101+12
 1670 0062 4822     		movs	r2, #72
 1671 0064 1A70     		strb	r2, [r3]
 1672              		.loc 6 53 0
 1673 0066 02E0     		b	.L100
 1674              	.L99:
  50:./CY_ISR_Nextion.h ****             }
 1675              		.loc 6 50 0
 1676 0068 074A     		ldr	r2, .L101+16
 1677 006a FB79     		ldrb	r3, [r7, #7]
 1678 006c 1370     		strb	r3, [r2]
 1679              	.L100:
 1680              		.loc 6 53 0
 1681 006e 00BF     		nop
 1682 0070 0837     		adds	r7, r7, #8
 1683              		.cfi_def_cfa_offset 8
 1684 0072 BD46     		mov	sp, r7
 1685              		.cfi_def_cfa_register 13
 1686              		@ sp needed
 1687 0074 80BD     		pop	{r7, pc}
 1688              	.L102:
 1689 0076 00BF     		.align	2
 1690              	.L101:
 1691 0078 00000000 		.word	g_SliderValueReceiving
 1692 007c 60000000 		.word	counter
 1693 0080 00000000 		.word	g_SliderValueBuffer
 1694 0084 00000000 		.word	g_ActivePage
 1695 0088 00000000 		.word	g_NextionInterrupt
 1696              		.cfi_endproc
 1697              	.LFE82:
 1698              		.size	Nextion_Interrupt_Function, .-Nextion_Interrupt_Function
 1699              		.section	.text.PC_Interrupt_Function,"ax",%progbits
 1700              		.align	2
 1701              		.global	PC_Interrupt_Function
 1702              		.thumb
 1703              		.thumb_func
 1704              		.type	PC_Interrupt_Function, %function
 1705              	PC_Interrupt_Function:
 1706              	.LFB83:
 1707              		.file 7 "./CY_ISR_PC.h"
   1:./CY_ISR_PC.h **** /* ========================================
   2:./CY_ISR_PC.h ****  *
   3:./CY_ISR_PC.h ****  * Copyright YOUR COMPANY, THE YEAR
   4:./CY_ISR_PC.h ****  * All Rights Reserved
   5:./CY_ISR_PC.h ****  * UNPUBLISHED, LICENSED SOFTWARE.
   6:./CY_ISR_PC.h ****  *
   7:./CY_ISR_PC.h ****  * CONFIDENTIAL AND PROPRIETARY INFORMATION
   8:./CY_ISR_PC.h ****  * WHICH IS THE PROPERTY OF your company.
   9:./CY_ISR_PC.h ****  *
ARM GAS  C:\Users\LOCALA~1\AppData\Local\Temp\ccsQji0c.s 			page 41


  10:./CY_ISR_PC.h ****  * ========================================
  11:./CY_ISR_PC.h **** */
  12:./CY_ISR_PC.h **** 
  13:./CY_ISR_PC.h **** #ifndef CY_ISR_PC_H
  14:./CY_ISR_PC.h ****     #define CY_ISR_PC_H
  15:./CY_ISR_PC.h ****     
  16:./CY_ISR_PC.h ****     #include <project.h>
  17:./CY_ISR_PC.h ****     #include <GlobalVariables.h>
  18:./CY_ISR_PC.h ****     
  19:./CY_ISR_PC.h ****     CY_ISR(PC_Interrupt_Function)
  20:./CY_ISR_PC.h ****     {
 1708              		.loc 7 20 0
 1709              		.cfi_startproc
 1710              		@ args = 0, pretend = 0, frame = 8
 1711              		@ frame_needed = 1, uses_anonymous_args = 0
 1712 0000 80B5     		push	{r7, lr}
 1713              		.cfi_def_cfa_offset 8
 1714              		.cfi_offset 7, -8
 1715              		.cfi_offset 14, -4
 1716 0002 82B0     		sub	sp, sp, #8
 1717              		.cfi_def_cfa_offset 16
 1718 0004 00AF     		add	r7, sp, #0
 1719              		.cfi_def_cfa_register 7
  21:./CY_ISR_PC.h ****         if (g_ActivePage == 'P')
 1720              		.loc 7 21 0
 1721 0006 0B4B     		ldr	r3, .L107
 1722 0008 1B78     		ldrb	r3, [r3]	@ zero_extendqisi2
 1723 000a 502B     		cmp	r3, #80
 1724 000c 0DD1     		bne	.L106
 1725              	.LBB9:
  22:./CY_ISR_PC.h ****         {
  23:./CY_ISR_PC.h ****             char last_byte;
  24:./CY_ISR_PC.h ****             last_byte = UART_PC_GetByte();
 1726              		.loc 7 24 0
 1727 000e FFF7FEFF 		bl	UART_PC_GetByte
 1728 0012 0346     		mov	r3, r0
 1729 0014 FB71     		strb	r3, [r7, #7]
  25:./CY_ISR_PC.h ****             // Provisorisch
  26:./CY_ISR_PC.h ****             if (last_byte == 'H')             // Stop everything and return to home!
 1730              		.loc 7 26 0
 1731 0016 FB79     		ldrb	r3, [r7, #7]	@ zero_extendqisi2
 1732 0018 482B     		cmp	r3, #72
 1733 001a 03D1     		bne	.L105
  27:./CY_ISR_PC.h ****             {
  28:./CY_ISR_PC.h ****                 g_ActivePage = 'H';
 1734              		.loc 7 28 0
 1735 001c 054B     		ldr	r3, .L107
 1736 001e 4822     		movs	r2, #72
 1737 0020 1A70     		strb	r2, [r3]
 1738              	.LBE9:
  29:./CY_ISR_PC.h ****             }
  30:./CY_ISR_PC.h ****             else
  31:./CY_ISR_PC.h ****             {
  32:./CY_ISR_PC.h ****                 g_PCInterrupt = last_byte;
  33:./CY_ISR_PC.h ****             } 
  34:./CY_ISR_PC.h ****         }
  35:./CY_ISR_PC.h ****         
ARM GAS  C:\Users\LOCALA~1\AppData\Local\Temp\ccsQji0c.s 			page 42


  36:./CY_ISR_PC.h ****     }
 1739              		.loc 7 36 0
 1740 0022 02E0     		b	.L106
 1741              	.L105:
 1742              	.LBB10:
  32:./CY_ISR_PC.h ****             } 
 1743              		.loc 7 32 0
 1744 0024 044A     		ldr	r2, .L107+4
 1745 0026 FB79     		ldrb	r3, [r7, #7]
 1746 0028 1370     		strb	r3, [r2]
 1747              	.L106:
 1748              	.LBE10:
 1749              		.loc 7 36 0
 1750 002a 00BF     		nop
 1751 002c 0837     		adds	r7, r7, #8
 1752              		.cfi_def_cfa_offset 8
 1753 002e BD46     		mov	sp, r7
 1754              		.cfi_def_cfa_register 13
 1755              		@ sp needed
 1756 0030 80BD     		pop	{r7, pc}
 1757              	.L108:
 1758 0032 00BF     		.align	2
 1759              	.L107:
 1760 0034 00000000 		.word	g_ActivePage
 1761 0038 00000000 		.word	g_PCInterrupt
 1762              		.cfi_endproc
 1763              	.LFE83:
 1764              		.size	PC_Interrupt_Function, .-PC_Interrupt_Function
 1765              		.global	__aeabi_dadd
 1766              		.section	.text.Timer_Interrupt_Function,"ax",%progbits
 1767              		.align	2
 1768              		.global	Timer_Interrupt_Function
 1769              		.thumb
 1770              		.thumb_func
 1771              		.type	Timer_Interrupt_Function, %function
 1772              	Timer_Interrupt_Function:
 1773              	.LFB84:
 1774              		.file 8 "./CY_ISR_Timer.h"
   1:./CY_ISR_Timer.h **** /* ========================================
   2:./CY_ISR_Timer.h ****  *
   3:./CY_ISR_Timer.h ****  * Copyright YOUR COMPANY, THE YEAR
   4:./CY_ISR_Timer.h ****  * All Rights Reserved
   5:./CY_ISR_Timer.h ****  * UNPUBLISHED, LICENSED SOFTWARE.
   6:./CY_ISR_Timer.h ****  *
   7:./CY_ISR_Timer.h ****  * CONFIDENTIAL AND PROPRIETARY INFORMATION
   8:./CY_ISR_Timer.h ****  * WHICH IS THE PROPERTY OF your company.
   9:./CY_ISR_Timer.h ****  *
  10:./CY_ISR_Timer.h ****  * ========================================
  11:./CY_ISR_Timer.h **** */
  12:./CY_ISR_Timer.h **** 
  13:./CY_ISR_Timer.h **** #ifndef CY_ISR_TIMER_H
  14:./CY_ISR_Timer.h ****     #define CY_ISR_TIMER_H
  15:./CY_ISR_Timer.h ****     
  16:./CY_ISR_Timer.h ****     #include <project.h>
  17:./CY_ISR_Timer.h ****     #include <GlobalVariables.h>
  18:./CY_ISR_Timer.h ****     
  19:./CY_ISR_Timer.h ****     CY_ISR(Timer_Interrupt_Function)
ARM GAS  C:\Users\LOCALA~1\AppData\Local\Temp\ccsQji0c.s 			page 43


  20:./CY_ISR_Timer.h ****     {
 1775              		.loc 8 20 0
 1776              		.cfi_startproc
 1777              		@ args = 0, pretend = 0, frame = 0
 1778              		@ frame_needed = 1, uses_anonymous_args = 0
 1779 0000 98B5     		push	{r3, r4, r7, lr}
 1780              		.cfi_def_cfa_offset 16
 1781              		.cfi_offset 3, -16
 1782              		.cfi_offset 4, -12
 1783              		.cfi_offset 7, -8
 1784              		.cfi_offset 14, -4
 1785 0002 00AF     		add	r7, sp, #0
 1786              		.cfi_def_cfa_register 7
  21:./CY_ISR_Timer.h ****         v_timer_100ms++;
 1787              		.loc 8 21 0
 1788 0004 2A4B     		ldr	r3, .L115
 1789 0006 1B68     		ldr	r3, [r3]
 1790 0008 0133     		adds	r3, r3, #1
 1791 000a 294A     		ldr	r2, .L115
 1792 000c 1360     		str	r3, [r2]
  22:./CY_ISR_Timer.h ****         if (v_timer_100ms >= 100)
 1793              		.loc 8 22 0
 1794 000e 284B     		ldr	r3, .L115
 1795 0010 1B68     		ldr	r3, [r3]
 1796 0012 632B     		cmp	r3, #99
 1797 0014 05DD     		ble	.L110
  23:./CY_ISR_Timer.h ****         {
  24:./CY_ISR_Timer.h ****             v_timerflag_100ms = 1;   
 1798              		.loc 8 24 0
 1799 0016 274B     		ldr	r3, .L115+4
 1800 0018 0122     		movs	r2, #1
 1801 001a 1A70     		strb	r2, [r3]
  25:./CY_ISR_Timer.h ****             v_timer_100ms = 0;
 1802              		.loc 8 25 0
 1803 001c 244B     		ldr	r3, .L115
 1804 001e 0022     		movs	r2, #0
 1805 0020 1A60     		str	r2, [r3]
 1806              	.L110:
  26:./CY_ISR_Timer.h ****         }
  27:./CY_ISR_Timer.h ****         
  28:./CY_ISR_Timer.h ****         v_timer_waiting++;
 1807              		.loc 8 28 0
 1808 0022 254B     		ldr	r3, .L115+8
 1809 0024 1B68     		ldr	r3, [r3]
 1810 0026 0133     		adds	r3, r3, #1
 1811 0028 234A     		ldr	r2, .L115+8
 1812 002a 1360     		str	r3, [r2]
  29:./CY_ISR_Timer.h ****         
  30:./CY_ISR_Timer.h ****         v_timer_Lifetime_ms++;
 1813              		.loc 8 30 0
 1814 002c 234B     		ldr	r3, .L115+12
 1815 002e D3E90001 		ldrd	r0, [r3]
 1816 0032 4FF00002 		mov	r2, #0
 1817 0036 224B     		ldr	r3, .L115+16
 1818 0038 FFF7FEFF 		bl	__aeabi_dadd
 1819 003c 0346     		mov	r3, r0
 1820 003e 0C46     		mov	r4, r1
ARM GAS  C:\Users\LOCALA~1\AppData\Local\Temp\ccsQji0c.s 			page 44


 1821 0040 1E4A     		ldr	r2, .L115+12
 1822 0042 C2E90034 		strd	r3, [r2]
  31:./CY_ISR_Timer.h ****         
  32:./CY_ISR_Timer.h ****         v_timer_Measurement++;
 1823              		.loc 8 32 0
 1824 0046 1F4B     		ldr	r3, .L115+20
 1825 0048 1B68     		ldr	r3, [r3]
 1826 004a 0133     		adds	r3, r3, #1
 1827 004c 1D4A     		ldr	r2, .L115+20
 1828 004e 1360     		str	r3, [r2]
  33:./CY_ISR_Timer.h ****         
  34:./CY_ISR_Timer.h ****         if (v_timer_Measurement >= (g_SwitchPeriodOfLaser_ms/2))
 1829              		.loc 8 34 0
 1830 0050 1D4B     		ldr	r3, .L115+24
 1831 0052 1B68     		ldr	r3, [r3]
 1832 0054 DA0F     		lsrs	r2, r3, #31
 1833 0056 1344     		add	r3, r3, r2
 1834 0058 5B10     		asrs	r3, r3, #1
 1835 005a 1A46     		mov	r2, r3
 1836 005c 194B     		ldr	r3, .L115+20
 1837 005e 1B68     		ldr	r3, [r3]
 1838 0060 9A42     		cmp	r2, r3
 1839 0062 02DC     		bgt	.L111
  35:./CY_ISR_Timer.h ****         {
  36:./CY_ISR_Timer.h ****             v_timerflag_Measurement = 1;
 1840              		.loc 8 36 0
 1841 0064 194B     		ldr	r3, .L115+28
 1842 0066 0122     		movs	r2, #1
 1843 0068 1A60     		str	r2, [r3]
 1844              	.L111:
  37:./CY_ISR_Timer.h ****             // Reset is done, after the laser gets switched -> easier for obtaining the time in the
  38:./CY_ISR_Timer.h ****         }
  39:./CY_ISR_Timer.h ****         
  40:./CY_ISR_Timer.h ****         v_timer_LaserSwitch++;
 1845              		.loc 8 40 0
 1846 006a 194B     		ldr	r3, .L115+32
 1847 006c 1B68     		ldr	r3, [r3]
 1848 006e 0133     		adds	r3, r3, #1
 1849 0070 174A     		ldr	r2, .L115+32
 1850 0072 1360     		str	r3, [r2]
  41:./CY_ISR_Timer.h ****         if (v_timer_LaserSwitch >= g_SwitchPeriodOfLaser_ms)
 1851              		.loc 8 41 0
 1852 0074 164B     		ldr	r3, .L115+32
 1853 0076 1A68     		ldr	r2, [r3]
 1854 0078 134B     		ldr	r3, .L115+24
 1855 007a 1B68     		ldr	r3, [r3]
 1856 007c 9A42     		cmp	r2, r3
 1857 007e 05DB     		blt	.L112
  42:./CY_ISR_Timer.h ****         {
  43:./CY_ISR_Timer.h ****             v_timer_LaserSwitch = 0;
 1858              		.loc 8 43 0
 1859 0080 134B     		ldr	r3, .L115+32
 1860 0082 0022     		movs	r2, #0
 1861 0084 1A60     		str	r2, [r3]
  44:./CY_ISR_Timer.h ****             v_timerflag_LaserSwitch = 1;
 1862              		.loc 8 44 0
 1863 0086 134B     		ldr	r3, .L115+36
ARM GAS  C:\Users\LOCALA~1\AppData\Local\Temp\ccsQji0c.s 			page 45


 1864 0088 0122     		movs	r2, #1
 1865 008a 1A60     		str	r2, [r3]
 1866              	.L112:
  45:./CY_ISR_Timer.h ****         }
  46:./CY_ISR_Timer.h ****         
  47:./CY_ISR_Timer.h ****         v_timer_500ms++;
 1867              		.loc 8 47 0
 1868 008c 124B     		ldr	r3, .L115+40
 1869 008e 1B68     		ldr	r3, [r3]
 1870 0090 0133     		adds	r3, r3, #1
 1871 0092 114A     		ldr	r2, .L115+40
 1872 0094 1360     		str	r3, [r2]
  48:./CY_ISR_Timer.h ****         if (v_timer_500ms >= 500)
 1873              		.loc 8 48 0
 1874 0096 104B     		ldr	r3, .L115+40
 1875 0098 1B68     		ldr	r3, [r3]
 1876 009a B3F5FA7F 		cmp	r3, #500
 1877 009e 05DB     		blt	.L114
  49:./CY_ISR_Timer.h ****         {
  50:./CY_ISR_Timer.h ****             v_timer_500ms = 0;
 1878              		.loc 8 50 0
 1879 00a0 0D4B     		ldr	r3, .L115+40
 1880 00a2 0022     		movs	r2, #0
 1881 00a4 1A60     		str	r2, [r3]
  51:./CY_ISR_Timer.h ****             v_timerflag_500ms = 1;
 1882              		.loc 8 51 0
 1883 00a6 0D4B     		ldr	r3, .L115+44
 1884 00a8 0122     		movs	r2, #1
 1885 00aa 1A60     		str	r2, [r3]
 1886              	.L114:
  52:./CY_ISR_Timer.h ****         }
  53:./CY_ISR_Timer.h ****     }
 1887              		.loc 8 53 0
 1888 00ac 00BF     		nop
 1889 00ae 98BD     		pop	{r3, r4, r7, pc}
 1890              	.L116:
 1891              		.align	2
 1892              	.L115:
 1893 00b0 00000000 		.word	v_timer_100ms
 1894 00b4 00000000 		.word	v_timerflag_100ms
 1895 00b8 00000000 		.word	v_timer_waiting
 1896 00bc 00000000 		.word	v_timer_Lifetime_ms
 1897 00c0 0000F03F 		.word	1072693248
 1898 00c4 00000000 		.word	v_timer_Measurement
 1899 00c8 00000000 		.word	g_SwitchPeriodOfLaser_ms
 1900 00cc 00000000 		.word	v_timerflag_Measurement
 1901 00d0 00000000 		.word	v_timer_LaserSwitch
 1902 00d4 00000000 		.word	v_timerflag_LaserSwitch
 1903 00d8 00000000 		.word	v_timer_500ms
 1904 00dc 00000000 		.word	v_timerflag_500ms
 1905              		.cfi_endproc
 1906              	.LFE84:
 1907              		.size	Timer_Interrupt_Function, .-Timer_Interrupt_Function
 1908              		.section	.text.Init_LED,"ax",%progbits
 1909              		.align	2
 1910              		.global	Init_LED
 1911              		.thumb
ARM GAS  C:\Users\LOCALA~1\AppData\Local\Temp\ccsQji0c.s 			page 46


 1912              		.thumb_func
 1913              		.type	Init_LED, %function
 1914              	Init_LED:
 1915              	.LFB85:
 1916              		.file 9 "./Init.h"
   1:./Init.h      **** /* ========================================
   2:./Init.h      ****  *
   3:./Init.h      ****  * Copyright YOUR COMPANY, THE YEAR
   4:./Init.h      ****  * All Rights Reserved
   5:./Init.h      ****  * UNPUBLISHED, LICENSED SOFTWARE.
   6:./Init.h      ****  *
   7:./Init.h      ****  * CONFIDENTIAL AND PROPRIETARY INFORMATION
   8:./Init.h      ****  * WHICH IS THE PROPERTY OF your company.
   9:./Init.h      ****  *
  10:./Init.h      ****  * ========================================
  11:./Init.h      **** */
  12:./Init.h      **** #ifndef INIT_H
  13:./Init.h      ****     #define INIT_H
  14:./Init.h      ****     
  15:./Init.h      ****     #include <project.h>
  16:./Init.h      ****     
  17:./Init.h      ****     #include <ProgramParts.h>
  18:./Init.h      ****     #include <SDCard.h>
  19:./Init.h      ****     #include <ADC.h>
  20:./Init.h      ****     #include <LaserSelect.h>
  21:./Init.h      ****     #include <Nextion.h>
  22:./Init.h      ****     #include <CY_ISR_Nextion.h>
  23:./Init.h      ****     #include <CY_ISR_PC.h>
  24:./Init.h      ****     #include <CY_ISR_Timer.h>
  25:./Init.h      ****     
  26:./Init.h      ****     
  27:./Init.h      ****     
  28:./Init.h      ****     void Init_LED(char state)
  29:./Init.h      ****     {
 1917              		.loc 9 29 0
 1918              		.cfi_startproc
 1919              		@ args = 0, pretend = 0, frame = 8
 1920              		@ frame_needed = 1, uses_anonymous_args = 0
 1921 0000 80B5     		push	{r7, lr}
 1922              		.cfi_def_cfa_offset 8
 1923              		.cfi_offset 7, -8
 1924              		.cfi_offset 14, -4
 1925 0002 82B0     		sub	sp, sp, #8
 1926              		.cfi_def_cfa_offset 16
 1927 0004 00AF     		add	r7, sp, #0
 1928              		.cfi_def_cfa_register 7
 1929 0006 0346     		mov	r3, r0
 1930 0008 FB71     		strb	r3, [r7, #7]
  30:./Init.h      ****         Pin_LED_Write(state);
 1931              		.loc 9 30 0
 1932 000a FB79     		ldrb	r3, [r7, #7]	@ zero_extendqisi2
 1933 000c 1846     		mov	r0, r3
 1934 000e FFF7FEFF 		bl	Pin_LED_Write
  31:./Init.h      ****     }
 1935              		.loc 9 31 0
 1936 0012 00BF     		nop
 1937 0014 0837     		adds	r7, r7, #8
ARM GAS  C:\Users\LOCALA~1\AppData\Local\Temp\ccsQji0c.s 			page 47


 1938              		.cfi_def_cfa_offset 8
 1939 0016 BD46     		mov	sp, r7
 1940              		.cfi_def_cfa_register 13
 1941              		@ sp needed
 1942 0018 80BD     		pop	{r7, pc}
 1943              		.cfi_endproc
 1944              	.LFE85:
 1945              		.size	Init_LED, .-Init_LED
 1946 001a 00BF     		.section	.text.Init,"ax",%progbits
 1947              		.align	2
 1948              		.global	Init
 1949              		.thumb
 1950              		.thumb_func
 1951              		.type	Init, %function
 1952              	Init:
 1953              	.LFB86:
  32:./Init.h      ****     
  33:./Init.h      ****     
  34:./Init.h      ****     
  35:./Init.h      ****     void Init(){
 1954              		.loc 9 35 0
 1955              		.cfi_startproc
 1956              		@ args = 0, pretend = 0, frame = 0
 1957              		@ frame_needed = 1, uses_anonymous_args = 0
 1958 0000 80B5     		push	{r7, lr}
 1959              		.cfi_def_cfa_offset 8
 1960              		.cfi_offset 7, -8
 1961              		.cfi_offset 14, -4
 1962 0002 00AF     		add	r7, sp, #0
 1963              		.cfi_def_cfa_register 7
  36:./Init.h      ****         Init_LED(1);
 1964              		.loc 9 36 0
 1965 0004 0120     		movs	r0, #1
 1966 0006 FFF7FEFF 		bl	Init_LED
  37:./Init.h      ****         
  38:./Init.h      ****         Init_MeasurementLasers();
 1967              		.loc 9 38 0
 1968 000a FFF7FEFF 		bl	Init_MeasurementLasers
  39:./Init.h      ****         
  40:./Init.h      ****         UART_PC_Start();
 1969              		.loc 9 40 0
 1970 000e FFF7FEFF 		bl	UART_PC_Start
  41:./Init.h      **** 
  42:./Init.h      ****         Init_ADC();    
 1971              		.loc 9 42 0
 1972 0012 FFF7FEFF 		bl	Init_ADC
  43:./Init.h      ****         
  44:./Init.h      ****         Timer1_Start();
 1973              		.loc 9 44 0
 1974 0016 FFF7FEFF 		bl	Timer1_Start
  45:./Init.h      ****         Timer1_Function_StartEx(Timer_Interrupt_Function);
 1975              		.loc 9 45 0
 1976 001a 0848     		ldr	r0, .L119
 1977 001c FFF7FEFF 		bl	Timer1_Function_StartEx
  46:./Init.h      ****         
  47:./Init.h      ****         
  48:./Init.h      ****         
ARM GAS  C:\Users\LOCALA~1\AppData\Local\Temp\ccsQji0c.s 			page 48


  49:./Init.h      ****         Init_Nextion();    
 1978              		.loc 9 49 0
 1979 0020 FFF7FEFF 		bl	Init_Nextion
  50:./Init.h      ****         
  51:./Init.h      ****         Interr_TFT_StartEx(Nextion_Interrupt_Function);
 1980              		.loc 9 51 0
 1981 0024 0648     		ldr	r0, .L119+4
 1982 0026 FFF7FEFF 		bl	Interr_TFT_StartEx
  52:./Init.h      ****         
  53:./Init.h      ****         #ifdef PC_CONTROL
  54:./Init.h      ****         Interr_PC_StartEx(PC_Interrupt_Function);
  55:./Init.h      ****         #endif
  56:./Init.h      ****         
  57:./Init.h      ****         Init_SDCard();
 1983              		.loc 9 57 0
 1984 002a FFF7FEFF 		bl	Init_SDCard
  58:./Init.h      ****         
  59:./Init.h      ****         CyGlobalIntEnable;      // Enable Global Interrupts for Timer, Communication with Nextion a
 1985              		.loc 9 59 0
 1986              		.syntax unified
 1987              	@ 59 "./Init.h" 1
 1988 002e 62B6     		CPSIE   i
 1989              	@ 0 "" 2
  60:./Init.h      ****         
  61:./Init.h      ****         Init_LED(0);
 1990              		.loc 9 61 0
 1991              		.thumb
 1992              		.syntax unified
 1993 0030 0020     		movs	r0, #0
 1994 0032 FFF7FEFF 		bl	Init_LED
  62:./Init.h      ****     }
 1995              		.loc 9 62 0
 1996 0036 00BF     		nop
 1997 0038 80BD     		pop	{r7, pc}
 1998              	.L120:
 1999 003a 00BF     		.align	2
 2000              	.L119:
 2001 003c 00000000 		.word	Timer_Interrupt_Function
 2002 0040 00000000 		.word	Nextion_Interrupt_Function
 2003              		.cfi_endproc
 2004              	.LFE86:
 2005              		.size	Init, .-Init
 2006              		.section	.text.Laser1,"ax",%progbits
 2007              		.align	2
 2008              		.global	Laser1
 2009              		.thumb
 2010              		.thumb_func
 2011              		.type	Laser1, %function
 2012              	Laser1:
 2013              	.LFB87:
 2014              		.file 10 "./Laser.h"
   1:./Laser.h     **** /* ========================================
   2:./Laser.h     ****  *
   3:./Laser.h     ****  * Copyright YOUR COMPANY, THE YEAR
   4:./Laser.h     ****  * All Rights Reserved
   5:./Laser.h     ****  * UNPUBLISHED, LICENSED SOFTWARE.
   6:./Laser.h     ****  *
ARM GAS  C:\Users\LOCALA~1\AppData\Local\Temp\ccsQji0c.s 			page 49


   7:./Laser.h     ****  * CONFIDENTIAL AND PROPRIETARY INFORMATION
   8:./Laser.h     ****  * WHICH IS THE PROPERTY OF your company.
   9:./Laser.h     ****  *
  10:./Laser.h     ****  * ========================================
  11:./Laser.h     **** */
  12:./Laser.h     **** 
  13:./Laser.h     **** #ifndef LASER_H
  14:./Laser.h     ****     #define LASER_H
  15:./Laser.h     **** 
  16:./Laser.h     ****     #include <project.h>
  17:./Laser.h     ****     #include <GlobalVariables.h>
  18:./Laser.h     ****     
  19:./Laser.h     ****     
  20:./Laser.h     ****     void Laser1(int Status)
  21:./Laser.h     ****     {
 2015              		.loc 10 21 0
 2016              		.cfi_startproc
 2017              		@ args = 0, pretend = 0, frame = 8
 2018              		@ frame_needed = 1, uses_anonymous_args = 0
 2019 0000 80B5     		push	{r7, lr}
 2020              		.cfi_def_cfa_offset 8
 2021              		.cfi_offset 7, -8
 2022              		.cfi_offset 14, -4
 2023 0002 82B0     		sub	sp, sp, #8
 2024              		.cfi_def_cfa_offset 16
 2025 0004 00AF     		add	r7, sp, #0
 2026              		.cfi_def_cfa_register 7
 2027 0006 7860     		str	r0, [r7, #4]
  22:./Laser.h     ****         Pin_LaserEN1_Write(Status);
 2028              		.loc 10 22 0
 2029 0008 7B68     		ldr	r3, [r7, #4]
 2030 000a DBB2     		uxtb	r3, r3
 2031 000c 1846     		mov	r0, r3
 2032 000e FFF7FEFF 		bl	Pin_LaserEN1_Write
  23:./Laser.h     ****         LaserState1 = Status;
 2033              		.loc 10 23 0
 2034 0012 7B68     		ldr	r3, [r7, #4]
 2035 0014 DAB2     		uxtb	r2, r3
 2036 0016 034B     		ldr	r3, .L122
 2037 0018 1A70     		strb	r2, [r3]
  24:./Laser.h     ****     }
 2038              		.loc 10 24 0
 2039 001a 00BF     		nop
 2040 001c 0837     		adds	r7, r7, #8
 2041              		.cfi_def_cfa_offset 8
 2042 001e BD46     		mov	sp, r7
 2043              		.cfi_def_cfa_register 13
 2044              		@ sp needed
 2045 0020 80BD     		pop	{r7, pc}
 2046              	.L123:
 2047 0022 00BF     		.align	2
 2048              	.L122:
 2049 0024 00000000 		.word	LaserState1
 2050              		.cfi_endproc
 2051              	.LFE87:
 2052              		.size	Laser1, .-Laser1
 2053              		.section	.text.Laser1_Toggle,"ax",%progbits
ARM GAS  C:\Users\LOCALA~1\AppData\Local\Temp\ccsQji0c.s 			page 50


 2054              		.align	2
 2055              		.global	Laser1_Toggle
 2056              		.thumb
 2057              		.thumb_func
 2058              		.type	Laser1_Toggle, %function
 2059              	Laser1_Toggle:
 2060              	.LFB88:
  25:./Laser.h     ****     
  26:./Laser.h     ****     void Laser1_Toggle()
  27:./Laser.h     ****     {
 2061              		.loc 10 27 0
 2062              		.cfi_startproc
 2063              		@ args = 0, pretend = 0, frame = 0
 2064              		@ frame_needed = 1, uses_anonymous_args = 0
 2065 0000 80B5     		push	{r7, lr}
 2066              		.cfi_def_cfa_offset 8
 2067              		.cfi_offset 7, -8
 2068              		.cfi_offset 14, -4
 2069 0002 00AF     		add	r7, sp, #0
 2070              		.cfi_def_cfa_register 7
  28:./Laser.h     ****         Pin_LaserEN1_Write(!Pin_LaserEN1_Read());
 2071              		.loc 10 28 0
 2072 0004 FFF7FEFF 		bl	Pin_LaserEN1_Read
 2073 0008 0346     		mov	r3, r0
 2074 000a 002B     		cmp	r3, #0
 2075 000c 0CBF     		ite	eq
 2076 000e 0123     		moveq	r3, #1
 2077 0010 0023     		movne	r3, #0
 2078 0012 DBB2     		uxtb	r3, r3
 2079 0014 1846     		mov	r0, r3
 2080 0016 FFF7FEFF 		bl	Pin_LaserEN1_Write
  29:./Laser.h     ****         LaserState1 = Pin_LaserEN1_Read();
 2081              		.loc 10 29 0
 2082 001a FFF7FEFF 		bl	Pin_LaserEN1_Read
 2083 001e 0346     		mov	r3, r0
 2084 0020 1A46     		mov	r2, r3
 2085 0022 024B     		ldr	r3, .L125
 2086 0024 1A70     		strb	r2, [r3]
  30:./Laser.h     ****     }
 2087              		.loc 10 30 0
 2088 0026 00BF     		nop
 2089 0028 80BD     		pop	{r7, pc}
 2090              	.L126:
 2091 002a 00BF     		.align	2
 2092              	.L125:
 2093 002c 00000000 		.word	LaserState1
 2094              		.cfi_endproc
 2095              	.LFE88:
 2096              		.size	Laser1_Toggle, .-Laser1_Toggle
 2097              		.section	.text.Laser2,"ax",%progbits
 2098              		.align	2
 2099              		.global	Laser2
 2100              		.thumb
 2101              		.thumb_func
 2102              		.type	Laser2, %function
 2103              	Laser2:
 2104              	.LFB89:
ARM GAS  C:\Users\LOCALA~1\AppData\Local\Temp\ccsQji0c.s 			page 51


  31:./Laser.h     ****     
  32:./Laser.h     ****     void Laser2(int Status)
  33:./Laser.h     ****     {
 2105              		.loc 10 33 0
 2106              		.cfi_startproc
 2107              		@ args = 0, pretend = 0, frame = 8
 2108              		@ frame_needed = 1, uses_anonymous_args = 0
 2109 0000 80B5     		push	{r7, lr}
 2110              		.cfi_def_cfa_offset 8
 2111              		.cfi_offset 7, -8
 2112              		.cfi_offset 14, -4
 2113 0002 82B0     		sub	sp, sp, #8
 2114              		.cfi_def_cfa_offset 16
 2115 0004 00AF     		add	r7, sp, #0
 2116              		.cfi_def_cfa_register 7
 2117 0006 7860     		str	r0, [r7, #4]
  34:./Laser.h     ****         Pin_LaserEN2_Write(Status);
 2118              		.loc 10 34 0
 2119 0008 7B68     		ldr	r3, [r7, #4]
 2120 000a DBB2     		uxtb	r3, r3
 2121 000c 1846     		mov	r0, r3
 2122 000e FFF7FEFF 		bl	Pin_LaserEN2_Write
  35:./Laser.h     ****         LaserState2 = Status;
 2123              		.loc 10 35 0
 2124 0012 7B68     		ldr	r3, [r7, #4]
 2125 0014 DAB2     		uxtb	r2, r3
 2126 0016 034B     		ldr	r3, .L128
 2127 0018 1A70     		strb	r2, [r3]
  36:./Laser.h     ****     }
 2128              		.loc 10 36 0
 2129 001a 00BF     		nop
 2130 001c 0837     		adds	r7, r7, #8
 2131              		.cfi_def_cfa_offset 8
 2132 001e BD46     		mov	sp, r7
 2133              		.cfi_def_cfa_register 13
 2134              		@ sp needed
 2135 0020 80BD     		pop	{r7, pc}
 2136              	.L129:
 2137 0022 00BF     		.align	2
 2138              	.L128:
 2139 0024 00000000 		.word	LaserState2
 2140              		.cfi_endproc
 2141              	.LFE89:
 2142              		.size	Laser2, .-Laser2
 2143              		.section	.text.Laser2_Toggle,"ax",%progbits
 2144              		.align	2
 2145              		.global	Laser2_Toggle
 2146              		.thumb
 2147              		.thumb_func
 2148              		.type	Laser2_Toggle, %function
 2149              	Laser2_Toggle:
 2150              	.LFB90:
  37:./Laser.h     ****     
  38:./Laser.h     ****     void Laser2_Toggle()
  39:./Laser.h     ****     {
 2151              		.loc 10 39 0
 2152              		.cfi_startproc
ARM GAS  C:\Users\LOCALA~1\AppData\Local\Temp\ccsQji0c.s 			page 52


 2153              		@ args = 0, pretend = 0, frame = 0
 2154              		@ frame_needed = 1, uses_anonymous_args = 0
 2155 0000 80B5     		push	{r7, lr}
 2156              		.cfi_def_cfa_offset 8
 2157              		.cfi_offset 7, -8
 2158              		.cfi_offset 14, -4
 2159 0002 00AF     		add	r7, sp, #0
 2160              		.cfi_def_cfa_register 7
  40:./Laser.h     ****         Pin_LaserEN2_Write(!Pin_LaserEN2_Read());   
 2161              		.loc 10 40 0
 2162 0004 FFF7FEFF 		bl	Pin_LaserEN2_Read
 2163 0008 0346     		mov	r3, r0
 2164 000a 002B     		cmp	r3, #0
 2165 000c 0CBF     		ite	eq
 2166 000e 0123     		moveq	r3, #1
 2167 0010 0023     		movne	r3, #0
 2168 0012 DBB2     		uxtb	r3, r3
 2169 0014 1846     		mov	r0, r3
 2170 0016 FFF7FEFF 		bl	Pin_LaserEN2_Write
  41:./Laser.h     ****         LaserState2 = Pin_LaserEN2_Read();
 2171              		.loc 10 41 0
 2172 001a FFF7FEFF 		bl	Pin_LaserEN2_Read
 2173 001e 0346     		mov	r3, r0
 2174 0020 1A46     		mov	r2, r3
 2175 0022 024B     		ldr	r3, .L131
 2176 0024 1A70     		strb	r2, [r3]
  42:./Laser.h     ****     }
 2177              		.loc 10 42 0
 2178 0026 00BF     		nop
 2179 0028 80BD     		pop	{r7, pc}
 2180              	.L132:
 2181 002a 00BF     		.align	2
 2182              	.L131:
 2183 002c 00000000 		.word	LaserState2
 2184              		.cfi_endproc
 2185              	.LFE90:
 2186              		.size	Laser2_Toggle, .-Laser2_Toggle
 2187              		.section	.text.Laser3,"ax",%progbits
 2188              		.align	2
 2189              		.global	Laser3
 2190              		.thumb
 2191              		.thumb_func
 2192              		.type	Laser3, %function
 2193              	Laser3:
 2194              	.LFB91:
  43:./Laser.h     ****     
  44:./Laser.h     ****     void Laser3(int Status)
  45:./Laser.h     ****     {
 2195              		.loc 10 45 0
 2196              		.cfi_startproc
 2197              		@ args = 0, pretend = 0, frame = 8
 2198              		@ frame_needed = 1, uses_anonymous_args = 0
 2199 0000 80B5     		push	{r7, lr}
 2200              		.cfi_def_cfa_offset 8
 2201              		.cfi_offset 7, -8
 2202              		.cfi_offset 14, -4
 2203 0002 82B0     		sub	sp, sp, #8
ARM GAS  C:\Users\LOCALA~1\AppData\Local\Temp\ccsQji0c.s 			page 53


 2204              		.cfi_def_cfa_offset 16
 2205 0004 00AF     		add	r7, sp, #0
 2206              		.cfi_def_cfa_register 7
 2207 0006 7860     		str	r0, [r7, #4]
  46:./Laser.h     ****         Pin_IRLaserEN_Write(Status);
 2208              		.loc 10 46 0
 2209 0008 7B68     		ldr	r3, [r7, #4]
 2210 000a DBB2     		uxtb	r3, r3
 2211 000c 1846     		mov	r0, r3
 2212 000e FFF7FEFF 		bl	Pin_IRLaserEN_Write
  47:./Laser.h     ****         LaserState3 = Status;
 2213              		.loc 10 47 0
 2214 0012 7B68     		ldr	r3, [r7, #4]
 2215 0014 DAB2     		uxtb	r2, r3
 2216 0016 034B     		ldr	r3, .L134
 2217 0018 1A70     		strb	r2, [r3]
  48:./Laser.h     ****     }
 2218              		.loc 10 48 0
 2219 001a 00BF     		nop
 2220 001c 0837     		adds	r7, r7, #8
 2221              		.cfi_def_cfa_offset 8
 2222 001e BD46     		mov	sp, r7
 2223              		.cfi_def_cfa_register 13
 2224              		@ sp needed
 2225 0020 80BD     		pop	{r7, pc}
 2226              	.L135:
 2227 0022 00BF     		.align	2
 2228              	.L134:
 2229 0024 00000000 		.word	LaserState3
 2230              		.cfi_endproc
 2231              	.LFE91:
 2232              		.size	Laser3, .-Laser3
 2233              		.section	.text.Laser3_Toggle,"ax",%progbits
 2234              		.align	2
 2235              		.global	Laser3_Toggle
 2236              		.thumb
 2237              		.thumb_func
 2238              		.type	Laser3_Toggle, %function
 2239              	Laser3_Toggle:
 2240              	.LFB92:
  49:./Laser.h     ****     
  50:./Laser.h     ****     void Laser3_Toggle()
  51:./Laser.h     ****     {
 2241              		.loc 10 51 0
 2242              		.cfi_startproc
 2243              		@ args = 0, pretend = 0, frame = 0
 2244              		@ frame_needed = 1, uses_anonymous_args = 0
 2245 0000 80B5     		push	{r7, lr}
 2246              		.cfi_def_cfa_offset 8
 2247              		.cfi_offset 7, -8
 2248              		.cfi_offset 14, -4
 2249 0002 00AF     		add	r7, sp, #0
 2250              		.cfi_def_cfa_register 7
  52:./Laser.h     ****         Pin_IRLaserEN_Write(!Pin_IRLaserEN_Read());   
 2251              		.loc 10 52 0
 2252 0004 FFF7FEFF 		bl	Pin_IRLaserEN_Read
 2253 0008 0346     		mov	r3, r0
ARM GAS  C:\Users\LOCALA~1\AppData\Local\Temp\ccsQji0c.s 			page 54


 2254 000a 002B     		cmp	r3, #0
 2255 000c 0CBF     		ite	eq
 2256 000e 0123     		moveq	r3, #1
 2257 0010 0023     		movne	r3, #0
 2258 0012 DBB2     		uxtb	r3, r3
 2259 0014 1846     		mov	r0, r3
 2260 0016 FFF7FEFF 		bl	Pin_IRLaserEN_Write
  53:./Laser.h     ****         LaserState3 = Pin_IRLaserEN_Read();
 2261              		.loc 10 53 0
 2262 001a FFF7FEFF 		bl	Pin_IRLaserEN_Read
 2263 001e 0346     		mov	r3, r0
 2264 0020 1A46     		mov	r2, r3
 2265 0022 024B     		ldr	r3, .L137
 2266 0024 1A70     		strb	r2, [r3]
  54:./Laser.h     ****     }
 2267              		.loc 10 54 0
 2268 0026 00BF     		nop
 2269 0028 80BD     		pop	{r7, pc}
 2270              	.L138:
 2271 002a 00BF     		.align	2
 2272              	.L137:
 2273 002c 00000000 		.word	LaserState3
 2274              		.cfi_endproc
 2275              	.LFE92:
 2276              		.size	Laser3_Toggle, .-Laser3_Toggle
 2277              		.section	.text.turnAllLasersOff,"ax",%progbits
 2278              		.align	2
 2279              		.global	turnAllLasersOff
 2280              		.thumb
 2281              		.thumb_func
 2282              		.type	turnAllLasersOff, %function
 2283              	turnAllLasersOff:
 2284              	.LFB93:
  55:./Laser.h     ****     
  56:./Laser.h     ****     void turnAllLasersOff()
  57:./Laser.h     ****     {
 2285              		.loc 10 57 0
 2286              		.cfi_startproc
 2287              		@ args = 0, pretend = 0, frame = 0
 2288              		@ frame_needed = 1, uses_anonymous_args = 0
 2289 0000 80B5     		push	{r7, lr}
 2290              		.cfi_def_cfa_offset 8
 2291              		.cfi_offset 7, -8
 2292              		.cfi_offset 14, -4
 2293 0002 00AF     		add	r7, sp, #0
 2294              		.cfi_def_cfa_register 7
  58:./Laser.h     ****         Laser1(0);
 2295              		.loc 10 58 0
 2296 0004 0020     		movs	r0, #0
 2297 0006 FFF7FEFF 		bl	Laser1
  59:./Laser.h     ****         Laser2(0);
 2298              		.loc 10 59 0
 2299 000a 0020     		movs	r0, #0
 2300 000c FFF7FEFF 		bl	Laser2
  60:./Laser.h     ****         Laser3(0);
 2301              		.loc 10 60 0
 2302 0010 0020     		movs	r0, #0
ARM GAS  C:\Users\LOCALA~1\AppData\Local\Temp\ccsQji0c.s 			page 55


 2303 0012 FFF7FEFF 		bl	Laser3
  61:./Laser.h     ****     }
 2304              		.loc 10 61 0
 2305 0016 00BF     		nop
 2306 0018 80BD     		pop	{r7, pc}
 2307              		.cfi_endproc
 2308              	.LFE93:
 2309              		.size	turnAllLasersOff, .-turnAllLasersOff
 2310 001a 00BF     		.section	.text.home,"ax",%progbits
 2311              		.align	2
 2312              		.global	home
 2313              		.thumb
 2314              		.thumb_func
 2315              		.type	home, %function
 2316              	home:
 2317              	.LFB94:
 2318              		.file 11 "./home.h"
   1:./home.h      **** /* ========================================
   2:./home.h      ****  *
   3:./home.h      ****  * Copyright YOUR COMPANY, THE YEAR
   4:./home.h      ****  * All Rights Reserved
   5:./home.h      ****  * UNPUBLISHED, LICENSED SOFTWARE.
   6:./home.h      ****  *
   7:./home.h      ****  * CONFIDENTIAL AND PROPRIETARY INFORMATION
   8:./home.h      ****  * WHICH IS THE PROPERTY OF your company.
   9:./home.h      ****  *
  10:./home.h      ****  * ========================================
  11:./home.h      **** */
  12:./home.h      **** 
  13:./home.h      **** #ifndef HOME_H
  14:./home.h      ****     #define HOME_H
  15:./home.h      ****     
  16:./home.h      ****     #include <Laser.h>
  17:./home.h      ****     #include <Nextion.h>
  18:./home.h      ****     
  19:./home.h      ****     void home()
  20:./home.h      ****     {
 2319              		.loc 11 20 0
 2320              		.cfi_startproc
 2321              		@ args = 0, pretend = 0, frame = 0
 2322              		@ frame_needed = 1, uses_anonymous_args = 0
 2323 0000 80B5     		push	{r7, lr}
 2324              		.cfi_def_cfa_offset 8
 2325              		.cfi_offset 7, -8
 2326              		.cfi_offset 14, -4
 2327 0002 00AF     		add	r7, sp, #0
 2328              		.cfi_def_cfa_register 7
  21:./home.h      ****         turnAllLasersOff();
 2329              		.loc 11 21 0
 2330 0004 FFF7FEFF 		bl	turnAllLasersOff
  22:./home.h      ****         CyDelay(10);
 2331              		.loc 11 22 0
 2332 0008 0A20     		movs	r0, #10
 2333 000a FFF7FEFF 		bl	CyDelay
  23:./home.h      ****         Nextion_SendString("page Home");
 2334              		.loc 11 23 0
 2335 000e 0248     		ldr	r0, .L141
ARM GAS  C:\Users\LOCALA~1\AppData\Local\Temp\ccsQji0c.s 			page 56


 2336 0010 FFF7FEFF 		bl	Nextion_SendString
  24:./home.h      ****     }
 2337              		.loc 11 24 0
 2338 0014 00BF     		nop
 2339 0016 80BD     		pop	{r7, pc}
 2340              	.L142:
 2341              		.align	2
 2342              	.L141:
 2343 0018 20000000 		.word	.LC4
 2344              		.cfi_endproc
 2345              	.LFE94:
 2346              		.size	home, .-home
 2347              		.section	.rodata
 2348 00a5 000000   		.align	2
 2349              	.LC14:
 2350 00a8 70616765 		.ascii	"page Parameters\000"
 2350      20506172 
 2350      616D6574 
 2350      65727300 
 2351              		.align	2
 2352              	.LC15:
 2353 00b8 6E5F4E75 		.ascii	"n_Number\000"
 2353      6D626572 
 2353      00
 2354 00c1 000000   		.align	2
 2355              	.LC16:
 2356 00c4 685F4E75 		.ascii	"h_Number\000"
 2356      6D626572 
 2356      00
 2357 00cd 000000   		.align	2
 2358              	.LC17:
 2359 00d0 6E5F5065 		.ascii	"n_Period\000"
 2359      72696F64 
 2359      00
 2360 00d9 000000   		.align	2
 2361              	.LC18:
 2362 00dc 685F5065 		.ascii	"h_Period\000"
 2362      72696F64 
 2362      00
 2363 00e5 000000   		.align	2
 2364              	.LC19:
 2365 00e8 6E5F4D61 		.ascii	"n_MaxTime\000"
 2365      7854696D 
 2365      6500
 2366 00f2 0000     		.align	2
 2367              	.LC20:
 2368 00f4 685F4D61 		.ascii	"h_MaxTime\000"
 2368      7854696D 
 2368      6500
 2369 00fe 0000     		.align	2
 2370              	.LC21:
 2371 0100 6E5F466F 		.ascii	"n_Formation\000"
 2371      726D6174 
 2371      696F6E00 
 2372              		.align	2
 2373              	.LC22:
 2374 010c 685F466F 		.ascii	"h_Formation\000"
ARM GAS  C:\Users\LOCALA~1\AppData\Local\Temp\ccsQji0c.s 			page 57


 2374      726D6174 
 2374      696F6E00 
 2375              		.align	2
 2376              	.LC23:
 2377 0118 6E5F5265 		.ascii	"n_Relaxation\000"
 2377      6C617861 
 2377      74696F6E 
 2377      00
 2378 0125 000000   		.align	2
 2379              	.LC24:
 2380 0128 685F5265 		.ascii	"h_Relaxation\000"
 2380      6C617861 
 2380      74696F6E 
 2380      00
 2381 0135 000000   		.align	2
 2382              	.LC25:
 2383 0138 6E5F436F 		.ascii	"n_Confirmation\000"
 2383      6E666972 
 2383      6D617469 
 2383      6F6E00
 2384 0147 00       		.align	2
 2385              	.LC26:
 2386 0148 685F436F 		.ascii	"h_Confirmation\000"
 2386      6E666972 
 2386      6D617469 
 2386      6F6E00
 2387 0157 00       		.align	2
 2388              	.LC27:
 2389 0158 6E5F5468 		.ascii	"n_Threshold\000"
 2389      72657368 
 2389      6F6C6400 
 2390              		.align	2
 2391              	.LC28:
 2392 0164 685F5468 		.ascii	"h_Threshold\000"
 2392      72657368 
 2392      6F6C6400 
 2393              		.align	2
 2394              	.LC29:
 2395 0170 70616765 		.ascii	"page AddParameters\000"
 2395      20416464 
 2395      50617261 
 2395      6D657465 
 2395      727300
 2396              		.section	.text.ConfigurationOfMeasurement,"ax",%progbits
 2397              		.align	2
 2398              		.global	ConfigurationOfMeasurement
 2399              		.thumb
 2400              		.thumb_func
 2401              		.type	ConfigurationOfMeasurement, %function
 2402              	ConfigurationOfMeasurement:
 2403              	.LFB95:
 2404              		.file 12 "./ConfigurationOfMeasurement.h"
   1:./ConfigurationOfMeasurement.h **** /* ========================================
   2:./ConfigurationOfMeasurement.h ****  *
   3:./ConfigurationOfMeasurement.h ****  * Copyright YOUR COMPANY, THE YEAR
   4:./ConfigurationOfMeasurement.h ****  * All Rights Reserved
   5:./ConfigurationOfMeasurement.h ****  * UNPUBLISHED, LICENSED SOFTWARE.
ARM GAS  C:\Users\LOCALA~1\AppData\Local\Temp\ccsQji0c.s 			page 58


   6:./ConfigurationOfMeasurement.h ****  *
   7:./ConfigurationOfMeasurement.h ****  * CONFIDENTIAL AND PROPRIETARY INFORMATION
   8:./ConfigurationOfMeasurement.h ****  * WHICH IS THE PROPERTY OF your company.
   9:./ConfigurationOfMeasurement.h ****  *
  10:./ConfigurationOfMeasurement.h ****  * ========================================
  11:./ConfigurationOfMeasurement.h **** */
  12:./ConfigurationOfMeasurement.h **** 
  13:./ConfigurationOfMeasurement.h **** #ifndef CONFIGURATIONOFMEASUREMENT_H
  14:./ConfigurationOfMeasurement.h ****     #define CONFIGURATIONOFMEASUREMENT_H
  15:./ConfigurationOfMeasurement.h ****     
  16:./ConfigurationOfMeasurement.h ****     #include <Nextion.h>
  17:./ConfigurationOfMeasurement.h ****     #include <GlobalVariables.h>
  18:./ConfigurationOfMeasurement.h ****     #include <Error.h>
  19:./ConfigurationOfMeasurement.h ****     #include <ProgramParts.h>
  20:./ConfigurationOfMeasurement.h ****     
  21:./ConfigurationOfMeasurement.h ****     #ifdef ChangeFileName
  22:./ConfigurationOfMeasurement.h ****     #include <FileName.h>    
  23:./ConfigurationOfMeasurement.h ****     #endif
  24:./ConfigurationOfMeasurement.h ****     
  25:./ConfigurationOfMeasurement.h ****     int ConfigurationOfMeasurement(const char measurementMode)
  26:./ConfigurationOfMeasurement.h ****     {
 2405              		.loc 12 26 0
 2406              		.cfi_startproc
 2407              		@ args = 0, pretend = 0, frame = 16
 2408              		@ frame_needed = 1, uses_anonymous_args = 0
 2409 0000 80B5     		push	{r7, lr}
 2410              		.cfi_def_cfa_offset 8
 2411              		.cfi_offset 7, -8
 2412              		.cfi_offset 14, -4
 2413 0002 84B0     		sub	sp, sp, #16
 2414              		.cfi_def_cfa_offset 24
 2415 0004 00AF     		add	r7, sp, #0
 2416              		.cfi_def_cfa_register 7
 2417 0006 0346     		mov	r3, r0
 2418 0008 FB71     		strb	r3, [r7, #7]
  27:./ConfigurationOfMeasurement.h ****         // Init
  28:./ConfigurationOfMeasurement.h ****         g_NextionInterrupt = '0';
 2419              		.loc 12 28 0
 2420 000a B24B     		ldr	r3, .L181
 2421 000c 3022     		movs	r2, #48
 2422 000e 1A70     		strb	r2, [r3]
  29:./ConfigurationOfMeasurement.h ****         Nextion_SendString("page Parameters");
 2423              		.loc 12 29 0
 2424 0010 B148     		ldr	r0, .L181+4
 2425 0012 FFF7FEFF 		bl	Nextion_SendString
  30:./ConfigurationOfMeasurement.h ****         
  31:./ConfigurationOfMeasurement.h ****         int number = 0;
 2426              		.loc 12 31 0
 2427 0016 0023     		movs	r3, #0
 2428 0018 FB60     		str	r3, [r7, #12]
  32:./ConfigurationOfMeasurement.h ****         char ActivePage = '1';
 2429              		.loc 12 32 0
 2430 001a 3123     		movs	r3, #49
 2431 001c FB72     		strb	r3, [r7, #11]
  33:./ConfigurationOfMeasurement.h ****         char UpdateNecessary = 1;
 2432              		.loc 12 33 0
 2433 001e 0123     		movs	r3, #1
ARM GAS  C:\Users\LOCALA~1\AppData\Local\Temp\ccsQji0c.s 			page 59


 2434 0020 BB72     		strb	r3, [r7, #10]
  34:./ConfigurationOfMeasurement.h ****         
  35:./ConfigurationOfMeasurement.h ****         switch (measurementMode)
 2435              		.loc 12 35 0
 2436 0022 FB79     		ldrb	r3, [r7, #7]	@ zero_extendqisi2
 2437 0024 4C2B     		cmp	r3, #76
 2438 0026 04D0     		beq	.L145
 2439 0028 542B     		cmp	r3, #84
 2440 002a 0ED0     		beq	.L146
 2441 002c 432B     		cmp	r3, #67
 2442 002e 17D0     		beq	.L147
 2443 0030 23E0     		b	.L179
 2444              	.L145:
  36:./ConfigurationOfMeasurement.h ****         {
  37:./ConfigurationOfMeasurement.h ****             case MODE_LIFETIME:
  38:./ConfigurationOfMeasurement.h ****                 g_NumberOfMeasurements = 300;
 2445              		.loc 12 38 0
 2446 0032 AA4B     		ldr	r3, .L181+8
 2447 0034 4FF49672 		mov	r2, #300
 2448 0038 1A60     		str	r2, [r3]
  39:./ConfigurationOfMeasurement.h ****                 g_SwitchPeriodOfLaser_ms = 50;
 2449              		.loc 12 39 0
 2450 003a A94B     		ldr	r3, .L181+12
 2451 003c 3222     		movs	r2, #50
 2452 003e 1A60     		str	r2, [r3]
  40:./ConfigurationOfMeasurement.h ****                 g_MaxMeasurementTime_min = 300;
 2453              		.loc 12 40 0
 2454 0040 A84B     		ldr	r3, .L181+16
 2455 0042 4FF49672 		mov	r2, #300
 2456 0046 1A60     		str	r2, [r3]
  41:./ConfigurationOfMeasurement.h ****                 break;
 2457              		.loc 12 41 0
 2458 0048 1CE0     		b	.L148
 2459              	.L146:
  42:./ConfigurationOfMeasurement.h ****             case MODE_THICKNESS:
  43:./ConfigurationOfMeasurement.h ****                 g_NumberOfMeasurements = 50;
 2460              		.loc 12 43 0
 2461 004a A44B     		ldr	r3, .L181+8
 2462 004c 3222     		movs	r2, #50
 2463 004e 1A60     		str	r2, [r3]
  44:./ConfigurationOfMeasurement.h ****                 g_SwitchPeriodOfLaser_ms = 500;
 2464              		.loc 12 44 0
 2465 0050 A34B     		ldr	r3, .L181+12
 2466 0052 4FF4FA72 		mov	r2, #500
 2467 0056 1A60     		str	r2, [r3]
  45:./ConfigurationOfMeasurement.h ****                 g_MaxMeasurementTime_min = 60;
 2468              		.loc 12 45 0
 2469 0058 A24B     		ldr	r3, .L181+16
 2470 005a 3C22     		movs	r2, #60
 2471 005c 1A60     		str	r2, [r3]
  46:./ConfigurationOfMeasurement.h ****                 break;
 2472              		.loc 12 46 0
 2473 005e 11E0     		b	.L148
 2474              	.L147:
  47:./ConfigurationOfMeasurement.h ****             case MODE_LIFETIMEANDTHICKNESS:
  48:./ConfigurationOfMeasurement.h ****                 g_NumberOfMeasurements = 300;
 2475              		.loc 12 48 0
ARM GAS  C:\Users\LOCALA~1\AppData\Local\Temp\ccsQji0c.s 			page 60


 2476 0060 9E4B     		ldr	r3, .L181+8
 2477 0062 4FF49672 		mov	r2, #300
 2478 0066 1A60     		str	r2, [r3]
  49:./ConfigurationOfMeasurement.h ****                 g_SwitchPeriodOfLaser_ms = 500;
 2479              		.loc 12 49 0
 2480 0068 9D4B     		ldr	r3, .L181+12
 2481 006a 4FF4FA72 		mov	r2, #500
 2482 006e 1A60     		str	r2, [r3]
  50:./ConfigurationOfMeasurement.h ****                 g_MaxMeasurementTime_min = 300;
 2483              		.loc 12 50 0
 2484 0070 9C4B     		ldr	r3, .L181+16
 2485 0072 4FF49672 		mov	r2, #300
 2486 0076 1A60     		str	r2, [r3]
  51:./ConfigurationOfMeasurement.h ****                 break;
 2487              		.loc 12 51 0
 2488 0078 04E0     		b	.L148
 2489              	.L179:
  52:./ConfigurationOfMeasurement.h ****             default:
  53:./ConfigurationOfMeasurement.h ****                 setError(1);
 2490              		.loc 12 53 0
 2491 007a 0120     		movs	r0, #1
 2492 007c FFF7FEFF 		bl	setError
  54:./ConfigurationOfMeasurement.h ****                 return 1;
 2493              		.loc 12 54 0
 2494 0080 0123     		movs	r3, #1
 2495 0082 D6E1     		b	.L149
 2496              	.L148:
  55:./ConfigurationOfMeasurement.h ****                 break;
  56:./ConfigurationOfMeasurement.h ****         }
  57:./ConfigurationOfMeasurement.h ****         g_FormationTime_ms = 5000;
 2497              		.loc 12 57 0
 2498 0084 984B     		ldr	r3, .L181+20
 2499 0086 41F28832 		movw	r2, #5000
 2500 008a 1A60     		str	r2, [r3]
  58:./ConfigurationOfMeasurement.h ****         g_RelaxationTime_ms = 5000;
 2501              		.loc 12 58 0
 2502 008c 974B     		ldr	r3, .L181+24
 2503 008e 41F28832 		movw	r2, #5000
 2504 0092 1A60     		str	r2, [r3]
  59:./ConfigurationOfMeasurement.h ****         g_ConfirmationTime_ms = 5000;
 2505              		.loc 12 59 0
 2506 0094 964B     		ldr	r3, .L181+28
 2507 0096 41F28832 		movw	r2, #5000
 2508 009a 1A60     		str	r2, [r3]
  60:./ConfigurationOfMeasurement.h ****         g_ThresholdValue_mV = 55; 
 2509              		.loc 12 60 0
 2510 009c 954B     		ldr	r3, .L181+32
 2511 009e 3722     		movs	r2, #55
 2512 00a0 1A60     		str	r2, [r3]
 2513              	.L178:
  61:./ConfigurationOfMeasurement.h ****         
  62:./ConfigurationOfMeasurement.h ****         while (1)
  63:./ConfigurationOfMeasurement.h ****         {
  64:./ConfigurationOfMeasurement.h ****             if (UpdateNecessary)
 2514              		.loc 12 64 0
 2515 00a2 BB7A     		ldrb	r3, [r7, #10]	@ zero_extendqisi2
 2516 00a4 002B     		cmp	r3, #0
ARM GAS  C:\Users\LOCALA~1\AppData\Local\Temp\ccsQji0c.s 			page 61


 2517 00a6 7ED0     		beq	.L150
  65:./ConfigurationOfMeasurement.h ****             {
  66:./ConfigurationOfMeasurement.h ****                 UpdateNecessary = 0;   
 2518              		.loc 12 66 0
 2519 00a8 0023     		movs	r3, #0
 2520 00aa BB72     		strb	r3, [r7, #10]
  67:./ConfigurationOfMeasurement.h ****                 // send the most recent values to the sliders
  68:./ConfigurationOfMeasurement.h ****                 if (ActivePage == '1')                  // First parameter page
 2521              		.loc 12 68 0
 2522 00ac FB7A     		ldrb	r3, [r7, #11]	@ zero_extendqisi2
 2523 00ae 312B     		cmp	r3, #49
 2524 00b0 37D1     		bne	.L151
  69:./ConfigurationOfMeasurement.h ****                 {
  70:./ConfigurationOfMeasurement.h ****                     Nextion_SendValueToValueBox("n_Number", g_NumberOfMeasurements);
 2525              		.loc 12 70 0
 2526 00b2 8A4B     		ldr	r3, .L181+8
 2527 00b4 1B68     		ldr	r3, [r3]
 2528 00b6 1946     		mov	r1, r3
 2529 00b8 8F48     		ldr	r0, .L181+36
 2530 00ba FFF7FEFF 		bl	Nextion_SendValueToValueBox
  71:./ConfigurationOfMeasurement.h ****                     Nextion_SendValueToValueBox("h_Number", g_NumberOfMeasurements/SliderFactor_Num
 2531              		.loc 12 71 0
 2532 00be 874B     		ldr	r3, .L181+8
 2533 00c0 1B68     		ldr	r3, [r3]
 2534 00c2 8E4A     		ldr	r2, .L181+40
 2535 00c4 82FB0312 		smull	r1, r2, r2, r3
 2536 00c8 9210     		asrs	r2, r2, #2
 2537 00ca DB17     		asrs	r3, r3, #31
 2538 00cc D31A     		subs	r3, r2, r3
 2539 00ce 1946     		mov	r1, r3
 2540 00d0 8B48     		ldr	r0, .L181+44
 2541 00d2 FFF7FEFF 		bl	Nextion_SendValueToValueBox
  72:./ConfigurationOfMeasurement.h ****                     Nextion_SendValueToValueBox("n_Period", g_SwitchPeriodOfLaser_ms);
 2542              		.loc 12 72 0
 2543 00d6 824B     		ldr	r3, .L181+12
 2544 00d8 1B68     		ldr	r3, [r3]
 2545 00da 1946     		mov	r1, r3
 2546 00dc 8948     		ldr	r0, .L181+48
 2547 00de FFF7FEFF 		bl	Nextion_SendValueToValueBox
  73:./ConfigurationOfMeasurement.h ****                     Nextion_SendValueToValueBox("h_Period", g_SwitchPeriodOfLaser_ms/SliderFactor_S
 2548              		.loc 12 73 0
 2549 00e2 7F4B     		ldr	r3, .L181+12
 2550 00e4 1B68     		ldr	r3, [r3]
 2551 00e6 854A     		ldr	r2, .L181+40
 2552 00e8 82FB0312 		smull	r1, r2, r2, r3
 2553 00ec 9210     		asrs	r2, r2, #2
 2554 00ee DB17     		asrs	r3, r3, #31
 2555 00f0 D31A     		subs	r3, r2, r3
 2556 00f2 1946     		mov	r1, r3
 2557 00f4 8448     		ldr	r0, .L181+52
 2558 00f6 FFF7FEFF 		bl	Nextion_SendValueToValueBox
  74:./ConfigurationOfMeasurement.h ****                     Nextion_SendValueToValueBox("n_MaxTime", g_MaxMeasurementTime_min);
 2559              		.loc 12 74 0
 2560 00fa 7A4B     		ldr	r3, .L181+16
 2561 00fc 1B68     		ldr	r3, [r3]
 2562 00fe 1946     		mov	r1, r3
 2563 0100 8248     		ldr	r0, .L181+56
ARM GAS  C:\Users\LOCALA~1\AppData\Local\Temp\ccsQji0c.s 			page 62


 2564 0102 FFF7FEFF 		bl	Nextion_SendValueToValueBox
  75:./ConfigurationOfMeasurement.h ****                     Nextion_SendValueToValueBox("h_MaxTime", g_MaxMeasurementTime_min/SliderFactor_
 2565              		.loc 12 75 0
 2566 0106 774B     		ldr	r3, .L181+16
 2567 0108 1B68     		ldr	r3, [r3]
 2568 010a 814A     		ldr	r2, .L181+60
 2569 010c 82FB0312 		smull	r1, r2, r2, r3
 2570 0110 1A44     		add	r2, r2, r3
 2571 0112 D210     		asrs	r2, r2, #3
 2572 0114 DB17     		asrs	r3, r3, #31
 2573 0116 D31A     		subs	r3, r2, r3
 2574 0118 1946     		mov	r1, r3
 2575 011a 7E48     		ldr	r0, .L181+64
 2576 011c FFF7FEFF 		bl	Nextion_SendValueToValueBox
 2577 0120 41E0     		b	.L150
 2578              	.L151:
  76:./ConfigurationOfMeasurement.h ****                     }
  77:./ConfigurationOfMeasurement.h ****                 else                                    // Additional parameter page
  78:./ConfigurationOfMeasurement.h ****                 {
  79:./ConfigurationOfMeasurement.h ****                     Nextion_SendValueToValueBox("n_Formation", g_FormationTime_ms);
 2579              		.loc 12 79 0
 2580 0122 714B     		ldr	r3, .L181+20
 2581 0124 1B68     		ldr	r3, [r3]
 2582 0126 1946     		mov	r1, r3
 2583 0128 7B48     		ldr	r0, .L181+68
 2584 012a FFF7FEFF 		bl	Nextion_SendValueToValueBox
  80:./ConfigurationOfMeasurement.h ****                     Nextion_SendValueToValueBox("h_Formation", g_FormationTime_ms/SliderFactor_Form
 2585              		.loc 12 80 0
 2586 012e 6E4B     		ldr	r3, .L181+20
 2587 0130 1B68     		ldr	r3, [r3]
 2588 0132 7A4A     		ldr	r2, .L181+72
 2589 0134 82FB0312 		smull	r1, r2, r2, r3
 2590 0138 5211     		asrs	r2, r2, #5
 2591 013a DB17     		asrs	r3, r3, #31
 2592 013c D31A     		subs	r3, r2, r3
 2593 013e 1946     		mov	r1, r3
 2594 0140 7748     		ldr	r0, .L181+76
 2595 0142 FFF7FEFF 		bl	Nextion_SendValueToValueBox
  81:./ConfigurationOfMeasurement.h ****                     Nextion_SendValueToValueBox("n_Relaxation", g_RelaxationTime_ms);
 2596              		.loc 12 81 0
 2597 0146 694B     		ldr	r3, .L181+24
 2598 0148 1B68     		ldr	r3, [r3]
 2599 014a 1946     		mov	r1, r3
 2600 014c 7548     		ldr	r0, .L181+80
 2601 014e FFF7FEFF 		bl	Nextion_SendValueToValueBox
  82:./ConfigurationOfMeasurement.h ****                     Nextion_SendValueToValueBox("h_Relaxation", g_RelaxationTime_ms/SliderFactor_Re
 2602              		.loc 12 82 0
 2603 0152 664B     		ldr	r3, .L181+24
 2604 0154 1B68     		ldr	r3, [r3]
 2605 0156 714A     		ldr	r2, .L181+72
 2606 0158 82FB0312 		smull	r1, r2, r2, r3
 2607 015c 1211     		asrs	r2, r2, #4
 2608 015e DB17     		asrs	r3, r3, #31
 2609 0160 D31A     		subs	r3, r2, r3
 2610 0162 1946     		mov	r1, r3
 2611 0164 7048     		ldr	r0, .L181+84
 2612 0166 FFF7FEFF 		bl	Nextion_SendValueToValueBox
ARM GAS  C:\Users\LOCALA~1\AppData\Local\Temp\ccsQji0c.s 			page 63


  83:./ConfigurationOfMeasurement.h ****                     Nextion_SendValueToValueBox("n_Confirmation", g_ConfirmationTime_ms);
 2613              		.loc 12 83 0
 2614 016a 614B     		ldr	r3, .L181+28
 2615 016c 1B68     		ldr	r3, [r3]
 2616 016e 1946     		mov	r1, r3
 2617 0170 6E48     		ldr	r0, .L181+88
 2618 0172 FFF7FEFF 		bl	Nextion_SendValueToValueBox
  84:./ConfigurationOfMeasurement.h ****                     Nextion_SendValueToValueBox("h_Confirmation", g_ConfirmationTime_ms/SliderFacto
 2619              		.loc 12 84 0
 2620 0176 5E4B     		ldr	r3, .L181+28
 2621 0178 1B68     		ldr	r3, [r3]
 2622 017a 684A     		ldr	r2, .L181+72
 2623 017c 82FB0312 		smull	r1, r2, r2, r3
 2624 0180 5211     		asrs	r2, r2, #5
 2625 0182 DB17     		asrs	r3, r3, #31
 2626 0184 D31A     		subs	r3, r2, r3
 2627 0186 1946     		mov	r1, r3
 2628 0188 6948     		ldr	r0, .L181+92
 2629 018a FFF7FEFF 		bl	Nextion_SendValueToValueBox
  85:./ConfigurationOfMeasurement.h ****                     Nextion_SendValueToValueBox("n_Threshold", g_ThresholdValue_mV);
 2630              		.loc 12 85 0
 2631 018e 594B     		ldr	r3, .L181+32
 2632 0190 1B68     		ldr	r3, [r3]
 2633 0192 1946     		mov	r1, r3
 2634 0194 6748     		ldr	r0, .L181+96
 2635 0196 FFF7FEFF 		bl	Nextion_SendValueToValueBox
  86:./ConfigurationOfMeasurement.h ****                     Nextion_SendValueToValueBox("h_Threshold", g_ThresholdValue_mV/SliderFactor_Thr
 2636              		.loc 12 86 0
 2637 019a 564B     		ldr	r3, .L181+32
 2638 019c 1B68     		ldr	r3, [r3]
 2639 019e 1946     		mov	r1, r3
 2640 01a0 6548     		ldr	r0, .L181+100
 2641 01a2 FFF7FEFF 		bl	Nextion_SendValueToValueBox
 2642              	.L150:
  87:./ConfigurationOfMeasurement.h ****                 }
  88:./ConfigurationOfMeasurement.h ****             }
  89:./ConfigurationOfMeasurement.h ****             
  90:./ConfigurationOfMeasurement.h **** 
  91:./ConfigurationOfMeasurement.h ****             if (g_NextionInterrupt != '0')
 2643              		.loc 12 91 0
 2644 01a6 4B4B     		ldr	r3, .L181
 2645 01a8 1B78     		ldrb	r3, [r3]	@ zero_extendqisi2
 2646 01aa 302B     		cmp	r3, #48
 2647 01ac 02D0     		beq	.L152
  92:./ConfigurationOfMeasurement.h ****             {
  93:./ConfigurationOfMeasurement.h ****                 // Get Number from slider
  94:./ConfigurationOfMeasurement.h ****                number = Nextion_GetSliderValue();
 2648              		.loc 12 94 0
 2649 01ae FFF7FEFF 		bl	Nextion_GetSliderValue
 2650 01b2 F860     		str	r0, [r7, #12]
 2651              	.L152:
  95:./ConfigurationOfMeasurement.h ****             }
  96:./ConfigurationOfMeasurement.h ****             switch (g_NextionInterrupt)
 2652              		.loc 12 96 0
 2653 01b4 474B     		ldr	r3, .L181
 2654 01b6 1B78     		ldrb	r3, [r3]	@ zero_extendqisi2
 2655 01b8 303B     		subs	r3, r3, #48
ARM GAS  C:\Users\LOCALA~1\AppData\Local\Temp\ccsQji0c.s 			page 64


 2656 01ba 292B     		cmp	r3, #41
 2657 01bc 00F22C81 		bhi	.L153
 2658 01c0 01A2     		adr	r2, .L155
 2659 01c2 52F823F0 		ldr	pc, [r2, r3, lsl #2]
 2660 01c6 00BF     		.p2align 2
 2661              	.L155:
 2662 01c8 23040000 		.word	.L180+1
 2663 01cc 19040000 		.word	.L153+1
 2664 01d0 19040000 		.word	.L153+1
 2665 01d4 19040000 		.word	.L153+1
 2666 01d8 19040000 		.word	.L153+1
 2667 01dc 19040000 		.word	.L153+1
 2668 01e0 19040000 		.word	.L153+1
 2669 01e4 19040000 		.word	.L153+1
 2670 01e8 19040000 		.word	.L153+1
 2671 01ec 19040000 		.word	.L153+1
 2672 01f0 19040000 		.word	.L153+1
 2673 01f4 19040000 		.word	.L153+1
 2674 01f8 19040000 		.word	.L153+1
 2675 01fc 19040000 		.word	.L153+1
 2676 0200 19040000 		.word	.L153+1
 2677 0204 19040000 		.word	.L153+1
 2678 0208 19040000 		.word	.L153+1
 2679 020c 19040000 		.word	.L153+1
 2680 0210 19040000 		.word	.L153+1
 2681 0214 AB030000 		.word	.L156+1
 2682 0218 19040000 		.word	.L153+1
 2683 021c 19040000 		.word	.L153+1
 2684 0220 61030000 		.word	.L157+1
 2685 0224 19040000 		.word	.L153+1
 2686 0228 15040000 		.word	.L158+1
 2687 022c 19040000 		.word	.L153+1
 2688 0230 19040000 		.word	.L153+1
 2689 0234 19040000 		.word	.L153+1
 2690 0238 19040000 		.word	.L153+1
 2691 023c 3D030000 		.word	.L159+1
 2692 0240 71020000 		.word	.L160+1
 2693 0244 19040000 		.word	.L153+1
 2694 0248 99020000 		.word	.L161+1
 2695 024c 19040000 		.word	.L153+1
 2696 0250 87030000 		.word	.L162+1
 2697 0254 19040000 		.word	.L153+1
 2698 0258 D1030000 		.word	.L163+1
 2699 025c 19040000 		.word	.L153+1
 2700 0260 19040000 		.word	.L153+1
 2701 0264 19040000 		.word	.L153+1
 2702 0268 EF030000 		.word	.L164+1
 2703 026c 11040000 		.word	.L165+1
 2704              		.p2align 1
 2705              	.L160:
  97:./ConfigurationOfMeasurement.h ****             {
  98:./ConfigurationOfMeasurement.h ****                 case '0':
  99:./ConfigurationOfMeasurement.h ****                     // Do nothing
 100:./ConfigurationOfMeasurement.h ****                     break;
 101:./ConfigurationOfMeasurement.h ****                 
 102:./ConfigurationOfMeasurement.h ****                 case SLIDER_NUMBER:
 103:./ConfigurationOfMeasurement.h ****                     if (number == 0)
ARM GAS  C:\Users\LOCALA~1\AppData\Local\Temp\ccsQji0c.s 			page 65


 2706              		.loc 12 103 0
 2707 0270 FB68     		ldr	r3, [r7, #12]
 2708 0272 002B     		cmp	r3, #0
 2709 0274 01D1     		bne	.L167
 104:./ConfigurationOfMeasurement.h ****                     {
 105:./ConfigurationOfMeasurement.h ****                         number = 1;             // minimum value: 10 lamellas
 2710              		.loc 12 105 0
 2711 0276 0123     		movs	r3, #1
 2712 0278 FB60     		str	r3, [r7, #12]
 2713              	.L167:
 106:./ConfigurationOfMeasurement.h ****                     }
 107:./ConfigurationOfMeasurement.h ****                     g_NumberOfMeasurements = number * SliderFactor_NumberOfMeasurements;
 2714              		.loc 12 107 0
 2715 027a FA68     		ldr	r2, [r7, #12]
 2716 027c 1346     		mov	r3, r2
 2717 027e 9B00     		lsls	r3, r3, #2
 2718 0280 1344     		add	r3, r3, r2
 2719 0282 5B00     		lsls	r3, r3, #1
 2720 0284 1A46     		mov	r2, r3
 2721 0286 154B     		ldr	r3, .L181+8
 2722 0288 1A60     		str	r2, [r3]
 108:./ConfigurationOfMeasurement.h ****                     Nextion_SendValueToValueBox("n_Number", g_NumberOfMeasurements);
 2723              		.loc 12 108 0
 2724 028a 144B     		ldr	r3, .L181+8
 2725 028c 1B68     		ldr	r3, [r3]
 2726 028e 1946     		mov	r1, r3
 2727 0290 1948     		ldr	r0, .L181+36
 2728 0292 FFF7FEFF 		bl	Nextion_SendValueToValueBox
 109:./ConfigurationOfMeasurement.h ****                     break;
 2729              		.loc 12 109 0
 2730 0296 C5E0     		b	.L166
 2731              	.L161:
 110:./ConfigurationOfMeasurement.h ****                 
 111:./ConfigurationOfMeasurement.h ****                 case SLIDER_PERIOD:
 112:./ConfigurationOfMeasurement.h ****                     if (measurementMode != MODE_LIFETIME)
 2732              		.loc 12 112 0
 2733 0298 FB79     		ldrb	r3, [r7, #7]	@ zero_extendqisi2
 2734 029a 4C2B     		cmp	r3, #76
 2735 029c 05D0     		beq	.L168
 113:./ConfigurationOfMeasurement.h ****                     {
 114:./ConfigurationOfMeasurement.h ****                         if (number <= 50)
 2736              		.loc 12 114 0
 2737 029e FB68     		ldr	r3, [r7, #12]
 2738 02a0 322B     		cmp	r3, #50
 2739 02a2 07DC     		bgt	.L170
 115:./ConfigurationOfMeasurement.h ****                         {
 116:./ConfigurationOfMeasurement.h ****                             number = 50;             // minimum value: 500 ms, less is not possible
 2740              		.loc 12 116 0
 2741 02a4 3223     		movs	r3, #50
 2742 02a6 FB60     		str	r3, [r7, #12]
 2743 02a8 04E0     		b	.L170
 2744              	.L168:
 117:./ConfigurationOfMeasurement.h ****                         }
 118:./ConfigurationOfMeasurement.h ****                     }
 119:./ConfigurationOfMeasurement.h ****                     else
 120:./ConfigurationOfMeasurement.h ****                     {
 121:./ConfigurationOfMeasurement.h ****                         if (number == 0)
ARM GAS  C:\Users\LOCALA~1\AppData\Local\Temp\ccsQji0c.s 			page 66


 2745              		.loc 12 121 0
 2746 02aa FB68     		ldr	r3, [r7, #12]
 2747 02ac 002B     		cmp	r3, #0
 2748 02ae 01D1     		bne	.L170
 122:./ConfigurationOfMeasurement.h ****                         {
 123:./ConfigurationOfMeasurement.h ****                             number = 1;             // minimum value: 10 ms
 2749              		.loc 12 123 0
 2750 02b0 0123     		movs	r3, #1
 2751 02b2 FB60     		str	r3, [r7, #12]
 2752              	.L170:
 124:./ConfigurationOfMeasurement.h ****                         }
 125:./ConfigurationOfMeasurement.h ****                     }
 126:./ConfigurationOfMeasurement.h ****                     g_SwitchPeriodOfLaser_ms = number * SliderFactor_SwitchPeriodOfLaser;
 2753              		.loc 12 126 0
 2754 02b4 FA68     		ldr	r2, [r7, #12]
 2755 02b6 1346     		mov	r3, r2
 2756 02b8 9B00     		lsls	r3, r3, #2
 2757 02ba 1344     		add	r3, r3, r2
 2758 02bc 5B00     		lsls	r3, r3, #1
 2759 02be 1A46     		mov	r2, r3
 2760 02c0 074B     		ldr	r3, .L181+12
 2761 02c2 1A60     		str	r2, [r3]
 127:./ConfigurationOfMeasurement.h ****                     Nextion_SendValueToValueBox("n_Period", g_SwitchPeriodOfLaser_ms);
 2762              		.loc 12 127 0
 2763 02c4 064B     		ldr	r3, .L181+12
 2764 02c6 1B68     		ldr	r3, [r3]
 2765 02c8 1946     		mov	r1, r3
 2766 02ca 0E48     		ldr	r0, .L181+48
 2767 02cc FFF7FEFF 		bl	Nextion_SendValueToValueBox
 128:./ConfigurationOfMeasurement.h ****                     break;
 2768              		.loc 12 128 0
 2769 02d0 A8E0     		b	.L166
 2770              	.L182:
 2771 02d2 00BF     		.align	2
 2772              	.L181:
 2773 02d4 00000000 		.word	g_NextionInterrupt
 2774 02d8 A8000000 		.word	.LC14
 2775 02dc 00000000 		.word	g_NumberOfMeasurements
 2776 02e0 00000000 		.word	g_SwitchPeriodOfLaser_ms
 2777 02e4 00000000 		.word	g_MaxMeasurementTime_min
 2778 02e8 00000000 		.word	g_FormationTime_ms
 2779 02ec 00000000 		.word	g_RelaxationTime_ms
 2780 02f0 00000000 		.word	g_ConfirmationTime_ms
 2781 02f4 00000000 		.word	g_ThresholdValue_mV
 2782 02f8 B8000000 		.word	.LC15
 2783 02fc 67666666 		.word	1717986919
 2784 0300 C4000000 		.word	.LC16
 2785 0304 D0000000 		.word	.LC17
 2786 0308 DC000000 		.word	.LC18
 2787 030c E8000000 		.word	.LC19
 2788 0310 89888888 		.word	-2004318071
 2789 0314 F4000000 		.word	.LC20
 2790 0318 00010000 		.word	.LC21
 2791 031c D34D6210 		.word	274877907
 2792 0320 0C010000 		.word	.LC22
 2793 0324 18010000 		.word	.LC23
 2794 0328 28010000 		.word	.LC24
ARM GAS  C:\Users\LOCALA~1\AppData\Local\Temp\ccsQji0c.s 			page 67


 2795 032c 38010000 		.word	.LC25
 2796 0330 48010000 		.word	.LC26
 2797 0334 58010000 		.word	.LC27
 2798 0338 64010000 		.word	.LC28
 2799              	.L159:
 129:./ConfigurationOfMeasurement.h ****                 
 130:./ConfigurationOfMeasurement.h ****                 case SLIDER_MAXTIME:
 131:./ConfigurationOfMeasurement.h ****                     if (number == 0)
 2800              		.loc 12 131 0
 2801 033c FB68     		ldr	r3, [r7, #12]
 2802 033e 002B     		cmp	r3, #0
 2803 0340 01D1     		bne	.L171
 132:./ConfigurationOfMeasurement.h ****                     {
 133:./ConfigurationOfMeasurement.h ****                         number = 1;             // minimum value: 15 min
 2804              		.loc 12 133 0
 2805 0342 0123     		movs	r3, #1
 2806 0344 FB60     		str	r3, [r7, #12]
 2807              	.L171:
 134:./ConfigurationOfMeasurement.h ****                     }
 135:./ConfigurationOfMeasurement.h ****                     g_MaxMeasurementTime_min = number * SliderFactor_MaxMeasurementTime;
 2808              		.loc 12 135 0
 2809 0346 FA68     		ldr	r2, [r7, #12]
 2810 0348 1346     		mov	r3, r2
 2811 034a 1B01     		lsls	r3, r3, #4
 2812 034c 9B1A     		subs	r3, r3, r2
 2813 034e 3B4A     		ldr	r2, .L183
 2814 0350 1360     		str	r3, [r2]
 136:./ConfigurationOfMeasurement.h ****                     Nextion_SendValueToValueBox("n_MaxTime", g_MaxMeasurementTime_min);
 2815              		.loc 12 136 0
 2816 0352 3A4B     		ldr	r3, .L183
 2817 0354 1B68     		ldr	r3, [r3]
 2818 0356 1946     		mov	r1, r3
 2819 0358 3948     		ldr	r0, .L183+4
 2820 035a FFF7FEFF 		bl	Nextion_SendValueToValueBox
 137:./ConfigurationOfMeasurement.h ****                     
 138:./ConfigurationOfMeasurement.h ****                     break;
 2821              		.loc 12 138 0
 2822 035e 61E0     		b	.L166
 2823              	.L157:
 139:./ConfigurationOfMeasurement.h ****                 
 140:./ConfigurationOfMeasurement.h ****                 case SLIDER_FORMATION:
 141:./ConfigurationOfMeasurement.h ****                     if (number == 0)
 2824              		.loc 12 141 0
 2825 0360 FB68     		ldr	r3, [r7, #12]
 2826 0362 002B     		cmp	r3, #0
 2827 0364 01D1     		bne	.L172
 142:./ConfigurationOfMeasurement.h ****                     {
 143:./ConfigurationOfMeasurement.h ****                         number = 1;             // minimum value: 500 ms
 2828              		.loc 12 143 0
 2829 0366 0123     		movs	r3, #1
 2830 0368 FB60     		str	r3, [r7, #12]
 2831              	.L172:
 144:./ConfigurationOfMeasurement.h ****                     }
 145:./ConfigurationOfMeasurement.h ****                     g_FormationTime_ms = number * SliderFactor_FormationTime;
 2832              		.loc 12 145 0
 2833 036a FB68     		ldr	r3, [r7, #12]
 2834 036c 4FF4FA72 		mov	r2, #500
ARM GAS  C:\Users\LOCALA~1\AppData\Local\Temp\ccsQji0c.s 			page 68


 2835 0370 02FB03F3 		mul	r3, r2, r3
 2836 0374 334A     		ldr	r2, .L183+8
 2837 0376 1360     		str	r3, [r2]
 146:./ConfigurationOfMeasurement.h ****                     Nextion_SendValueToValueBox("n_Formation", g_FormationTime_ms);
 2838              		.loc 12 146 0
 2839 0378 324B     		ldr	r3, .L183+8
 2840 037a 1B68     		ldr	r3, [r3]
 2841 037c 1946     		mov	r1, r3
 2842 037e 3248     		ldr	r0, .L183+12
 2843 0380 FFF7FEFF 		bl	Nextion_SendValueToValueBox
 147:./ConfigurationOfMeasurement.h ****                     
 148:./ConfigurationOfMeasurement.h ****                     break;
 2844              		.loc 12 148 0
 2845 0384 4EE0     		b	.L166
 2846              	.L162:
 149:./ConfigurationOfMeasurement.h ****                 
 150:./ConfigurationOfMeasurement.h ****                 case SLIDER_RELAXATION:
 151:./ConfigurationOfMeasurement.h ****                     if (number == 0)
 2847              		.loc 12 151 0
 2848 0386 FB68     		ldr	r3, [r7, #12]
 2849 0388 002B     		cmp	r3, #0
 2850 038a 01D1     		bne	.L173
 152:./ConfigurationOfMeasurement.h ****                     {
 153:./ConfigurationOfMeasurement.h ****                         number = 1;             // minimum value: 250 ms
 2851              		.loc 12 153 0
 2852 038c 0123     		movs	r3, #1
 2853 038e FB60     		str	r3, [r7, #12]
 2854              	.L173:
 154:./ConfigurationOfMeasurement.h ****                     }
 155:./ConfigurationOfMeasurement.h ****                     g_RelaxationTime_ms = number * SliderFactor_RelaxationTime;
 2855              		.loc 12 155 0
 2856 0390 FB68     		ldr	r3, [r7, #12]
 2857 0392 FA22     		movs	r2, #250
 2858 0394 02FB03F3 		mul	r3, r2, r3
 2859 0398 2C4A     		ldr	r2, .L183+16
 2860 039a 1360     		str	r3, [r2]
 156:./ConfigurationOfMeasurement.h ****                     Nextion_SendValueToValueBox("n_Relaxation", g_RelaxationTime_ms);
 2861              		.loc 12 156 0
 2862 039c 2B4B     		ldr	r3, .L183+16
 2863 039e 1B68     		ldr	r3, [r3]
 2864 03a0 1946     		mov	r1, r3
 2865 03a2 2B48     		ldr	r0, .L183+20
 2866 03a4 FFF7FEFF 		bl	Nextion_SendValueToValueBox
 157:./ConfigurationOfMeasurement.h ****                     
 158:./ConfigurationOfMeasurement.h ****                     break;
 2867              		.loc 12 158 0
 2868 03a8 3CE0     		b	.L166
 2869              	.L156:
 159:./ConfigurationOfMeasurement.h ****                 
 160:./ConfigurationOfMeasurement.h ****                 case SLIDER_CONFIRMATION:
 161:./ConfigurationOfMeasurement.h ****                     if (number == 0)
 2870              		.loc 12 161 0
 2871 03aa FB68     		ldr	r3, [r7, #12]
 2872 03ac 002B     		cmp	r3, #0
 2873 03ae 01D1     		bne	.L174
 162:./ConfigurationOfMeasurement.h ****                     {
 163:./ConfigurationOfMeasurement.h ****                         number = 1;             // minimum value: 500 ms
ARM GAS  C:\Users\LOCALA~1\AppData\Local\Temp\ccsQji0c.s 			page 69


 2874              		.loc 12 163 0
 2875 03b0 0123     		movs	r3, #1
 2876 03b2 FB60     		str	r3, [r7, #12]
 2877              	.L174:
 164:./ConfigurationOfMeasurement.h ****                     }
 165:./ConfigurationOfMeasurement.h ****                     g_ConfirmationTime_ms = number * SliderFactor_ConfirmationTime;
 2878              		.loc 12 165 0
 2879 03b4 FB68     		ldr	r3, [r7, #12]
 2880 03b6 4FF4FA72 		mov	r2, #500
 2881 03ba 02FB03F3 		mul	r3, r2, r3
 2882 03be 254A     		ldr	r2, .L183+24
 2883 03c0 1360     		str	r3, [r2]
 166:./ConfigurationOfMeasurement.h ****                     Nextion_SendValueToValueBox("n_Confirmation", g_ConfirmationTime_ms);
 2884              		.loc 12 166 0
 2885 03c2 244B     		ldr	r3, .L183+24
 2886 03c4 1B68     		ldr	r3, [r3]
 2887 03c6 1946     		mov	r1, r3
 2888 03c8 2348     		ldr	r0, .L183+28
 2889 03ca FFF7FEFF 		bl	Nextion_SendValueToValueBox
 167:./ConfigurationOfMeasurement.h ****                     
 168:./ConfigurationOfMeasurement.h ****                     break;
 2890              		.loc 12 168 0
 2891 03ce 29E0     		b	.L166
 2892              	.L163:
 169:./ConfigurationOfMeasurement.h ****                 
 170:./ConfigurationOfMeasurement.h ****                 case SLIDER_THRESHOLD:
 171:./ConfigurationOfMeasurement.h ****                     if (number == 0)
 2893              		.loc 12 171 0
 2894 03d0 FB68     		ldr	r3, [r7, #12]
 2895 03d2 002B     		cmp	r3, #0
 2896 03d4 01D1     		bne	.L175
 172:./ConfigurationOfMeasurement.h ****                     {
 173:./ConfigurationOfMeasurement.h ****                         number = 1;             // minimum value: 1 mV
 2897              		.loc 12 173 0
 2898 03d6 0123     		movs	r3, #1
 2899 03d8 FB60     		str	r3, [r7, #12]
 2900              	.L175:
 174:./ConfigurationOfMeasurement.h ****                     }
 175:./ConfigurationOfMeasurement.h ****                     g_ThresholdValue_mV = number * SliderFactor_ThresholdValue;
 2901              		.loc 12 175 0
 2902 03da 204A     		ldr	r2, .L183+32
 2903 03dc FB68     		ldr	r3, [r7, #12]
 2904 03de 1360     		str	r3, [r2]
 176:./ConfigurationOfMeasurement.h ****                     Nextion_SendValueToValueBox("n_Threshold", g_ThresholdValue_mV);
 2905              		.loc 12 176 0
 2906 03e0 1E4B     		ldr	r3, .L183+32
 2907 03e2 1B68     		ldr	r3, [r3]
 2908 03e4 1946     		mov	r1, r3
 2909 03e6 1E48     		ldr	r0, .L183+36
 2910 03e8 FFF7FEFF 		bl	Nextion_SendValueToValueBox
 177:./ConfigurationOfMeasurement.h ****                     
 178:./ConfigurationOfMeasurement.h ****                     break;
 2911              		.loc 12 178 0
 2912 03ec 1AE0     		b	.L166
 2913              	.L164:
 179:./ConfigurationOfMeasurement.h ****                 case BUTTON_ADDITIONALSETTINGS:
 180:./ConfigurationOfMeasurement.h ****                     if (ActivePage == '1')
ARM GAS  C:\Users\LOCALA~1\AppData\Local\Temp\ccsQji0c.s 			page 70


 2914              		.loc 12 180 0
 2915 03ee FB7A     		ldrb	r3, [r7, #11]	@ zero_extendqisi2
 2916 03f0 312B     		cmp	r3, #49
 2917 03f2 05D1     		bne	.L176
 181:./ConfigurationOfMeasurement.h ****                     {
 182:./ConfigurationOfMeasurement.h ****                         ActivePage = '2';
 2918              		.loc 12 182 0
 2919 03f4 3223     		movs	r3, #50
 2920 03f6 FB72     		strb	r3, [r7, #11]
 183:./ConfigurationOfMeasurement.h ****                         Nextion_SendString("page AddParameters");
 2921              		.loc 12 183 0
 2922 03f8 1A48     		ldr	r0, .L183+40
 2923 03fa FFF7FEFF 		bl	Nextion_SendString
 2924 03fe 04E0     		b	.L177
 2925              	.L176:
 184:./ConfigurationOfMeasurement.h ****                     }
 185:./ConfigurationOfMeasurement.h ****                     else
 186:./ConfigurationOfMeasurement.h ****                     {
 187:./ConfigurationOfMeasurement.h ****                         ActivePage = '1';  
 2926              		.loc 12 187 0
 2927 0400 3123     		movs	r3, #49
 2928 0402 FB72     		strb	r3, [r7, #11]
 188:./ConfigurationOfMeasurement.h ****                         Nextion_SendString("page Parameters");
 2929              		.loc 12 188 0
 2930 0404 1848     		ldr	r0, .L183+44
 2931 0406 FFF7FEFF 		bl	Nextion_SendString
 2932              	.L177:
 189:./ConfigurationOfMeasurement.h ****                     }
 190:./ConfigurationOfMeasurement.h ****                     UpdateNecessary = 1;
 2933              		.loc 12 190 0
 2934 040a 0123     		movs	r3, #1
 2935 040c BB72     		strb	r3, [r7, #10]
 191:./ConfigurationOfMeasurement.h ****                     break;
 2936              		.loc 12 191 0
 2937 040e 09E0     		b	.L166
 2938              	.L165:
 192:./ConfigurationOfMeasurement.h ****                 
 193:./ConfigurationOfMeasurement.h ****                 case BUTTON_CONFIRM:           // Confirmation of parameters 
 194:./ConfigurationOfMeasurement.h ****                     return 0;
 2939              		.loc 12 194 0
 2940 0410 0023     		movs	r3, #0
 2941 0412 0EE0     		b	.L149
 2942              	.L158:
 195:./ConfigurationOfMeasurement.h ****                     break;
 196:./ConfigurationOfMeasurement.h ****                     
 197:./ConfigurationOfMeasurement.h ****                 case BUTTON_HOME:
 198:./ConfigurationOfMeasurement.h ****                     return 1;
 2943              		.loc 12 198 0
 2944 0414 0123     		movs	r3, #1
 2945 0416 0CE0     		b	.L149
 2946              	.L153:
 199:./ConfigurationOfMeasurement.h ****                     break;
 200:./ConfigurationOfMeasurement.h **** 
 201:./ConfigurationOfMeasurement.h ****                 #ifdef ChangeFileName    
 202:./ConfigurationOfMeasurement.h ****                 case 'D':
 203:./ConfigurationOfMeasurement.h ****                     Filename();
 204:./ConfigurationOfMeasurement.h ****                     Nextion_SendString("page AddParameters");
ARM GAS  C:\Users\LOCALA~1\AppData\Local\Temp\ccsQji0c.s 			page 71


 205:./ConfigurationOfMeasurement.h ****                     ActivePage = '2';
 206:./ConfigurationOfMeasurement.h ****                     UpdateNecessary = 1;
 207:./ConfigurationOfMeasurement.h ****                     CyDelay(200);
 208:./ConfigurationOfMeasurement.h ****                     SendFileNameToNextion();
 209:./ConfigurationOfMeasurement.h ****                     break;
 210:./ConfigurationOfMeasurement.h ****                 #endif
 211:./ConfigurationOfMeasurement.h ****                     
 212:./ConfigurationOfMeasurement.h ****                 default:
 213:./ConfigurationOfMeasurement.h ****                     setError(1);
 2947              		.loc 12 213 0
 2948 0418 0120     		movs	r0, #1
 2949 041a FFF7FEFF 		bl	setError
 214:./ConfigurationOfMeasurement.h ****                     return 2;
 2950              		.loc 12 214 0
 2951 041e 0223     		movs	r3, #2
 2952 0420 07E0     		b	.L149
 2953              	.L180:
 100:./ConfigurationOfMeasurement.h ****                 
 2954              		.loc 12 100 0
 2955 0422 00BF     		nop
 2956              	.L166:
 215:./ConfigurationOfMeasurement.h ****                     break;
 216:./ConfigurationOfMeasurement.h ****             }
 217:./ConfigurationOfMeasurement.h ****             
 218:./ConfigurationOfMeasurement.h ****             g_NextionInterrupt = '0';
 2957              		.loc 12 218 0
 2958 0424 114B     		ldr	r3, .L183+48
 2959 0426 3022     		movs	r2, #48
 2960 0428 1A70     		strb	r2, [r3]
 219:./ConfigurationOfMeasurement.h ****             CyDelay(5);                     // Maybe useful, maybe not. Will see it.
 2961              		.loc 12 219 0
 2962 042a 0520     		movs	r0, #5
 2963 042c FFF7FEFF 		bl	CyDelay
 220:./ConfigurationOfMeasurement.h ****         }
 2964              		.loc 12 220 0
 2965 0430 37E6     		b	.L178
 2966              	.L149:
 221:./ConfigurationOfMeasurement.h ****         
 222:./ConfigurationOfMeasurement.h ****     }
 2967              		.loc 12 222 0
 2968 0432 1846     		mov	r0, r3
 2969 0434 1037     		adds	r7, r7, #16
 2970              		.cfi_def_cfa_offset 8
 2971 0436 BD46     		mov	sp, r7
 2972              		.cfi_def_cfa_register 13
 2973              		@ sp needed
 2974 0438 80BD     		pop	{r7, pc}
 2975              	.L184:
 2976 043a 00BF     		.align	2
 2977              	.L183:
 2978 043c 00000000 		.word	g_MaxMeasurementTime_min
 2979 0440 E8000000 		.word	.LC19
 2980 0444 00000000 		.word	g_FormationTime_ms
 2981 0448 00010000 		.word	.LC21
 2982 044c 00000000 		.word	g_RelaxationTime_ms
 2983 0450 18010000 		.word	.LC23
 2984 0454 00000000 		.word	g_ConfirmationTime_ms
ARM GAS  C:\Users\LOCALA~1\AppData\Local\Temp\ccsQji0c.s 			page 72


 2985 0458 38010000 		.word	.LC25
 2986 045c 00000000 		.word	g_ThresholdValue_mV
 2987 0460 58010000 		.word	.LC27
 2988 0464 70010000 		.word	.LC29
 2989 0468 A8000000 		.word	.LC14
 2990 046c 00000000 		.word	g_NextionInterrupt
 2991              		.cfi_endproc
 2992              	.LFE95:
 2993              		.size	ConfigurationOfMeasurement, .-ConfigurationOfMeasurement
 2994              		.global	__aeabi_f2d
 2995              		.global	__aeabi_dmul
 2996              		.global	__aeabi_d2f
 2997              		.section	.rodata
 2998 0183 00       		.align	2
 2999              	.LC30:
 3000 0184 61646420 		.ascii	"add 1,0,\000"
 3000      312C302C 
 3000      00
 3001              		.global	__aeabi_f2iz
 3002 018d 000000   		.align	2
 3003              	.LC31:
 3004 0190 61646420 		.ascii	"add 1,1,\000"
 3004      312C312C 
 3004      00
 3005 0199 000000   		.align	2
 3006              	.LC32:
 3007 019c 61646420 		.ascii	"add 1,2,\000"
 3007      312C322C 
 3007      00
 3008              		.section	.text.NextionPlot_PointsToSetupAxes,"ax",%progbits
 3009              		.align	2
 3010              		.global	NextionPlot_PointsToSetupAxes
 3011              		.thumb
 3012              		.thumb_func
 3013              		.type	NextionPlot_PointsToSetupAxes, %function
 3014              	NextionPlot_PointsToSetupAxes:
 3015              	.LFB96:
 3016              		.file 13 "./Nextion_PlotSetupData.h"
   1:./Nextion_PlotSetupData.h **** /* ========================================
   2:./Nextion_PlotSetupData.h ****  *
   3:./Nextion_PlotSetupData.h ****  * Copyright YOUR COMPANY, THE YEAR
   4:./Nextion_PlotSetupData.h ****  * All Rights Reserved
   5:./Nextion_PlotSetupData.h ****  * UNPUBLISHED, LICENSED SOFTWARE.
   6:./Nextion_PlotSetupData.h ****  *
   7:./Nextion_PlotSetupData.h ****  * CONFIDENTIAL AND PROPRIETARY INFORMATION
   8:./Nextion_PlotSetupData.h ****  * WHICH IS THE PROPERTY OF your company.
   9:./Nextion_PlotSetupData.h ****  *
  10:./Nextion_PlotSetupData.h ****  * ========================================
  11:./Nextion_PlotSetupData.h **** */
  12:./Nextion_PlotSetupData.h **** 
  13:./Nextion_PlotSetupData.h **** #ifndef NEXTION_PLOTSETUPDATA_H
  14:./Nextion_PlotSetupData.h ****     #define NEXTION_PLOTSETUPDATA_H
  15:./Nextion_PlotSetupData.h **** 
  16:./Nextion_PlotSetupData.h ****     #include <project.h>
  17:./Nextion_PlotSetupData.h ****     #include <stdlib.h>
  18:./Nextion_PlotSetupData.h ****     #include <math.h>
  19:./Nextion_PlotSetupData.h ****     
ARM GAS  C:\Users\LOCALA~1\AppData\Local\Temp\ccsQji0c.s 			page 73


  20:./Nextion_PlotSetupData.h ****     #include <Nextion.h>
  21:./Nextion_PlotSetupData.h ****     
  22:./Nextion_PlotSetupData.h ****     
  23:./Nextion_PlotSetupData.h ****     // NextionPlotSettings:
  24:./Nextion_PlotSetupData.h ****     // Settings of Nextion software
  25:./Nextion_PlotSetupData.h ****     #define Nextion_SetupPlot_Settings_x 180
  26:./Nextion_PlotSetupData.h ****     #define Nextion_SetupPlot_Settings_y 40
  27:./Nextion_PlotSetupData.h ****     #define Nextion_SetupPlot_Settings_w 325
  28:./Nextion_PlotSetupData.h ****     #define Nextion_SetupPlot_Settings_h 200
  29:./Nextion_PlotSetupData.h ****                 
  30:./Nextion_PlotSetupData.h ****     #define Nextion_SetupPlot_Settings_xmax 100          // Immer 100 Messwerte auf x-Achse
  31:./Nextion_PlotSetupData.h ****     #define Nextion_SetupPlot_Settings_ymax 4095         // Maximalwerts des 12bit ADC, also 2^12
  32:./Nextion_PlotSetupData.h ****     
  33:./Nextion_PlotSetupData.h ****     
  34:./Nextion_PlotSetupData.h ****     
  35:./Nextion_PlotSetupData.h ****     void NextionPlot_PointsToSetupAxes(float presence_ths, float ref_ths, float intensity)
  36:./Nextion_PlotSetupData.h ****     {
 3017              		.loc 13 36 0
 3018              		.cfi_startproc
 3019              		@ args = 0, pretend = 0, frame = 40
 3020              		@ frame_needed = 1, uses_anonymous_args = 0
 3021 0000 90B5     		push	{r4, r7, lr}
 3022              		.cfi_def_cfa_offset 12
 3023              		.cfi_offset 4, -12
 3024              		.cfi_offset 7, -8
 3025              		.cfi_offset 14, -4
 3026 0002 8BB0     		sub	sp, sp, #44
 3027              		.cfi_def_cfa_offset 56
 3028 0004 00AF     		add	r7, sp, #0
 3029              		.cfi_def_cfa_register 7
 3030 0006 F860     		str	r0, [r7, #12]	@ float
 3031 0008 B960     		str	r1, [r7, #8]	@ float
 3032 000a 7A60     		str	r2, [r7, #4]	@ float
  37:./Nextion_PlotSetupData.h ****         // Hilfsvariable mit 20 Zeichen
  38:./Nextion_PlotSetupData.h ****         char num_str[20];
  39:./Nextion_PlotSetupData.h **** 
  40:./Nextion_PlotSetupData.h ****         // bescheuerte Skalierung!!!! Hhe im Nextion Editor is massgeblich
  41:./Nextion_PlotSetupData.h ****         presence_ths = 1.0*Nextion_SetupPlot_Settings_h*(1.0*presence_ths/Nextion_SetupPlot_Setting
 3033              		.loc 13 41 0
 3034 000c F868     		ldr	r0, [r7, #12]	@ float
 3035 000e FFF7FEFF 		bl	__aeabi_f2d
 3036 0012 43A3     		adr	r3, .L186
 3037 0014 D3E90023 		ldrd	r2, [r3]
 3038 0018 FFF7FEFF 		bl	__aeabi_ddiv
 3039 001c 0346     		mov	r3, r0
 3040 001e 0C46     		mov	r4, r1
 3041 0020 1846     		mov	r0, r3
 3042 0022 2146     		mov	r1, r4
 3043 0024 4FF00002 		mov	r2, #0
 3044 0028 3F4B     		ldr	r3, .L186+8
 3045 002a FFF7FEFF 		bl	__aeabi_dmul
 3046 002e 0346     		mov	r3, r0
 3047 0030 0C46     		mov	r4, r1
 3048 0032 1846     		mov	r0, r3
 3049 0034 2146     		mov	r1, r4
 3050 0036 FFF7FEFF 		bl	__aeabi_d2f
 3051 003a 0346     		mov	r3, r0
ARM GAS  C:\Users\LOCALA~1\AppData\Local\Temp\ccsQji0c.s 			page 74


 3052 003c FB60     		str	r3, [r7, #12]	@ float
  42:./Nextion_PlotSetupData.h ****         ref_ths = 1.0*Nextion_SetupPlot_Settings_h*(1.0*ref_ths/Nextion_SetupPlot_Settings_ymax);
 3053              		.loc 13 42 0
 3054 003e B868     		ldr	r0, [r7, #8]	@ float
 3055 0040 FFF7FEFF 		bl	__aeabi_f2d
 3056 0044 36A3     		adr	r3, .L186
 3057 0046 D3E90023 		ldrd	r2, [r3]
 3058 004a FFF7FEFF 		bl	__aeabi_ddiv
 3059 004e 0346     		mov	r3, r0
 3060 0050 0C46     		mov	r4, r1
 3061 0052 1846     		mov	r0, r3
 3062 0054 2146     		mov	r1, r4
 3063 0056 4FF00002 		mov	r2, #0
 3064 005a 334B     		ldr	r3, .L186+8
 3065 005c FFF7FEFF 		bl	__aeabi_dmul
 3066 0060 0346     		mov	r3, r0
 3067 0062 0C46     		mov	r4, r1
 3068 0064 1846     		mov	r0, r3
 3069 0066 2146     		mov	r1, r4
 3070 0068 FFF7FEFF 		bl	__aeabi_d2f
 3071 006c 0346     		mov	r3, r0
 3072 006e BB60     		str	r3, [r7, #8]	@ float
  43:./Nextion_PlotSetupData.h ****         intensity = 1.0*Nextion_SetupPlot_Settings_h*(1.0*intensity/Nextion_SetupPlot_Settings_ymax
 3073              		.loc 13 43 0
 3074 0070 7868     		ldr	r0, [r7, #4]	@ float
 3075 0072 FFF7FEFF 		bl	__aeabi_f2d
 3076 0076 2AA3     		adr	r3, .L186
 3077 0078 D3E90023 		ldrd	r2, [r3]
 3078 007c FFF7FEFF 		bl	__aeabi_ddiv
 3079 0080 0346     		mov	r3, r0
 3080 0082 0C46     		mov	r4, r1
 3081 0084 1846     		mov	r0, r3
 3082 0086 2146     		mov	r1, r4
 3083 0088 4FF00002 		mov	r2, #0
 3084 008c 264B     		ldr	r3, .L186+8
 3085 008e FFF7FEFF 		bl	__aeabi_dmul
 3086 0092 0346     		mov	r3, r0
 3087 0094 0C46     		mov	r4, r1
 3088 0096 1846     		mov	r0, r3
 3089 0098 2146     		mov	r1, r4
 3090 009a FFF7FEFF 		bl	__aeabi_d2f
 3091 009e 0346     		mov	r3, r0
 3092 00a0 7B60     		str	r3, [r7, #4]	@ float
  44:./Nextion_PlotSetupData.h ****         
  45:./Nextion_PlotSetupData.h ****         // -> setze jeweiligen Wert in Kanle 0, 1 und 2 der Zeichenflche mit ID 2
  46:./Nextion_PlotSetupData.h ****         
  47:./Nextion_PlotSetupData.h ****         // Wert fr Detektionsgrenze -> darunter wird die Zeitmessung gestoppt
  48:./Nextion_PlotSetupData.h ****         UART_TFT_PutString("add 1,0,"); // Nextion Befehl: add ID, Channel, Value
 3093              		.loc 13 48 0
 3094 00a2 2248     		ldr	r0, .L186+12
 3095 00a4 FFF7FEFF 		bl	UART_TFT_PutString
  49:./Nextion_PlotSetupData.h ****         // Umwandlung Integer -> Array of char ("String") x_str im Decimalsystem
  50:./Nextion_PlotSetupData.h ****         itoa((int)presence_ths, num_str, 10);
 3096              		.loc 13 50 0
 3097 00a8 F868     		ldr	r0, [r7, #12]	@ float
 3098 00aa FFF7FEFF 		bl	__aeabi_f2iz
 3099 00ae 07F11403 		add	r3, r7, #20
ARM GAS  C:\Users\LOCALA~1\AppData\Local\Temp\ccsQji0c.s 			page 75


 3100 00b2 0A22     		movs	r2, #10
 3101 00b4 1946     		mov	r1, r3
 3102 00b6 FFF7FEFF 		bl	itoa
  51:./Nextion_PlotSetupData.h ****         UART_TFT_PutString(num_str);
 3103              		.loc 13 51 0
 3104 00ba 07F11403 		add	r3, r7, #20
 3105 00be 1846     		mov	r0, r3
 3106 00c0 FFF7FEFF 		bl	UART_TFT_PutString
  52:./Nextion_PlotSetupData.h ****         // Ende der Eingabe markieren
  53:./Nextion_PlotSetupData.h ****         Nextion_SendEndOfCommunication(); 
 3107              		.loc 13 53 0
 3108 00c4 FFF7FEFF 		bl	Nextion_SendEndOfCommunication
  54:./Nextion_PlotSetupData.h ****         
  55:./Nextion_PlotSetupData.h ****         // Wert fr Autokalibrierung -> wenn berschritten, ist das die Sampling Position
  56:./Nextion_PlotSetupData.h ****         UART_TFT_PutString("add 1,1,");
 3109              		.loc 13 56 0
 3110 00c8 1948     		ldr	r0, .L186+16
 3111 00ca FFF7FEFF 		bl	UART_TFT_PutString
  57:./Nextion_PlotSetupData.h ****         // Umwandlung Integer -> Array of char ("String") x_str im Decimalsystem
  58:./Nextion_PlotSetupData.h ****         itoa((int)ref_ths, num_str, 10);
 3112              		.loc 13 58 0
 3113 00ce B868     		ldr	r0, [r7, #8]	@ float
 3114 00d0 FFF7FEFF 		bl	__aeabi_f2iz
 3115 00d4 07F11403 		add	r3, r7, #20
 3116 00d8 0A22     		movs	r2, #10
 3117 00da 1946     		mov	r1, r3
 3118 00dc FFF7FEFF 		bl	itoa
  59:./Nextion_PlotSetupData.h ****         UART_TFT_PutString(num_str);
 3119              		.loc 13 59 0
 3120 00e0 07F11403 		add	r3, r7, #20
 3121 00e4 1846     		mov	r0, r3
 3122 00e6 FFF7FEFF 		bl	UART_TFT_PutString
  60:./Nextion_PlotSetupData.h ****         // Ende der Eingabe markieren
  61:./Nextion_PlotSetupData.h ****         Nextion_SendEndOfCommunication(); 
 3123              		.loc 13 61 0
 3124 00ea FFF7FEFF 		bl	Nextion_SendEndOfCommunication
  62:./Nextion_PlotSetupData.h ****         
  63:./Nextion_PlotSetupData.h ****         // Momentaner Wert vom ADC
  64:./Nextion_PlotSetupData.h ****         UART_TFT_PutString("add 1,2,");
 3125              		.loc 13 64 0
 3126 00ee 1148     		ldr	r0, .L186+20
 3127 00f0 FFF7FEFF 		bl	UART_TFT_PutString
  65:./Nextion_PlotSetupData.h ****         // Umwandlung Integer -> Array of char ("String") x_str im Decimalsystem
  66:./Nextion_PlotSetupData.h ****         itoa((int)intensity, num_str, 10);
 3128              		.loc 13 66 0
 3129 00f4 7868     		ldr	r0, [r7, #4]	@ float
 3130 00f6 FFF7FEFF 		bl	__aeabi_f2iz
 3131 00fa 07F11403 		add	r3, r7, #20
 3132 00fe 0A22     		movs	r2, #10
 3133 0100 1946     		mov	r1, r3
 3134 0102 FFF7FEFF 		bl	itoa
  67:./Nextion_PlotSetupData.h ****         UART_TFT_PutString(num_str);
 3135              		.loc 13 67 0
 3136 0106 07F11403 		add	r3, r7, #20
 3137 010a 1846     		mov	r0, r3
 3138 010c FFF7FEFF 		bl	UART_TFT_PutString
  68:./Nextion_PlotSetupData.h ****         // Ende der Eingabe markieren
ARM GAS  C:\Users\LOCALA~1\AppData\Local\Temp\ccsQji0c.s 			page 76


  69:./Nextion_PlotSetupData.h ****         Nextion_SendEndOfCommunication();
 3139              		.loc 13 69 0
 3140 0110 FFF7FEFF 		bl	Nextion_SendEndOfCommunication
  70:./Nextion_PlotSetupData.h ****     }
 3141              		.loc 13 70 0
 3142 0114 00BF     		nop
 3143 0116 2C37     		adds	r7, r7, #44
 3144              		.cfi_def_cfa_offset 12
 3145 0118 BD46     		mov	sp, r7
 3146              		.cfi_def_cfa_register 13
 3147              		@ sp needed
 3148 011a 90BD     		pop	{r4, r7, pc}
 3149              	.L187:
 3150 011c AFF30080 		.align	3
 3151              	.L186:
 3152 0120 00000000 		.word	0
 3153 0124 00FEAF40 		.word	1085275648
 3154 0128 00006940 		.word	1080623104
 3155 012c 84010000 		.word	.LC30
 3156 0130 90010000 		.word	.LC31
 3157 0134 9C010000 		.word	.LC32
 3158              		.cfi_endproc
 3159              	.LFE96:
 3160              		.size	NextionPlot_PointsToSetupAxes, .-NextionPlot_PointsToSetupAxes
 3161              		.global	g_Stepper_MaxFrequency
 3162              		.data
 3163 0003 00       		.align	2
 3164              		.type	g_Stepper_MaxFrequency, %object
 3165              		.size	g_Stepper_MaxFrequency, 4
 3166              	g_Stepper_MaxFrequency:
 3167 0004 BC020000 		.word	700
 3168              		.global	g_Stepper_SigmoidShift
 3169              		.align	2
 3170              		.type	g_Stepper_SigmoidShift, %object
 3171              		.size	g_Stepper_SigmoidShift, 4
 3172              	g_Stepper_SigmoidShift:
 3173 0008 9CFFFFFF 		.word	-100
 3174              		.global	g_Stepper_SigmoidRaise
 3175              		.align	2
 3176              		.type	g_Stepper_SigmoidRaise, %object
 3177              		.size	g_Stepper_SigmoidRaise, 4
 3178              	g_Stepper_SigmoidRaise:
 3179 000c 0A000000 		.word	10
 3180              		.global	__aeabi_i2d
 3181              		.global	__aeabi_dcmpeq
 3182              		.global	__aeabi_dcmplt
 3183              		.global	__aeabi_dsub
 3184              		.global	__aeabi_d2uiz
 3185              		.section	.text.MoveTo,"ax",%progbits
 3186              		.align	2
 3187              		.global	MoveTo
 3188              		.thumb
 3189              		.thumb_func
 3190              		.type	MoveTo, %function
 3191              	MoveTo:
 3192              	.LFB97:
 3193              		.file 14 "./StepMotor.h"
ARM GAS  C:\Users\LOCALA~1\AppData\Local\Temp\ccsQji0c.s 			page 77


   1:./StepMotor.h **** /* ========================================
   2:./StepMotor.h ****  *
   3:./StepMotor.h ****  * Copyright YOUR COMPANY, THE YEAR
   4:./StepMotor.h ****  * All Rights Reserved
   5:./StepMotor.h ****  * UNPUBLISHED, LICENSED SOFTWARE.
   6:./StepMotor.h ****  *
   7:./StepMotor.h ****  * CONFIDENTIAL AND PROPRIETARY INFORMATION
   8:./StepMotor.h ****  * WHICH IS THE PROPERTY OF your company.
   9:./StepMotor.h ****  *
  10:./StepMotor.h ****  * ========================================
  11:./StepMotor.h **** */
  12:./StepMotor.h **** 
  13:./StepMotor.h **** #ifndef STEPMOTOR_H
  14:./StepMotor.h ****     #define STEPMOTOR_H
  15:./StepMotor.h ****     
  16:./StepMotor.h ****     #include <project.h>
  17:./StepMotor.h ****     #include <math.h>
  18:./StepMotor.h ****     #include <GlobalVariables.h>
  19:./StepMotor.h ****     
  20:./StepMotor.h ****     int g_Stepper_MaxFrequency = 700;
  21:./StepMotor.h ****     int g_Stepper_SigmoidShift = -100;
  22:./StepMotor.h ****     int g_Stepper_SigmoidRaise = 10;
  23:./StepMotor.h ****     #define RIGHT 1
  24:./StepMotor.h ****     #define LEFT -1
  25:./StepMotor.h ****     #define Stepper_Diff_HomeSampling 400
  26:./StepMotor.h ****     #define Stepper_StepsPerStep 4
  27:./StepMotor.h ****     
  28:./StepMotor.h ****      void MoveTo (double steps, double dir)
  29:./StepMotor.h ****     {
 3194              		.loc 14 29 0
 3195              		.cfi_startproc
 3196              		@ args = 0, pretend = 0, frame = 64
 3197              		@ frame_needed = 1, uses_anonymous_args = 0
 3198 0000 2DE9B043 		push	{r4, r5, r7, r8, r9, lr}
 3199              		.cfi_def_cfa_offset 24
 3200              		.cfi_offset 4, -24
 3201              		.cfi_offset 5, -20
 3202              		.cfi_offset 7, -16
 3203              		.cfi_offset 8, -12
 3204              		.cfi_offset 9, -8
 3205              		.cfi_offset 14, -4
 3206 0004 90B0     		sub	sp, sp, #64
 3207              		.cfi_def_cfa_offset 88
 3208 0006 00AF     		add	r7, sp, #0
 3209              		.cfi_def_cfa_register 7
 3210 0008 C7E90201 		strd	r0, [r7, #8]
 3211 000c C7E90023 		strd	r2, [r7]
  30:./StepMotor.h ****     	// bergebene Steps mssen mit 2 Mulipliziert werden, da jeder 
  31:./StepMotor.h ****     	// Schritt 2 Flankenwechsel beeinhaltet
  32:./StepMotor.h ****     	steps = steps*2;
 3212              		.loc 14 32 0
 3213 0010 D7E90201 		ldrd	r0, [r7, #8]
 3214 0014 0246     		mov	r2, r0
 3215 0016 0B46     		mov	r3, r1
 3216 0018 FFF7FEFF 		bl	__aeabi_dadd
 3217 001c 0346     		mov	r3, r0
 3218 001e 0C46     		mov	r4, r1
ARM GAS  C:\Users\LOCALA~1\AppData\Local\Temp\ccsQji0c.s 			page 78


 3219 0020 C7E90234 		strd	r3, [r7, #8]
  33:./StepMotor.h ****     	
  34:./StepMotor.h ****         // Maximale Frequenz
  35:./StepMotor.h ****         double f_max;
  36:./StepMotor.h ****         // Relative Frequenz [0, 1]
  37:./StepMotor.h ****         double f_rel;
  38:./StepMotor.h ****         // Inkrement der Anzufahrenden Schritte
  39:./StepMotor.h ****         int i;
  40:./StepMotor.h ****         // gerundete Dauer des Stepper-Zustands
  41:./StepMotor.h ****         double t_StepperCLK;    
  42:./StepMotor.h ****         // Verschiebung des Sigmoids
  43:./StepMotor.h ****         double sig_shift;                   // hherere Wert -> hherere Frequenz zu Beginn
  44:./StepMotor.h ****         // Anstieg des Sigmoids
  45:./StepMotor.h ****         double sig_raise;                   // hherer Wert -> schnellerer Anstieg
  46:./StepMotor.h ****         
  47:./StepMotor.h ****         //
  48:./StepMotor.h ****         // Parameterset fr Motorkontrolle aus "MotorRamp.m"
  49:./StepMotor.h ****         //   
  50:./StepMotor.h ****         f_max = g_Stepper_MaxFrequency;
 3220              		.loc 14 50 0
 3221 0024 A04B     		ldr	r3, .L201+8
 3222 0026 1B68     		ldr	r3, [r3]
 3223 0028 1846     		mov	r0, r3
 3224 002a FFF7FEFF 		bl	__aeabi_i2d
 3225 002e 0346     		mov	r3, r0
 3226 0030 0C46     		mov	r4, r1
 3227 0032 C7E90C34 		strd	r3, [r7, #48]
  51:./StepMotor.h ****         sig_shift = g_Stepper_SigmoidShift;
 3228              		.loc 14 51 0
 3229 0036 9D4B     		ldr	r3, .L201+12
 3230 0038 1B68     		ldr	r3, [r3]
 3231 003a 1846     		mov	r0, r3
 3232 003c FFF7FEFF 		bl	__aeabi_i2d
 3233 0040 0346     		mov	r3, r0
 3234 0042 0C46     		mov	r4, r1
 3235 0044 C7E90A34 		strd	r3, [r7, #40]
  52:./StepMotor.h ****         sig_raise = g_Stepper_SigmoidRaise;
 3236              		.loc 14 52 0
 3237 0048 994B     		ldr	r3, .L201+16
 3238 004a 1B68     		ldr	r3, [r3]
 3239 004c 1846     		mov	r0, r3
 3240 004e FFF7FEFF 		bl	__aeabi_i2d
 3241 0052 0346     		mov	r3, r0
 3242 0054 0C46     		mov	r4, r1
 3243 0056 C7E90834 		strd	r3, [r7, #32]
  53:./StepMotor.h ****         
  54:./StepMotor.h ****         
  55:./StepMotor.h ****         // SLEEP -> Motor "aufwecken" -> Leistungsaufnahme
  56:./StepMotor.h ****         Pin_StepperSLEEP_Write(1);
 3244              		.loc 14 56 0
 3245 005a 0120     		movs	r0, #1
 3246 005c FFF7FEFF 		bl	Pin_StepperSLEEP_Write
  57:./StepMotor.h ****         
  58:./StepMotor.h ****         // Richtung setzen
  59:./StepMotor.h ****         //
  60:./StepMotor.h ****         // Rechtsdrehung
  61:./StepMotor.h ****         if (dir == 1)
ARM GAS  C:\Users\LOCALA~1\AppData\Local\Temp\ccsQji0c.s 			page 79


 3247              		.loc 14 61 0
 3248 0060 4FF00002 		mov	r2, #0
 3249 0064 934B     		ldr	r3, .L201+20
 3250 0066 D7E90001 		ldrd	r0, [r7]
 3251 006a FFF7FEFF 		bl	__aeabi_dcmpeq
 3252 006e 0346     		mov	r3, r0
 3253 0070 002B     		cmp	r3, #0
 3254 0072 03D0     		beq	.L199
  62:./StepMotor.h ****         {
  63:./StepMotor.h ****             Pin_StepperDIR_Write(0);
 3255              		.loc 14 63 0
 3256 0074 0020     		movs	r0, #0
 3257 0076 FFF7FEFF 		bl	Pin_StepperDIR_Write
 3258 007a 02E0     		b	.L191
 3259              	.L199:
  64:./StepMotor.h ****         }
  65:./StepMotor.h ****         // Linksdrehung
  66:./StepMotor.h ****         else
  67:./StepMotor.h ****         {
  68:./StepMotor.h ****             Pin_StepperDIR_Write(1);
 3260              		.loc 14 68 0
 3261 007c 0120     		movs	r0, #1
 3262 007e FFF7FEFF 		bl	Pin_StepperDIR_Write
 3263              	.L191:
  69:./StepMotor.h ****         }    
  70:./StepMotor.h ****         
  71:./StepMotor.h ****         // Fr jeden der Schritte
  72:./StepMotor.h ****         for (i = 0; i < steps; i = i + 1)
 3264              		.loc 14 72 0
 3265 0082 0023     		movs	r3, #0
 3266 0084 FB63     		str	r3, [r7, #60]
 3267 0086 FAE0     		b	.L192
 3268              	.L196:
  73:./StepMotor.h ****         {
  74:./StepMotor.h ****             // Frequenz fr Beschleunigungsteil
  75:./StepMotor.h ****             if (i < steps/2)
 3269              		.loc 14 75 0
 3270 0088 F86B     		ldr	r0, [r7, #60]
 3271 008a FFF7FEFF 		bl	__aeabi_i2d
 3272 008e 0446     		mov	r4, r0
 3273 0090 0D46     		mov	r5, r1
 3274 0092 4FF00002 		mov	r2, #0
 3275 0096 4FF08043 		mov	r3, #1073741824
 3276 009a D7E90201 		ldrd	r0, [r7, #8]
 3277 009e FFF7FEFF 		bl	__aeabi_ddiv
 3278 00a2 0246     		mov	r2, r0
 3279 00a4 0B46     		mov	r3, r1
 3280 00a6 2046     		mov	r0, r4
 3281 00a8 2946     		mov	r1, r5
 3282 00aa FFF7FEFF 		bl	__aeabi_dcmplt
 3283 00ae 0346     		mov	r3, r0
 3284 00b0 002B     		cmp	r3, #0
 3285 00b2 69D0     		beq	.L200
  76:./StepMotor.h ****             {       
  77:./StepMotor.h ****                 // Berechnung der Frequenz
  78:./StepMotor.h ****                 f_rel = 1.0/(1+exp(-1/(steps/sig_raise)*(i-steps/sig_shift))); 
 3286              		.loc 14 78 0
ARM GAS  C:\Users\LOCALA~1\AppData\Local\Temp\ccsQji0c.s 			page 80


 3287 00b4 D7E90823 		ldrd	r2, [r7, #32]
 3288 00b8 D7E90201 		ldrd	r0, [r7, #8]
 3289 00bc FFF7FEFF 		bl	__aeabi_ddiv
 3290 00c0 0346     		mov	r3, r0
 3291 00c2 0C46     		mov	r4, r1
 3292 00c4 1A46     		mov	r2, r3
 3293 00c6 2346     		mov	r3, r4
 3294 00c8 4FF00000 		mov	r0, #0
 3295 00cc 7A49     		ldr	r1, .L201+24
 3296 00ce FFF7FEFF 		bl	__aeabi_ddiv
 3297 00d2 0346     		mov	r3, r0
 3298 00d4 0C46     		mov	r4, r1
 3299 00d6 2546     		mov	r5, r4
 3300 00d8 1C46     		mov	r4, r3
 3301 00da F86B     		ldr	r0, [r7, #60]
 3302 00dc FFF7FEFF 		bl	__aeabi_i2d
 3303 00e0 8046     		mov	r8, r0
 3304 00e2 8946     		mov	r9, r1
 3305 00e4 D7E90A23 		ldrd	r2, [r7, #40]
 3306 00e8 D7E90201 		ldrd	r0, [r7, #8]
 3307 00ec FFF7FEFF 		bl	__aeabi_ddiv
 3308 00f0 0246     		mov	r2, r0
 3309 00f2 0B46     		mov	r3, r1
 3310 00f4 4046     		mov	r0, r8
 3311 00f6 4946     		mov	r1, r9
 3312 00f8 FFF7FEFF 		bl	__aeabi_dsub
 3313 00fc 0246     		mov	r2, r0
 3314 00fe 0B46     		mov	r3, r1
 3315 0100 2046     		mov	r0, r4
 3316 0102 2946     		mov	r1, r5
 3317 0104 FFF7FEFF 		bl	__aeabi_dmul
 3318 0108 0346     		mov	r3, r0
 3319 010a 0C46     		mov	r4, r1
 3320 010c 1846     		mov	r0, r3
 3321 010e 2146     		mov	r1, r4
 3322 0110 FFF7FEFF 		bl	exp
 3323 0114 4FF00002 		mov	r2, #0
 3324 0118 664B     		ldr	r3, .L201+20
 3325 011a FFF7FEFF 		bl	__aeabi_dadd
 3326 011e 0346     		mov	r3, r0
 3327 0120 0C46     		mov	r4, r1
 3328 0122 1A46     		mov	r2, r3
 3329 0124 2346     		mov	r3, r4
 3330 0126 4FF00000 		mov	r0, #0
 3331 012a 6249     		ldr	r1, .L201+20
 3332 012c FFF7FEFF 		bl	__aeabi_ddiv
 3333 0130 0346     		mov	r3, r0
 3334 0132 0C46     		mov	r4, r1
 3335 0134 C7E90634 		strd	r3, [r7, #24]
  79:./StepMotor.h ****                 // Momentane Ausgabe der LED invertieren
  80:./StepMotor.h ****                 Pin_StepperCLK_Write(!Pin_StepperCLK_Read());
 3336              		.loc 14 80 0
 3337 0138 FFF7FEFF 		bl	Pin_StepperCLK_Read
 3338 013c 0346     		mov	r3, r0
 3339 013e 002B     		cmp	r3, #0
 3340 0140 0CBF     		ite	eq
 3341 0142 0123     		moveq	r3, #1
ARM GAS  C:\Users\LOCALA~1\AppData\Local\Temp\ccsQji0c.s 			page 81


 3342 0144 0023     		movne	r3, #0
 3343 0146 DBB2     		uxtb	r3, r3
 3344 0148 1846     		mov	r0, r3
 3345 014a FFF7FEFF 		bl	Pin_StepperCLK_Write
  81:./StepMotor.h ****                 // Wartezeit in us berechnen
  82:./StepMotor.h ****                 t_StepperCLK = 1000000.0/(f_max*f_rel);   
 3346              		.loc 14 82 0
 3347 014e D7E90623 		ldrd	r2, [r7, #24]
 3348 0152 D7E90C01 		ldrd	r0, [r7, #48]
 3349 0156 FFF7FEFF 		bl	__aeabi_dmul
 3350 015a 0346     		mov	r3, r0
 3351 015c 0C46     		mov	r4, r1
 3352 015e 1A46     		mov	r2, r3
 3353 0160 2346     		mov	r3, r4
 3354 0162 4FA1     		adr	r1, .L201
 3355 0164 D1E90001 		ldrd	r0, [r1]
 3356 0168 FFF7FEFF 		bl	__aeabi_ddiv
 3357 016c 0346     		mov	r3, r0
 3358 016e 0C46     		mov	r4, r1
 3359 0170 C7E90434 		strd	r3, [r7, #16]
  83:./StepMotor.h ****                 CyDelayUs((uint16)(t_StepperCLK));           
 3360              		.loc 14 83 0
 3361 0174 D7E90401 		ldrd	r0, [r7, #16]
 3362 0178 FFF7FEFF 		bl	__aeabi_d2uiz
 3363 017c 0346     		mov	r3, r0
 3364 017e 9BB2     		uxth	r3, r3
 3365 0180 1846     		mov	r0, r3
 3366 0182 FFF7FEFF 		bl	CyDelayUs
 3367 0186 77E0     		b	.L195
 3368              	.L200:
  84:./StepMotor.h **** 
  85:./StepMotor.h ****             }        
  86:./StepMotor.h ****             // Frequenz fr Abbremsungsgungsteil
  87:./StepMotor.h ****             else 
  88:./StepMotor.h ****             {
  89:./StepMotor.h ****                 // Berechnung der Frequenz
  90:./StepMotor.h ****                 f_rel = (1.0 - 1/(1+exp(-1/(steps/sig_raise)*(i-steps+steps/sig_shift)))); 
 3369              		.loc 14 90 0
 3370 0188 D7E90823 		ldrd	r2, [r7, #32]
 3371 018c D7E90201 		ldrd	r0, [r7, #8]
 3372 0190 FFF7FEFF 		bl	__aeabi_ddiv
 3373 0194 0346     		mov	r3, r0
 3374 0196 0C46     		mov	r4, r1
 3375 0198 1A46     		mov	r2, r3
 3376 019a 2346     		mov	r3, r4
 3377 019c 4FF00000 		mov	r0, #0
 3378 01a0 4549     		ldr	r1, .L201+24
 3379 01a2 FFF7FEFF 		bl	__aeabi_ddiv
 3380 01a6 0346     		mov	r3, r0
 3381 01a8 0C46     		mov	r4, r1
 3382 01aa 2546     		mov	r5, r4
 3383 01ac 1C46     		mov	r4, r3
 3384 01ae F86B     		ldr	r0, [r7, #60]
 3385 01b0 FFF7FEFF 		bl	__aeabi_i2d
 3386 01b4 D7E90223 		ldrd	r2, [r7, #8]
 3387 01b8 FFF7FEFF 		bl	__aeabi_dsub
 3388 01bc 0246     		mov	r2, r0
ARM GAS  C:\Users\LOCALA~1\AppData\Local\Temp\ccsQji0c.s 			page 82


 3389 01be 0B46     		mov	r3, r1
 3390 01c0 9046     		mov	r8, r2
 3391 01c2 9946     		mov	r9, r3
 3392 01c4 D7E90A23 		ldrd	r2, [r7, #40]
 3393 01c8 D7E90201 		ldrd	r0, [r7, #8]
 3394 01cc FFF7FEFF 		bl	__aeabi_ddiv
 3395 01d0 0246     		mov	r2, r0
 3396 01d2 0B46     		mov	r3, r1
 3397 01d4 4046     		mov	r0, r8
 3398 01d6 4946     		mov	r1, r9
 3399 01d8 FFF7FEFF 		bl	__aeabi_dadd
 3400 01dc 0246     		mov	r2, r0
 3401 01de 0B46     		mov	r3, r1
 3402 01e0 2046     		mov	r0, r4
 3403 01e2 2946     		mov	r1, r5
 3404 01e4 FFF7FEFF 		bl	__aeabi_dmul
 3405 01e8 0346     		mov	r3, r0
 3406 01ea 0C46     		mov	r4, r1
 3407 01ec 1846     		mov	r0, r3
 3408 01ee 2146     		mov	r1, r4
 3409 01f0 FFF7FEFF 		bl	exp
 3410 01f4 4FF00002 		mov	r2, #0
 3411 01f8 2E4B     		ldr	r3, .L201+20
 3412 01fa FFF7FEFF 		bl	__aeabi_dadd
 3413 01fe 0346     		mov	r3, r0
 3414 0200 0C46     		mov	r4, r1
 3415 0202 1A46     		mov	r2, r3
 3416 0204 2346     		mov	r3, r4
 3417 0206 4FF00000 		mov	r0, #0
 3418 020a 2A49     		ldr	r1, .L201+20
 3419 020c FFF7FEFF 		bl	__aeabi_ddiv
 3420 0210 0346     		mov	r3, r0
 3421 0212 0C46     		mov	r4, r1
 3422 0214 1A46     		mov	r2, r3
 3423 0216 2346     		mov	r3, r4
 3424 0218 4FF00000 		mov	r0, #0
 3425 021c 2549     		ldr	r1, .L201+20
 3426 021e FFF7FEFF 		bl	__aeabi_dsub
 3427 0222 0346     		mov	r3, r0
 3428 0224 0C46     		mov	r4, r1
 3429 0226 C7E90634 		strd	r3, [r7, #24]
  91:./StepMotor.h ****                 // Momentane Ausgabe der LED invertieren
  92:./StepMotor.h ****                 Pin_StepperCLK_Write(!Pin_StepperCLK_Read());
 3430              		.loc 14 92 0
 3431 022a FFF7FEFF 		bl	Pin_StepperCLK_Read
 3432 022e 0346     		mov	r3, r0
 3433 0230 002B     		cmp	r3, #0
 3434 0232 0CBF     		ite	eq
 3435 0234 0123     		moveq	r3, #1
 3436 0236 0023     		movne	r3, #0
 3437 0238 DBB2     		uxtb	r3, r3
 3438 023a 1846     		mov	r0, r3
 3439 023c FFF7FEFF 		bl	Pin_StepperCLK_Write
  93:./StepMotor.h **** 
  94:./StepMotor.h ****                 // Wartezeit in us berechnen
  95:./StepMotor.h ****                 t_StepperCLK = 1000000.0/(f_max*f_rel);            
 3440              		.loc 14 95 0
ARM GAS  C:\Users\LOCALA~1\AppData\Local\Temp\ccsQji0c.s 			page 83


 3441 0240 D7E90623 		ldrd	r2, [r7, #24]
 3442 0244 D7E90C01 		ldrd	r0, [r7, #48]
 3443 0248 FFF7FEFF 		bl	__aeabi_dmul
 3444 024c 0346     		mov	r3, r0
 3445 024e 0C46     		mov	r4, r1
 3446 0250 1A46     		mov	r2, r3
 3447 0252 2346     		mov	r3, r4
 3448 0254 12A1     		adr	r1, .L201
 3449 0256 D1E90001 		ldrd	r0, [r1]
 3450 025a FFF7FEFF 		bl	__aeabi_ddiv
 3451 025e 0346     		mov	r3, r0
 3452 0260 0C46     		mov	r4, r1
 3453 0262 C7E90434 		strd	r3, [r7, #16]
  96:./StepMotor.h ****                 CyDelayUs((uint16)(t_StepperCLK));           
 3454              		.loc 14 96 0
 3455 0266 D7E90401 		ldrd	r0, [r7, #16]
 3456 026a FFF7FEFF 		bl	__aeabi_d2uiz
 3457 026e 0346     		mov	r3, r0
 3458 0270 9BB2     		uxth	r3, r3
 3459 0272 1846     		mov	r0, r3
 3460 0274 FFF7FEFF 		bl	CyDelayUs
 3461              	.L195:
  72:./StepMotor.h ****         {
 3462              		.loc 14 72 0 discriminator 2
 3463 0278 FB6B     		ldr	r3, [r7, #60]
 3464 027a 0133     		adds	r3, r3, #1
 3465 027c FB63     		str	r3, [r7, #60]
 3466              	.L192:
  72:./StepMotor.h ****         {
 3467              		.loc 14 72 0 is_stmt 0 discriminator 1
 3468 027e F86B     		ldr	r0, [r7, #60]
 3469 0280 FFF7FEFF 		bl	__aeabi_i2d
 3470 0284 D7E90223 		ldrd	r2, [r7, #8]
 3471 0288 FFF7FEFF 		bl	__aeabi_dcmplt
 3472 028c 0346     		mov	r3, r0
 3473 028e 002B     		cmp	r3, #0
 3474 0290 7FF4FAAE 		bne	.L196
  97:./StepMotor.h **** 
  98:./StepMotor.h ****             }  
  99:./StepMotor.h ****         }
 100:./StepMotor.h ****     }
 3475              		.loc 14 100 0 is_stmt 1
 3476 0294 00BF     		nop
 3477 0296 4037     		adds	r7, r7, #64
 3478              		.cfi_def_cfa_offset 24
 3479 0298 BD46     		mov	sp, r7
 3480              		.cfi_def_cfa_register 13
 3481              		@ sp needed
 3482 029a BDE8B083 		pop	{r4, r5, r7, r8, r9, pc}
 3483              	.L202:
 3484 029e 00BF     		.align	3
 3485              	.L201:
 3486 02a0 00000000 		.word	0
 3487 02a4 80842E41 		.word	1093567616
 3488 02a8 00000000 		.word	g_Stepper_MaxFrequency
 3489 02ac 00000000 		.word	g_Stepper_SigmoidShift
 3490 02b0 00000000 		.word	g_Stepper_SigmoidRaise
ARM GAS  C:\Users\LOCALA~1\AppData\Local\Temp\ccsQji0c.s 			page 84


 3491 02b4 0000F03F 		.word	1072693248
 3492 02b8 0000F0BF 		.word	-1074790400
 3493              		.cfi_endproc
 3494              	.LFE97:
 3495              		.size	MoveTo, .-MoveTo
 3496              		.section	.text.MoveToWithConstSpeed,"ax",%progbits
 3497              		.align	2
 3498              		.global	MoveToWithConstSpeed
 3499              		.thumb
 3500              		.thumb_func
 3501              		.type	MoveToWithConstSpeed, %function
 3502              	MoveToWithConstSpeed:
 3503              	.LFB98:
 101:./StepMotor.h ****     
 102:./StepMotor.h ****     void MoveToWithConstSpeed (double steps, double dir)
 103:./StepMotor.h ****     {
 3504              		.loc 14 103 0
 3505              		.cfi_startproc
 3506              		@ args = 0, pretend = 0, frame = 32
 3507              		@ frame_needed = 1, uses_anonymous_args = 0
 3508 0000 90B5     		push	{r4, r7, lr}
 3509              		.cfi_def_cfa_offset 12
 3510              		.cfi_offset 4, -12
 3511              		.cfi_offset 7, -8
 3512              		.cfi_offset 14, -4
 3513 0002 89B0     		sub	sp, sp, #36
 3514              		.cfi_def_cfa_offset 48
 3515 0004 00AF     		add	r7, sp, #0
 3516              		.cfi_def_cfa_register 7
 3517 0006 C7E90201 		strd	r0, [r7, #8]
 3518 000a C7E90023 		strd	r2, [r7]
 104:./StepMotor.h ****     	// bergebene Steps mssen mit 2 Mulipliziert werden, da jeder 
 105:./StepMotor.h ****     	// Schritt 2 Flankenwechsel beeinhaltet
 106:./StepMotor.h ****     	steps = steps*2;
 3519              		.loc 14 106 0
 3520 000e D7E90201 		ldrd	r0, [r7, #8]
 3521 0012 0246     		mov	r2, r0
 3522 0014 0B46     		mov	r3, r1
 3523 0016 FFF7FEFF 		bl	__aeabi_dadd
 3524 001a 0346     		mov	r3, r0
 3525 001c 0C46     		mov	r4, r1
 3526 001e C7E90234 		strd	r3, [r7, #8]
 107:./StepMotor.h ****     	
 108:./StepMotor.h ****         // Inkrement der Anzufahrenden Schritte
 109:./StepMotor.h ****         int i;
 110:./StepMotor.h ****         // gerundete Dauer des Stepper-Zustands
 111:./StepMotor.h ****         double t_StepperCLK;       
 112:./StepMotor.h ****         
 113:./StepMotor.h ****         // SLEEP -> Motor "aufwecken" -> Leistungsaufnahme
 114:./StepMotor.h ****         Pin_StepperSLEEP_Write(1);
 3527              		.loc 14 114 0
 3528 0022 0120     		movs	r0, #1
 3529 0024 FFF7FEFF 		bl	Pin_StepperSLEEP_Write
 115:./StepMotor.h ****         
 116:./StepMotor.h ****         // Richtung setzen
 117:./StepMotor.h ****         //
 118:./StepMotor.h ****         // Rechtsdrehung
ARM GAS  C:\Users\LOCALA~1\AppData\Local\Temp\ccsQji0c.s 			page 85


 119:./StepMotor.h ****         if (dir == 1)
 3530              		.loc 14 119 0
 3531 0028 4FF00002 		mov	r2, #0
 3532 002c 204B     		ldr	r3, .L211+8
 3533 002e D7E90001 		ldrd	r0, [r7]
 3534 0032 FFF7FEFF 		bl	__aeabi_dcmpeq
 3535 0036 0346     		mov	r3, r0
 3536 0038 002B     		cmp	r3, #0
 3537 003a 03D0     		beq	.L210
 120:./StepMotor.h ****         {
 121:./StepMotor.h ****             Pin_StepperDIR_Write(0);
 3538              		.loc 14 121 0
 3539 003c 0020     		movs	r0, #0
 3540 003e FFF7FEFF 		bl	Pin_StepperDIR_Write
 3541 0042 02E0     		b	.L206
 3542              	.L210:
 122:./StepMotor.h ****         }
 123:./StepMotor.h ****         // Linksdrehung
 124:./StepMotor.h ****         else
 125:./StepMotor.h ****         {
 126:./StepMotor.h ****             Pin_StepperDIR_Write(1);
 3543              		.loc 14 126 0
 3544 0044 0120     		movs	r0, #1
 3545 0046 FFF7FEFF 		bl	Pin_StepperDIR_Write
 3546              	.L206:
 127:./StepMotor.h ****         }    
 128:./StepMotor.h ****         
 129:./StepMotor.h ****         // Fr jeden der Schritte
 130:./StepMotor.h ****         for (i = 0; i < steps; i = i + 1)
 3547              		.loc 14 130 0
 3548 004a 0023     		movs	r3, #0
 3549 004c FB61     		str	r3, [r7, #28]
 3550 004e 1BE0     		b	.L207
 3551              	.L208:
 131:./StepMotor.h ****         {
 132:./StepMotor.h ****             // Momentane Ausgabe der LED invertieren
 133:./StepMotor.h ****             Pin_StepperCLK_Write(!Pin_StepperCLK_Read());
 3552              		.loc 14 133 0 discriminator 3
 3553 0050 FFF7FEFF 		bl	Pin_StepperCLK_Read
 3554 0054 0346     		mov	r3, r0
 3555 0056 002B     		cmp	r3, #0
 3556 0058 0CBF     		ite	eq
 3557 005a 0123     		moveq	r3, #1
 3558 005c 0023     		movne	r3, #0
 3559 005e DBB2     		uxtb	r3, r3
 3560 0060 1846     		mov	r0, r3
 3561 0062 FFF7FEFF 		bl	Pin_StepperCLK_Write
 134:./StepMotor.h ****             t_StepperCLK = 27500; // [mus]
 3562              		.loc 14 134 0 discriminator 3
 3563 0066 10A4     		adr	r4, .L211
 3564 0068 D4E90034 		ldrd	r3, [r4]
 3565 006c C7E90434 		strd	r3, [r7, #16]
 135:./StepMotor.h ****             CyDelayUs((uint16)(t_StepperCLK));     
 3566              		.loc 14 135 0 discriminator 3
 3567 0070 D7E90401 		ldrd	r0, [r7, #16]
 3568 0074 FFF7FEFF 		bl	__aeabi_d2uiz
 3569 0078 0346     		mov	r3, r0
ARM GAS  C:\Users\LOCALA~1\AppData\Local\Temp\ccsQji0c.s 			page 86


 3570 007a 9BB2     		uxth	r3, r3
 3571 007c 1846     		mov	r0, r3
 3572 007e FFF7FEFF 		bl	CyDelayUs
 130:./StepMotor.h ****         {
 3573              		.loc 14 130 0 discriminator 3
 3574 0082 FB69     		ldr	r3, [r7, #28]
 3575 0084 0133     		adds	r3, r3, #1
 3576 0086 FB61     		str	r3, [r7, #28]
 3577              	.L207:
 130:./StepMotor.h ****         {
 3578              		.loc 14 130 0 is_stmt 0 discriminator 1
 3579 0088 F869     		ldr	r0, [r7, #28]
 3580 008a FFF7FEFF 		bl	__aeabi_i2d
 3581 008e D7E90223 		ldrd	r2, [r7, #8]
 3582 0092 FFF7FEFF 		bl	__aeabi_dcmplt
 3583 0096 0346     		mov	r3, r0
 3584 0098 002B     		cmp	r3, #0
 3585 009a D9D1     		bne	.L208
 136:./StepMotor.h ****         }
 137:./StepMotor.h ****     }
 3586              		.loc 14 137 0 is_stmt 1
 3587 009c 00BF     		nop
 3588 009e 2437     		adds	r7, r7, #36
 3589              		.cfi_def_cfa_offset 12
 3590 00a0 BD46     		mov	sp, r7
 3591              		.cfi_def_cfa_register 13
 3592              		@ sp needed
 3593 00a2 90BD     		pop	{r4, r7, pc}
 3594              	.L212:
 3595 00a4 AFF30080 		.align	3
 3596              	.L211:
 3597 00a8 00000000 		.word	0
 3598 00ac 00DBDA40 		.word	1088084736
 3599 00b0 0000F03F 		.word	1072693248
 3600              		.cfi_endproc
 3601              	.LFE98:
 3602              		.size	MoveToWithConstSpeed, .-MoveToWithConstSpeed
 3603              		.section	.text.MoveOneStepCW,"ax",%progbits
 3604              		.align	2
 3605              		.global	MoveOneStepCW
 3606              		.thumb
 3607              		.thumb_func
 3608              		.type	MoveOneStepCW, %function
 3609              	MoveOneStepCW:
 3610              	.LFB99:
 138:./StepMotor.h ****     
 139:./StepMotor.h ****     void MoveOneStepCW()
 140:./StepMotor.h ****     {
 3611              		.loc 14 140 0
 3612              		.cfi_startproc
 3613              		@ args = 0, pretend = 0, frame = 0
 3614              		@ frame_needed = 1, uses_anonymous_args = 0
 3615 0000 80B5     		push	{r7, lr}
 3616              		.cfi_def_cfa_offset 8
 3617              		.cfi_offset 7, -8
 3618              		.cfi_offset 14, -4
 3619 0002 00AF     		add	r7, sp, #0
ARM GAS  C:\Users\LOCALA~1\AppData\Local\Temp\ccsQji0c.s 			page 87


 3620              		.cfi_def_cfa_register 7
 141:./StepMotor.h ****         MoveToWithConstSpeed(1, RIGHT);
 3621              		.loc 14 141 0
 3622 0004 4FF00002 		mov	r2, #0
 3623 0008 034B     		ldr	r3, .L214
 3624 000a 4FF00000 		mov	r0, #0
 3625 000e 0249     		ldr	r1, .L214
 3626 0010 FFF7FEFF 		bl	MoveToWithConstSpeed
 142:./StepMotor.h ****     }
 3627              		.loc 14 142 0
 3628 0014 00BF     		nop
 3629 0016 80BD     		pop	{r7, pc}
 3630              	.L215:
 3631              		.align	2
 3632              	.L214:
 3633 0018 0000F03F 		.word	1072693248
 3634              		.cfi_endproc
 3635              	.LFE99:
 3636              		.size	MoveOneStepCW, .-MoveOneStepCW
 3637              		.section	.text.MoveOneStepCCW,"ax",%progbits
 3638              		.align	2
 3639              		.global	MoveOneStepCCW
 3640              		.thumb
 3641              		.thumb_func
 3642              		.type	MoveOneStepCCW, %function
 3643              	MoveOneStepCCW:
 3644              	.LFB100:
 143:./StepMotor.h ****     
 144:./StepMotor.h ****     void MoveOneStepCCW()
 145:./StepMotor.h ****     {
 3645              		.loc 14 145 0
 3646              		.cfi_startproc
 3647              		@ args = 0, pretend = 0, frame = 0
 3648              		@ frame_needed = 1, uses_anonymous_args = 0
 3649 0000 80B5     		push	{r7, lr}
 3650              		.cfi_def_cfa_offset 8
 3651              		.cfi_offset 7, -8
 3652              		.cfi_offset 14, -4
 3653 0002 00AF     		add	r7, sp, #0
 3654              		.cfi_def_cfa_register 7
 146:./StepMotor.h ****         MoveToWithConstSpeed(1, LEFT);
 3655              		.loc 14 146 0
 3656 0004 4FF00002 		mov	r2, #0
 3657 0008 034B     		ldr	r3, .L217
 3658 000a 4FF00000 		mov	r0, #0
 3659 000e 0349     		ldr	r1, .L217+4
 3660 0010 FFF7FEFF 		bl	MoveToWithConstSpeed
 147:./StepMotor.h ****     }
 3661              		.loc 14 147 0
 3662 0014 00BF     		nop
 3663 0016 80BD     		pop	{r7, pc}
 3664              	.L218:
 3665              		.align	2
 3666              	.L217:
 3667 0018 0000F0BF 		.word	-1074790400
 3668 001c 0000F03F 		.word	1072693248
 3669              		.cfi_endproc
ARM GAS  C:\Users\LOCALA~1\AppData\Local\Temp\ccsQji0c.s 			page 88


 3670              	.LFE100:
 3671              		.size	MoveOneStepCCW, .-MoveOneStepCCW
 3672              		.section	.text.Move10DegreeCW,"ax",%progbits
 3673              		.align	2
 3674              		.global	Move10DegreeCW
 3675              		.thumb
 3676              		.thumb_func
 3677              		.type	Move10DegreeCW, %function
 3678              	Move10DegreeCW:
 3679              	.LFB101:
 148:./StepMotor.h ****     
 149:./StepMotor.h ****     void Move10DegreeCW()
 150:./StepMotor.h ****     {
 3680              		.loc 14 150 0
 3681              		.cfi_startproc
 3682              		@ args = 0, pretend = 0, frame = 8
 3683              		@ frame_needed = 1, uses_anonymous_args = 0
 3684 0000 80B5     		push	{r7, lr}
 3685              		.cfi_def_cfa_offset 8
 3686              		.cfi_offset 7, -8
 3687              		.cfi_offset 14, -4
 3688 0002 82B0     		sub	sp, sp, #8
 3689              		.cfi_def_cfa_offset 16
 3690 0004 00AF     		add	r7, sp, #0
 3691              		.cfi_def_cfa_register 7
 151:./StepMotor.h ****         int StepsFor10Degree = Stepper_Diff_HomeSampling/90 * 10;
 3692              		.loc 14 151 0
 3693 0006 2823     		movs	r3, #40
 3694 0008 7B60     		str	r3, [r7, #4]
 152:./StepMotor.h ****         MoveToWithConstSpeed(StepsFor10Degree, RIGHT);
 3695              		.loc 14 152 0
 3696 000a 7868     		ldr	r0, [r7, #4]
 3697 000c FFF7FEFF 		bl	__aeabi_i2d
 3698 0010 4FF00002 		mov	r2, #0
 3699 0014 034B     		ldr	r3, .L220
 3700 0016 FFF7FEFF 		bl	MoveToWithConstSpeed
 153:./StepMotor.h ****     }
 3701              		.loc 14 153 0
 3702 001a 00BF     		nop
 3703 001c 0837     		adds	r7, r7, #8
 3704              		.cfi_def_cfa_offset 8
 3705 001e BD46     		mov	sp, r7
 3706              		.cfi_def_cfa_register 13
 3707              		@ sp needed
 3708 0020 80BD     		pop	{r7, pc}
 3709              	.L221:
 3710 0022 00BF     		.align	2
 3711              	.L220:
 3712 0024 0000F03F 		.word	1072693248
 3713              		.cfi_endproc
 3714              	.LFE101:
 3715              		.size	Move10DegreeCW, .-Move10DegreeCW
 3716              		.section	.text.Move10DegreeCCW,"ax",%progbits
 3717              		.align	2
 3718              		.global	Move10DegreeCCW
 3719              		.thumb
 3720              		.thumb_func
ARM GAS  C:\Users\LOCALA~1\AppData\Local\Temp\ccsQji0c.s 			page 89


 3721              		.type	Move10DegreeCCW, %function
 3722              	Move10DegreeCCW:
 3723              	.LFB102:
 154:./StepMotor.h ****     
 155:./StepMotor.h ****     void Move10DegreeCCW()
 156:./StepMotor.h ****     {
 3724              		.loc 14 156 0
 3725              		.cfi_startproc
 3726              		@ args = 0, pretend = 0, frame = 8
 3727              		@ frame_needed = 1, uses_anonymous_args = 0
 3728 0000 80B5     		push	{r7, lr}
 3729              		.cfi_def_cfa_offset 8
 3730              		.cfi_offset 7, -8
 3731              		.cfi_offset 14, -4
 3732 0002 82B0     		sub	sp, sp, #8
 3733              		.cfi_def_cfa_offset 16
 3734 0004 00AF     		add	r7, sp, #0
 3735              		.cfi_def_cfa_register 7
 157:./StepMotor.h ****         int StepsFor10Degree = Stepper_Diff_HomeSampling/90 * 10;
 3736              		.loc 14 157 0
 3737 0006 2823     		movs	r3, #40
 3738 0008 7B60     		str	r3, [r7, #4]
 158:./StepMotor.h ****         MoveToWithConstSpeed(StepsFor10Degree, LEFT);  
 3739              		.loc 14 158 0
 3740 000a 7868     		ldr	r0, [r7, #4]
 3741 000c FFF7FEFF 		bl	__aeabi_i2d
 3742 0010 4FF00002 		mov	r2, #0
 3743 0014 034B     		ldr	r3, .L223
 3744 0016 FFF7FEFF 		bl	MoveToWithConstSpeed
 159:./StepMotor.h ****     }
 3745              		.loc 14 159 0
 3746 001a 00BF     		nop
 3747 001c 0837     		adds	r7, r7, #8
 3748              		.cfi_def_cfa_offset 8
 3749 001e BD46     		mov	sp, r7
 3750              		.cfi_def_cfa_register 13
 3751              		@ sp needed
 3752 0020 80BD     		pop	{r7, pc}
 3753              	.L224:
 3754 0022 00BF     		.align	2
 3755              	.L223:
 3756 0024 0000F0BF 		.word	-1074790400
 3757              		.cfi_endproc
 3758              	.LFE102:
 3759              		.size	Move10DegreeCCW, .-Move10DegreeCCW
 3760              		.section	.text.Move90DegreeCW,"ax",%progbits
 3761              		.align	2
 3762              		.global	Move90DegreeCW
 3763              		.thumb
 3764              		.thumb_func
 3765              		.type	Move90DegreeCW, %function
 3766              	Move90DegreeCW:
 3767              	.LFB103:
 160:./StepMotor.h ****     
 161:./StepMotor.h ****     void Move90DegreeCW()
 162:./StepMotor.h ****     { 
 3768              		.loc 14 162 0
ARM GAS  C:\Users\LOCALA~1\AppData\Local\Temp\ccsQji0c.s 			page 90


 3769              		.cfi_startproc
 3770              		@ args = 0, pretend = 0, frame = 0
 3771              		@ frame_needed = 1, uses_anonymous_args = 0
 3772 0000 80B5     		push	{r7, lr}
 3773              		.cfi_def_cfa_offset 8
 3774              		.cfi_offset 7, -8
 3775              		.cfi_offset 14, -4
 3776 0002 00AF     		add	r7, sp, #0
 3777              		.cfi_def_cfa_register 7
 163:./StepMotor.h ****         MoveTo(Stepper_Diff_HomeSampling, RIGHT);
 3778              		.loc 14 163 0
 3779 0004 4FF00002 		mov	r2, #0
 3780 0008 034B     		ldr	r3, .L226
 3781 000a 4FF00000 		mov	r0, #0
 3782 000e 0349     		ldr	r1, .L226+4
 3783 0010 FFF7FEFF 		bl	MoveTo
 164:./StepMotor.h ****     }
 3784              		.loc 14 164 0
 3785 0014 00BF     		nop
 3786 0016 80BD     		pop	{r7, pc}
 3787              	.L227:
 3788              		.align	2
 3789              	.L226:
 3790 0018 0000F03F 		.word	1072693248
 3791 001c 00007940 		.word	1081671680
 3792              		.cfi_endproc
 3793              	.LFE103:
 3794              		.size	Move90DegreeCW, .-Move90DegreeCW
 3795              		.section	.text.Move90DegreeCCW,"ax",%progbits
 3796              		.align	2
 3797              		.global	Move90DegreeCCW
 3798              		.thumb
 3799              		.thumb_func
 3800              		.type	Move90DegreeCCW, %function
 3801              	Move90DegreeCCW:
 3802              	.LFB104:
 165:./StepMotor.h ****     
 166:./StepMotor.h ****     void Move90DegreeCCW()
 167:./StepMotor.h ****     {
 3803              		.loc 14 167 0
 3804              		.cfi_startproc
 3805              		@ args = 0, pretend = 0, frame = 0
 3806              		@ frame_needed = 1, uses_anonymous_args = 0
 3807 0000 80B5     		push	{r7, lr}
 3808              		.cfi_def_cfa_offset 8
 3809              		.cfi_offset 7, -8
 3810              		.cfi_offset 14, -4
 3811 0002 00AF     		add	r7, sp, #0
 3812              		.cfi_def_cfa_register 7
 168:./StepMotor.h ****         MoveTo(Stepper_Diff_HomeSampling, LEFT);
 3813              		.loc 14 168 0
 3814 0004 4FF00002 		mov	r2, #0
 3815 0008 034B     		ldr	r3, .L229
 3816 000a 4FF00000 		mov	r0, #0
 3817 000e 0349     		ldr	r1, .L229+4
 3818 0010 FFF7FEFF 		bl	MoveTo
 169:./StepMotor.h ****     }
ARM GAS  C:\Users\LOCALA~1\AppData\Local\Temp\ccsQji0c.s 			page 91


 3819              		.loc 14 169 0
 3820 0014 00BF     		nop
 3821 0016 80BD     		pop	{r7, pc}
 3822              	.L230:
 3823              		.align	2
 3824              	.L229:
 3825 0018 0000F0BF 		.word	-1074790400
 3826 001c 00007940 		.word	1081671680
 3827              		.cfi_endproc
 3828              	.LFE104:
 3829              		.size	Move90DegreeCCW, .-Move90DegreeCCW
 3830              		.section	.text.Init_StepMotor,"ax",%progbits
 3831              		.align	2
 3832              		.global	Init_StepMotor
 3833              		.thumb
 3834              		.thumb_func
 3835              		.type	Init_StepMotor, %function
 3836              	Init_StepMotor:
 3837              	.LFB105:
 170:./StepMotor.h ****     
 171:./StepMotor.h ****     void Init_StepMotor()
 172:./StepMotor.h ****     {
 3838              		.loc 14 172 0
 3839              		.cfi_startproc
 3840              		@ args = 0, pretend = 0, frame = 0
 3841              		@ frame_needed = 1, uses_anonymous_args = 0
 3842 0000 80B5     		push	{r7, lr}
 3843              		.cfi_def_cfa_offset 8
 3844              		.cfi_offset 7, -8
 3845              		.cfi_offset 14, -4
 3846 0002 00AF     		add	r7, sp, #0
 3847              		.cfi_def_cfa_register 7
 173:./StepMotor.h ****         // Betriebsart des Motors festlegen
 174:./StepMotor.h ****         Pin_StepperMS1_Write(0); 	                // => 16tel-Schritt
 3848              		.loc 14 174 0
 3849 0004 0020     		movs	r0, #0
 3850 0006 FFF7FEFF 		bl	Pin_StepperMS1_Write
 175:./StepMotor.h ****         Pin_StepperMS2_Write(0);    
 3851              		.loc 14 175 0
 3852 000a 0020     		movs	r0, #0
 3853 000c FFF7FEFF 		bl	Pin_StepperMS2_Write
 176:./StepMotor.h ****         Pin_StepperMS3_Write(1);   
 3854              		.loc 14 176 0
 3855 0010 0120     		movs	r0, #1
 3856 0012 FFF7FEFF 		bl	Pin_StepperMS3_Write
 177:./StepMotor.h ****         /*
 178:./StepMotor.h ****         MODE0 	MODE1 	MODE2 	Microstepping
 179:./StepMotor.h ****         0 	    0 	    0 	    Vollschritt
 180:./StepMotor.h ****         1 	    0 	    0 	    Halbschritt
 181:./StepMotor.h ****         0 	    1 	    1 	    1/4 Schritt
 182:./StepMotor.h ****         1 	    1 	    0 	    1/8 Schritt
 183:./StepMotor.h ****         0 	    0 	    1 	    1/16 Schritt        x => momentan ausgewhlt 
 184:./StepMotor.h ****         1 	    0 	    1 	    1/32 Schritt
 185:./StepMotor.h ****         0 	    1 	    1 	    1/32 Schritt
 186:./StepMotor.h ****         1 	    1 	    1 	    1/32 Schritt        
 187:./StepMotor.h ****         */	
 188:./StepMotor.h ****         
ARM GAS  C:\Users\LOCALA~1\AppData\Local\Temp\ccsQji0c.s 			page 92


 189:./StepMotor.h ****         // ENABLE -> Enable Stepper-Motor an
 190:./StepMotor.h ****         Pin_StepperEN_Write(0); 
 3857              		.loc 14 190 0
 3858 0016 0020     		movs	r0, #0
 3859 0018 FFF7FEFF 		bl	Pin_StepperEN_Write
 191:./StepMotor.h ****         // SLEEP -> Motor in Schlafzustand setzen -> keine Leistungsaufnahme
 192:./StepMotor.h ****         Pin_StepperSLEEP_Write(0);
 3860              		.loc 14 192 0
 3861 001c 0020     		movs	r0, #0
 3862 001e FFF7FEFF 		bl	Pin_StepperSLEEP_Write
 193:./StepMotor.h ****         // SLEEP -> Motor "aufwecken" -> Leistungsaufnahme
 194:./StepMotor.h ****         Pin_StepperSLEEP_Write(1);
 3863              		.loc 14 194 0
 3864 0022 0120     		movs	r0, #1
 3865 0024 FFF7FEFF 		bl	Pin_StepperSLEEP_Write
 195:./StepMotor.h ****         // RESET -> nicht(!) resetten
 196:./StepMotor.h ****         Pin_StepperRES_Write(1);
 3866              		.loc 14 196 0
 3867 0028 0120     		movs	r0, #1
 3868 002a FFF7FEFF 		bl	Pin_StepperRES_Write
 197:./StepMotor.h ****     }
 3869              		.loc 14 197 0
 3870 002e 00BF     		nop
 3871 0030 80BD     		pop	{r7, pc}
 3872              		.cfi_endproc
 3873              	.LFE105:
 3874              		.size	Init_StepMotor, .-Init_StepMotor
 3875 0032 00BF     		.section	.rodata
 3876 01a5 000000   		.align	2
 3877              	.LC33:
 3878 01a8 625F4C61 		.ascii	"b_Laser1\000"
 3878      73657231 
 3878      00
 3879 01b1 000000   		.align	2
 3880              	.LC34:
 3881 01b4 625F4C61 		.ascii	"b_Laser2\000"
 3881      73657232 
 3881      00
 3882 01bd 000000   		.align	2
 3883              	.LC35:
 3884 01c0 625F4C61 		.ascii	"b_Laser3\000"
 3884      73657233 
 3884      00
 3885              		.section	.text.switchLasers,"ax",%progbits
 3886              		.align	2
 3887              		.global	switchLasers
 3888              		.thumb
 3889              		.thumb_func
 3890              		.type	switchLasers, %function
 3891              	switchLasers:
 3892              	.LFB106:
 3893              		.file 15 "./SetupOfMeasurement.h"
   1:./SetupOfMeasurement.h **** /* ========================================
   2:./SetupOfMeasurement.h ****  *
   3:./SetupOfMeasurement.h ****  * Copyright YOUR COMPANY, THE YEAR
   4:./SetupOfMeasurement.h ****  * All Rights Reserved
   5:./SetupOfMeasurement.h ****  * UNPUBLISHED, LICENSED SOFTWARE.
ARM GAS  C:\Users\LOCALA~1\AppData\Local\Temp\ccsQji0c.s 			page 93


   6:./SetupOfMeasurement.h ****  *
   7:./SetupOfMeasurement.h ****  * CONFIDENTIAL AND PROPRIETARY INFORMATION
   8:./SetupOfMeasurement.h ****  * WHICH IS THE PROPERTY OF your company.
   9:./SetupOfMeasurement.h ****  *
  10:./SetupOfMeasurement.h ****  * ========================================
  11:./SetupOfMeasurement.h **** */
  12:./SetupOfMeasurement.h **** 
  13:./SetupOfMeasurement.h **** #ifndef SETUPOFMEASUREMENT_H
  14:./SetupOfMeasurement.h ****     #define SETUPOFMEASUREMENT_H
  15:./SetupOfMeasurement.h **** 
  16:./SetupOfMeasurement.h ****     #include <GlobalVariables.h>
  17:./SetupOfMeasurement.h ****     #include <Nextion.h>
  18:./SetupOfMeasurement.h ****     #include <Nextion_PlotSetupData.h>
  19:./SetupOfMeasurement.h ****     #include <Laser.h>
  20:./SetupOfMeasurement.h ****     #include <ADC.h>
  21:./SetupOfMeasurement.h ****     #include <StepMotor.h>
  22:./SetupOfMeasurement.h ****     #include <Error.h>
  23:./SetupOfMeasurement.h ****     
  24:./SetupOfMeasurement.h ****     
  25:./SetupOfMeasurement.h ****     void switchLasers(char const symbol)
  26:./SetupOfMeasurement.h ****     {
 3894              		.loc 15 26 0
 3895              		.cfi_startproc
 3896              		@ args = 0, pretend = 0, frame = 8
 3897              		@ frame_needed = 1, uses_anonymous_args = 0
 3898 0000 80B5     		push	{r7, lr}
 3899              		.cfi_def_cfa_offset 8
 3900              		.cfi_offset 7, -8
 3901              		.cfi_offset 14, -4
 3902 0002 82B0     		sub	sp, sp, #8
 3903              		.cfi_def_cfa_offset 16
 3904 0004 00AF     		add	r7, sp, #0
 3905              		.cfi_def_cfa_register 7
 3906 0006 0346     		mov	r3, r0
 3907 0008 FB71     		strb	r3, [r7, #7]
  27:./SetupOfMeasurement.h ****         switch(symbol)
 3908              		.loc 15 27 0
 3909 000a FB79     		ldrb	r3, [r7, #7]	@ zero_extendqisi2
 3910 000c 322B     		cmp	r3, #50
 3911 000e 16D0     		beq	.L234
 3912 0010 332B     		cmp	r3, #51
 3913 0012 26D0     		beq	.L235
 3914 0014 312B     		cmp	r3, #49
 3915 0016 00D0     		beq	.L236
  28:./SetupOfMeasurement.h ****         {
  29:./SetupOfMeasurement.h ****             case BUTTON_LASER1:
  30:./SetupOfMeasurement.h ****                 Laser1_Toggle();
  31:./SetupOfMeasurement.h ****                 if (LaserState1)
  32:./SetupOfMeasurement.h ****                 {
  33:./SetupOfMeasurement.h ****                     Nextion_SendBackgroundColorToButton("b_Laser1", NextionColor_Green);
  34:./SetupOfMeasurement.h ****                 }
  35:./SetupOfMeasurement.h ****                 else
  36:./SetupOfMeasurement.h ****                 {
  37:./SetupOfMeasurement.h ****                     Nextion_SendBackgroundColorToButton("b_Laser1", NextionColor_Red);
  38:./SetupOfMeasurement.h ****                 }
  39:./SetupOfMeasurement.h ****                 break;
  40:./SetupOfMeasurement.h ****                 
ARM GAS  C:\Users\LOCALA~1\AppData\Local\Temp\ccsQji0c.s 			page 94


  41:./SetupOfMeasurement.h ****             case BUTTON_LASER2:
  42:./SetupOfMeasurement.h ****                 Laser2_Toggle();
  43:./SetupOfMeasurement.h ****                 if (LaserState2)
  44:./SetupOfMeasurement.h ****                 {
  45:./SetupOfMeasurement.h ****                     Nextion_SendBackgroundColorToButton("b_Laser2", NextionColor_Green);
  46:./SetupOfMeasurement.h ****                 }
  47:./SetupOfMeasurement.h ****                 else
  48:./SetupOfMeasurement.h ****                 {
  49:./SetupOfMeasurement.h ****                     Nextion_SendBackgroundColorToButton("b_Laser2", NextionColor_Red);
  50:./SetupOfMeasurement.h ****                 }
  51:./SetupOfMeasurement.h ****                 break;
  52:./SetupOfMeasurement.h ****                 
  53:./SetupOfMeasurement.h ****             case BUTTON_LASER3:
  54:./SetupOfMeasurement.h ****                 Laser3_Toggle();
  55:./SetupOfMeasurement.h ****                 if (LaserState3)
  56:./SetupOfMeasurement.h ****                 {
  57:./SetupOfMeasurement.h ****                     Nextion_SendBackgroundColorToButton("b_Laser3", NextionColor_Green);
  58:./SetupOfMeasurement.h ****                 }
  59:./SetupOfMeasurement.h ****                 else
  60:./SetupOfMeasurement.h ****                 {
  61:./SetupOfMeasurement.h ****                     Nextion_SendBackgroundColorToButton("b_Laser3", NextionColor_Red);
  62:./SetupOfMeasurement.h ****                 }
  63:./SetupOfMeasurement.h ****                 break;
  64:./SetupOfMeasurement.h ****             default:
  65:./SetupOfMeasurement.h ****                 break;
 3916              		.loc 15 65 0
 3917 0018 35E0     		b	.L239
 3918              	.L236:
  30:./SetupOfMeasurement.h ****                 if (LaserState1)
 3919              		.loc 15 30 0
 3920 001a FFF7FEFF 		bl	Laser1_Toggle
  31:./SetupOfMeasurement.h ****                 {
 3921              		.loc 15 31 0
 3922 001e 1C4B     		ldr	r3, .L245
 3923 0020 1B78     		ldrb	r3, [r3]	@ zero_extendqisi2
 3924 0022 002B     		cmp	r3, #0
 3925 0024 05D0     		beq	.L237
  33:./SetupOfMeasurement.h ****                 }
 3926              		.loc 15 33 0
 3927 0026 48F2E071 		movw	r1, #34784
 3928 002a 1A48     		ldr	r0, .L245+4
 3929 002c FFF7FEFF 		bl	Nextion_SendBackgroundColorToButton
  39:./SetupOfMeasurement.h ****                 
 3930              		.loc 15 39 0
 3931 0030 29E0     		b	.L239
 3932              	.L237:
  37:./SetupOfMeasurement.h ****                 }
 3933              		.loc 15 37 0
 3934 0032 4FF47841 		mov	r1, #63488
 3935 0036 1748     		ldr	r0, .L245+4
 3936 0038 FFF7FEFF 		bl	Nextion_SendBackgroundColorToButton
  39:./SetupOfMeasurement.h ****                 
 3937              		.loc 15 39 0
 3938 003c 23E0     		b	.L239
 3939              	.L234:
  42:./SetupOfMeasurement.h ****                 if (LaserState2)
 3940              		.loc 15 42 0
ARM GAS  C:\Users\LOCALA~1\AppData\Local\Temp\ccsQji0c.s 			page 95


 3941 003e FFF7FEFF 		bl	Laser2_Toggle
  43:./SetupOfMeasurement.h ****                 {
 3942              		.loc 15 43 0
 3943 0042 154B     		ldr	r3, .L245+8
 3944 0044 1B78     		ldrb	r3, [r3]	@ zero_extendqisi2
 3945 0046 002B     		cmp	r3, #0
 3946 0048 05D0     		beq	.L240
  45:./SetupOfMeasurement.h ****                 }
 3947              		.loc 15 45 0
 3948 004a 48F2E071 		movw	r1, #34784
 3949 004e 1348     		ldr	r0, .L245+12
 3950 0050 FFF7FEFF 		bl	Nextion_SendBackgroundColorToButton
  51:./SetupOfMeasurement.h ****                 
 3951              		.loc 15 51 0
 3952 0054 17E0     		b	.L239
 3953              	.L240:
  49:./SetupOfMeasurement.h ****                 }
 3954              		.loc 15 49 0
 3955 0056 4FF47841 		mov	r1, #63488
 3956 005a 1048     		ldr	r0, .L245+12
 3957 005c FFF7FEFF 		bl	Nextion_SendBackgroundColorToButton
  51:./SetupOfMeasurement.h ****                 
 3958              		.loc 15 51 0
 3959 0060 11E0     		b	.L239
 3960              	.L235:
  54:./SetupOfMeasurement.h ****                 if (LaserState3)
 3961              		.loc 15 54 0
 3962 0062 FFF7FEFF 		bl	Laser3_Toggle
  55:./SetupOfMeasurement.h ****                 {
 3963              		.loc 15 55 0
 3964 0066 0E4B     		ldr	r3, .L245+16
 3965 0068 1B78     		ldrb	r3, [r3]	@ zero_extendqisi2
 3966 006a 002B     		cmp	r3, #0
 3967 006c 05D0     		beq	.L242
  57:./SetupOfMeasurement.h ****                 }
 3968              		.loc 15 57 0
 3969 006e 48F2E071 		movw	r1, #34784
 3970 0072 0C48     		ldr	r0, .L245+20
 3971 0074 FFF7FEFF 		bl	Nextion_SendBackgroundColorToButton
  63:./SetupOfMeasurement.h ****             default:
 3972              		.loc 15 63 0
 3973 0078 04E0     		b	.L244
 3974              	.L242:
  61:./SetupOfMeasurement.h ****                 }
 3975              		.loc 15 61 0
 3976 007a 4FF47841 		mov	r1, #63488
 3977 007e 0948     		ldr	r0, .L245+20
 3978 0080 FFF7FEFF 		bl	Nextion_SendBackgroundColorToButton
 3979              	.L244:
  63:./SetupOfMeasurement.h ****             default:
 3980              		.loc 15 63 0
 3981 0084 00BF     		nop
 3982              	.L239:
  66:./SetupOfMeasurement.h ****         }
  67:./SetupOfMeasurement.h ****     }
 3983              		.loc 15 67 0
 3984 0086 00BF     		nop
ARM GAS  C:\Users\LOCALA~1\AppData\Local\Temp\ccsQji0c.s 			page 96


 3985 0088 0837     		adds	r7, r7, #8
 3986              		.cfi_def_cfa_offset 8
 3987 008a BD46     		mov	sp, r7
 3988              		.cfi_def_cfa_register 13
 3989              		@ sp needed
 3990 008c 80BD     		pop	{r7, pc}
 3991              	.L246:
 3992 008e 00BF     		.align	2
 3993              	.L245:
 3994 0090 00000000 		.word	LaserState1
 3995 0094 A8010000 		.word	.LC33
 3996 0098 00000000 		.word	LaserState2
 3997 009c B4010000 		.word	.LC34
 3998 00a0 00000000 		.word	LaserState3
 3999 00a4 C0010000 		.word	.LC35
 4000              		.cfi_endproc
 4001              	.LFE106:
 4002              		.size	switchLasers, .-switchLasers
 4003              		.section	.text.rotateStepMotor,"ax",%progbits
 4004              		.align	2
 4005              		.global	rotateStepMotor
 4006              		.thumb
 4007              		.thumb_func
 4008              		.type	rotateStepMotor, %function
 4009              	rotateStepMotor:
 4010              	.LFB107:
  68:./SetupOfMeasurement.h ****     
  69:./SetupOfMeasurement.h ****     void rotateStepMotor(char const symbol)
  70:./SetupOfMeasurement.h ****     {
 4011              		.loc 15 70 0
 4012              		.cfi_startproc
 4013              		@ args = 0, pretend = 0, frame = 8
 4014              		@ frame_needed = 1, uses_anonymous_args = 0
 4015 0000 80B5     		push	{r7, lr}
 4016              		.cfi_def_cfa_offset 8
 4017              		.cfi_offset 7, -8
 4018              		.cfi_offset 14, -4
 4019 0002 82B0     		sub	sp, sp, #8
 4020              		.cfi_def_cfa_offset 16
 4021 0004 00AF     		add	r7, sp, #0
 4022              		.cfi_def_cfa_register 7
 4023 0006 0346     		mov	r3, r0
 4024 0008 FB71     		strb	r3, [r7, #7]
  71:./SetupOfMeasurement.h ****         switch(symbol)
 4025              		.loc 15 71 0
 4026 000a FB79     		ldrb	r3, [r7, #7]	@ zero_extendqisi2
 4027 000c 213B     		subs	r3, r3, #33
 4028 000e 1E2B     		cmp	r3, #30
 4029 0010 5CD8     		bhi	.L258
 4030 0012 01A2     		adr	r2, .L250
 4031 0014 52F823F0 		ldr	pc, [r2, r3, lsl #2]
 4032              		.p2align 2
 4033              	.L250:
 4034 0018 AD000000 		.word	.L249+1
 4035 001c CD000000 		.word	.L258+1
 4036 0020 B9000000 		.word	.L251+1
 4037 0024 CD000000 		.word	.L258+1
ARM GAS  C:\Users\LOCALA~1\AppData\Local\Temp\ccsQji0c.s 			page 97


 4038 0028 CD000000 		.word	.L258+1
 4039 002c CD000000 		.word	.L258+1
 4040 0030 CD000000 		.word	.L258+1
 4041 0034 CD000000 		.word	.L258+1
 4042 0038 CD000000 		.word	.L258+1
 4043 003c CD000000 		.word	.L258+1
 4044 0040 95000000 		.word	.L252+1
 4045 0044 A7000000 		.word	.L253+1
 4046 0048 9B000000 		.word	.L254+1
 4047 004c A1000000 		.word	.L255+1
 4048 0050 CD000000 		.word	.L258+1
 4049 0054 CD000000 		.word	.L258+1
 4050 0058 CD000000 		.word	.L258+1
 4051 005c CD000000 		.word	.L258+1
 4052 0060 CD000000 		.word	.L258+1
 4053 0064 CD000000 		.word	.L258+1
 4054 0068 CD000000 		.word	.L258+1
 4055 006c CD000000 		.word	.L258+1
 4056 0070 CD000000 		.word	.L258+1
 4057 0074 CD000000 		.word	.L258+1
 4058 0078 CD000000 		.word	.L258+1
 4059 007c CD000000 		.word	.L258+1
 4060 0080 CD000000 		.word	.L258+1
 4061 0084 CD000000 		.word	.L258+1
 4062 0088 CD000000 		.word	.L258+1
 4063 008c CD000000 		.word	.L258+1
 4064 0090 B3000000 		.word	.L256+1
 4065              		.p2align 1
 4066              	.L252:
  72:./SetupOfMeasurement.h ****         {
  73:./SetupOfMeasurement.h ****             case BUTTON_1STEP_CW:
  74:./SetupOfMeasurement.h ****                 MoveOneStepCW();
 4067              		.loc 15 74 0
 4068 0094 FFF7FEFF 		bl	MoveOneStepCW
  75:./SetupOfMeasurement.h ****                 break;
 4069              		.loc 15 75 0
 4070 0098 19E0     		b	.L257
 4071              	.L254:
  76:./SetupOfMeasurement.h ****                 
  77:./SetupOfMeasurement.h ****             case BUTTON_1STEP_CCW:
  78:./SetupOfMeasurement.h ****                 MoveOneStepCCW();
 4072              		.loc 15 78 0
 4073 009a FFF7FEFF 		bl	MoveOneStepCCW
  79:./SetupOfMeasurement.h ****                 break;
 4074              		.loc 15 79 0
 4075 009e 16E0     		b	.L257
 4076              	.L255:
  80:./SetupOfMeasurement.h ****                 
  81:./SetupOfMeasurement.h ****             case BUTTON_10DEG_CW:
  82:./SetupOfMeasurement.h ****                 Move10DegreeCW();
 4077              		.loc 15 82 0
 4078 00a0 FFF7FEFF 		bl	Move10DegreeCW
  83:./SetupOfMeasurement.h ****                 break;
 4079              		.loc 15 83 0
 4080 00a4 13E0     		b	.L257
 4081              	.L253:
  84:./SetupOfMeasurement.h ****             case BUTTON_10DEG_CCW:
ARM GAS  C:\Users\LOCALA~1\AppData\Local\Temp\ccsQji0c.s 			page 98


  85:./SetupOfMeasurement.h ****                 Move10DegreeCCW();
 4082              		.loc 15 85 0
 4083 00a6 FFF7FEFF 		bl	Move10DegreeCCW
  86:./SetupOfMeasurement.h ****                 break;
 4084              		.loc 15 86 0
 4085 00aa 10E0     		b	.L257
 4086              	.L249:
  87:./SetupOfMeasurement.h ****                 
  88:./SetupOfMeasurement.h ****             case BUTTON_90DEG_CW:
  89:./SetupOfMeasurement.h ****                 Move90DegreeCW();
 4087              		.loc 15 89 0
 4088 00ac FFF7FEFF 		bl	Move90DegreeCW
  90:./SetupOfMeasurement.h ****                 break;
 4089              		.loc 15 90 0
 4090 00b0 0DE0     		b	.L257
 4091              	.L256:
  91:./SetupOfMeasurement.h ****             case BUTTON_90DEG_CCW:
  92:./SetupOfMeasurement.h ****                 Move90DegreeCCW();
 4092              		.loc 15 92 0
 4093 00b2 FFF7FEFF 		bl	Move90DegreeCCW
  93:./SetupOfMeasurement.h ****                 break;
 4094              		.loc 15 93 0
 4095 00b6 0AE0     		b	.L257
 4096              	.L251:
  94:./SetupOfMeasurement.h ****                 
  95:./SetupOfMeasurement.h ****             case BUTTON_CREATELAMELLA:
  96:./SetupOfMeasurement.h ****                 Move90DegreeCW();
 4097              		.loc 15 96 0
 4098 00b8 FFF7FEFF 		bl	Move90DegreeCW
  97:./SetupOfMeasurement.h ****                 CyDelay(g_FormationTime_ms);
 4099              		.loc 15 97 0
 4100 00bc 064B     		ldr	r3, .L259
 4101 00be 1B68     		ldr	r3, [r3]
 4102 00c0 1846     		mov	r0, r3
 4103 00c2 FFF7FEFF 		bl	CyDelay
  98:./SetupOfMeasurement.h ****                 Move90DegreeCCW();
 4104              		.loc 15 98 0
 4105 00c6 FFF7FEFF 		bl	Move90DegreeCCW
  99:./SetupOfMeasurement.h ****                 break;
 4106              		.loc 15 99 0
 4107 00ca 00E0     		b	.L257
 4108              	.L258:
 100:./SetupOfMeasurement.h ****                 
 101:./SetupOfMeasurement.h ****             default:
 102:./SetupOfMeasurement.h ****                 break;
 4109              		.loc 15 102 0
 4110 00cc 00BF     		nop
 4111              	.L257:
 103:./SetupOfMeasurement.h ****         }
 104:./SetupOfMeasurement.h ****     }
 4112              		.loc 15 104 0
 4113 00ce 00BF     		nop
 4114 00d0 0837     		adds	r7, r7, #8
 4115              		.cfi_def_cfa_offset 8
 4116 00d2 BD46     		mov	sp, r7
 4117              		.cfi_def_cfa_register 13
 4118              		@ sp needed
ARM GAS  C:\Users\LOCALA~1\AppData\Local\Temp\ccsQji0c.s 			page 99


 4119 00d4 80BD     		pop	{r7, pc}
 4120              	.L260:
 4121 00d6 00BF     		.align	2
 4122              	.L259:
 4123 00d8 00000000 		.word	g_FormationTime_ms
 4124              		.cfi_endproc
 4125              	.LFE107:
 4126              		.size	rotateStepMotor, .-rotateStepMotor
 4127              		.section	.rodata
 4128 01c9 000000   		.align	2
 4129              	.LC36:
 4130 01cc 70616765 		.ascii	"page Setup\000"
 4130      20536574 
 4130      757000
 4131 01d7 00       		.align	2
 4132              	.LC37:
 4133 01d8 6E5F4144 		.ascii	"n_ADC\000"
 4133      4300
 4134              		.global	__aeabi_i2f
 4135              		.section	.text.SetupOfMeasurement,"ax",%progbits
 4136              		.align	2
 4137              		.global	SetupOfMeasurement
 4138              		.thumb
 4139              		.thumb_func
 4140              		.type	SetupOfMeasurement, %function
 4141              	SetupOfMeasurement:
 4142              	.LFB108:
 105:./SetupOfMeasurement.h ****     
 106:./SetupOfMeasurement.h ****     int SetupOfMeasurement()
 107:./SetupOfMeasurement.h ****     {     
 4143              		.loc 15 107 0
 4144              		.cfi_startproc
 4145              		@ args = 0, pretend = 0, frame = 8
 4146              		@ frame_needed = 1, uses_anonymous_args = 0
 4147 0000 90B5     		push	{r4, r7, lr}
 4148              		.cfi_def_cfa_offset 12
 4149              		.cfi_offset 4, -12
 4150              		.cfi_offset 7, -8
 4151              		.cfi_offset 14, -4
 4152 0002 83B0     		sub	sp, sp, #12
 4153              		.cfi_def_cfa_offset 24
 4154 0004 00AF     		add	r7, sp, #0
 4155              		.cfi_def_cfa_register 7
 108:./SetupOfMeasurement.h ****         Nextion_SendString("page Setup");
 4156              		.loc 15 108 0
 4157 0006 2948     		ldr	r0, .L270
 4158 0008 FFF7FEFF 		bl	Nextion_SendString
 109:./SetupOfMeasurement.h ****         g_NextionInterrupt = '0';
 4159              		.loc 15 109 0
 4160 000c 284B     		ldr	r3, .L270+4
 4161 000e 3022     		movs	r2, #48
 4162 0010 1A70     		strb	r2, [r3]
 110:./SetupOfMeasurement.h ****         // Init
 111:./SetupOfMeasurement.h ****         
 112:./SetupOfMeasurement.h ****         // Turn off all lasers for safety reasons.
 113:./SetupOfMeasurement.h ****         turnAllLasersOff();
 4163              		.loc 15 113 0
ARM GAS  C:\Users\LOCALA~1\AppData\Local\Temp\ccsQji0c.s 			page 100


 4164 0012 FFF7FEFF 		bl	turnAllLasersOff
 114:./SetupOfMeasurement.h ****         
 115:./SetupOfMeasurement.h ****         Nextion_SendBackgroundColorToButton("b_Laser1", NextionColor_Red);
 4165              		.loc 15 115 0
 4166 0016 4FF47841 		mov	r1, #63488
 4167 001a 2648     		ldr	r0, .L270+8
 4168 001c FFF7FEFF 		bl	Nextion_SendBackgroundColorToButton
 116:./SetupOfMeasurement.h ****         Nextion_SendBackgroundColorToButton("b_Laser2", NextionColor_Red);
 4169              		.loc 15 116 0
 4170 0020 4FF47841 		mov	r1, #63488
 4171 0024 2448     		ldr	r0, .L270+12
 4172 0026 FFF7FEFF 		bl	Nextion_SendBackgroundColorToButton
 117:./SetupOfMeasurement.h ****         Nextion_SendBackgroundColorToButton("b_Laser3", NextionColor_Red);
 4173              		.loc 15 117 0
 4174 002a 4FF47841 		mov	r1, #63488
 4175 002e 2348     		ldr	r0, .L270+16
 4176 0030 FFF7FEFF 		bl	Nextion_SendBackgroundColorToButton
 4177              	.L267:
 118:./SetupOfMeasurement.h ****         
 119:./SetupOfMeasurement.h ****         // Main 
 120:./SetupOfMeasurement.h ****         
 121:./SetupOfMeasurement.h ****         
 122:./SetupOfMeasurement.h ****         
 123:./SetupOfMeasurement.h ****         while (1)
 124:./SetupOfMeasurement.h ****         {
 125:./SetupOfMeasurement.h ****             // Plotting of current ADC value onto Nextion. 
 126:./SetupOfMeasurement.h ****             if (v_timerflag_100ms)
 4178              		.loc 15 126 0
 4179 0034 224B     		ldr	r3, .L270+20
 4180 0036 1B78     		ldrb	r3, [r3]
 4181 0038 DBB2     		uxtb	r3, r3
 4182 003a 002B     		cmp	r3, #0
 4183 003c 19D0     		beq	.L262
 4184              	.LBB11:
 127:./SetupOfMeasurement.h ****             {
 128:./SetupOfMeasurement.h ****                 v_timerflag_100ms = 0;   
 4185              		.loc 15 128 0
 4186 003e 204B     		ldr	r3, .L270+20
 4187 0040 0022     		movs	r2, #0
 4188 0042 1A70     		strb	r2, [r3]
 129:./SetupOfMeasurement.h ****                 
 130:./SetupOfMeasurement.h ****                 int ADCValue = GetADCValue();
 4189              		.loc 15 130 0
 4190 0044 FFF7FEFF 		bl	GetADCValue
 4191 0048 0346     		mov	r3, r0
 4192 004a 7B60     		str	r3, [r7, #4]
 131:./SetupOfMeasurement.h ****                 
 132:./SetupOfMeasurement.h ****                 Nextion_SendValueToValueBox("n_ADC", ADCValue);
 4193              		.loc 15 132 0
 4194 004c 7968     		ldr	r1, [r7, #4]
 4195 004e 1D48     		ldr	r0, .L270+24
 4196 0050 FFF7FEFF 		bl	Nextion_SendValueToValueBox
 133:./SetupOfMeasurement.h ****                 NextionPlot_PointsToSetupAxes((float)g_ThresholdValue_mV, 4095, (float)ADCValue);
 4197              		.loc 15 133 0
 4198 0054 1C4B     		ldr	r3, .L270+28
 4199 0056 1B68     		ldr	r3, [r3]
 4200 0058 1846     		mov	r0, r3
ARM GAS  C:\Users\LOCALA~1\AppData\Local\Temp\ccsQji0c.s 			page 101


 4201 005a FFF7FEFF 		bl	__aeabi_i2f
 4202 005e 0446     		mov	r4, r0
 4203 0060 7868     		ldr	r0, [r7, #4]
 4204 0062 FFF7FEFF 		bl	__aeabi_i2f
 4205 0066 0346     		mov	r3, r0
 4206 0068 1A46     		mov	r2, r3
 4207 006a 1849     		ldr	r1, .L270+32
 4208 006c 2046     		mov	r0, r4
 4209 006e FFF7FEFF 		bl	NextionPlot_PointsToSetupAxes
 4210              	.L262:
 4211              	.LBE11:
 134:./SetupOfMeasurement.h ****             }
 135:./SetupOfMeasurement.h ****             // Reacting to Input-Buttons:
 136:./SetupOfMeasurement.h ****             switchLasers(g_NextionInterrupt);
 4212              		.loc 15 136 0
 4213 0072 0F4B     		ldr	r3, .L270+4
 4214 0074 1B78     		ldrb	r3, [r3]	@ zero_extendqisi2
 4215 0076 1846     		mov	r0, r3
 4216 0078 FFF7FEFF 		bl	switchLasers
 137:./SetupOfMeasurement.h ****             rotateStepMotor(g_NextionInterrupt);
 4217              		.loc 15 137 0
 4218 007c 0C4B     		ldr	r3, .L270+4
 4219 007e 1B78     		ldrb	r3, [r3]	@ zero_extendqisi2
 4220 0080 1846     		mov	r0, r3
 4221 0082 FFF7FEFF 		bl	rotateStepMotor
 138:./SetupOfMeasurement.h ****             switch (g_NextionInterrupt)
 4222              		.loc 15 138 0
 4223 0086 0A4B     		ldr	r3, .L270+4
 4224 0088 1B78     		ldrb	r3, [r3]	@ zero_extendqisi2
 4225 008a 482B     		cmp	r3, #72
 4226 008c 04D0     		beq	.L264
 4227 008e 592B     		cmp	r3, #89
 4228 0090 00D0     		beq	.L265
 139:./SetupOfMeasurement.h ****             {
 140:./SetupOfMeasurement.h ****                 case BUTTON_CONFIRM:                   // Confirm -> Messstart!
 141:./SetupOfMeasurement.h ****                     return 0;
 142:./SetupOfMeasurement.h ****                     break;
 143:./SetupOfMeasurement.h ****                 case BUTTON_HOME:
 144:./SetupOfMeasurement.h ****                     return 1;
 145:./SetupOfMeasurement.h ****                     break;
 146:./SetupOfMeasurement.h ****                 default:
 147:./SetupOfMeasurement.h ****                     break;
 4229              		.loc 15 147 0
 4230 0092 03E0     		b	.L269
 4231              	.L265:
 141:./SetupOfMeasurement.h ****                     break;
 4232              		.loc 15 141 0
 4233 0094 0023     		movs	r3, #0
 4234 0096 05E0     		b	.L266
 4235              	.L264:
 144:./SetupOfMeasurement.h ****                     break;
 4236              		.loc 15 144 0
 4237 0098 0123     		movs	r3, #1
 4238 009a 03E0     		b	.L266
 4239              	.L269:
 148:./SetupOfMeasurement.h ****             }   
 149:./SetupOfMeasurement.h ****             g_NextionInterrupt = '0';
ARM GAS  C:\Users\LOCALA~1\AppData\Local\Temp\ccsQji0c.s 			page 102


 4240              		.loc 15 149 0
 4241 009c 044B     		ldr	r3, .L270+4
 4242 009e 3022     		movs	r2, #48
 4243 00a0 1A70     		strb	r2, [r3]
 150:./SetupOfMeasurement.h ****         }
 4244              		.loc 15 150 0
 4245 00a2 C7E7     		b	.L267
 4246              	.L266:
 151:./SetupOfMeasurement.h ****     }
 4247              		.loc 15 151 0
 4248 00a4 1846     		mov	r0, r3
 4249 00a6 0C37     		adds	r7, r7, #12
