ARM GAS  C:\Users\LOCALA~1\AppData\Local\Temp\ccYJKuih.s 			page 1


   1              		.syntax unified
   2              		.cpu cortex-m3
   3              		.fpu softvfp
   4              		.eabi_attribute 20, 1
   5              		.eabi_attribute 21, 1
   6              		.eabi_attribute 23, 3
   7              		.eabi_attribute 24, 1
   8              		.eabi_attribute 25, 1
   9              		.eabi_attribute 26, 1
  10              		.eabi_attribute 30, 6
  11              		.eabi_attribute 34, 1
  12              		.eabi_attribute 18, 4
  13              		.thumb
  14              		.syntax unified
  15              		.file	"StepMotor.c"
  16              		.text
  17              	.Ltext0:
  18              		.cfi_sections	.debug_frame
  19              		.global	g_NextionInterrupt
  20              		.data
  21              		.type	g_NextionInterrupt, %object
  22              		.size	g_NextionInterrupt, 1
  23              	g_NextionInterrupt:
  24 0000 30       		.byte	48
  25              		.global	g_SliderValueReceiving
  26              		.bss
  27              		.type	g_SliderValueReceiving, %object
  28              		.size	g_SliderValueReceiving, 1
  29              	g_SliderValueReceiving:
  30 0000 00       		.space	1
  31              		.comm	g_SliderValueBuffer,4,4
  32              		.global	g_Error_Code
  33 0001 000000   		.align	2
  34              		.type	g_Error_Code, %object
  35              		.size	g_Error_Code, 4
  36              	g_Error_Code:
  37 0004 00000000 		.space	4
  38              		.global	g_PCInterrupt
  39              		.data
  40              		.type	g_PCInterrupt, %object
  41              		.size	g_PCInterrupt, 1
  42              	g_PCInterrupt:
  43 0001 30       		.byte	48
  44              		.global	g_ActivePage
  45              		.type	g_ActivePage, %object
  46              		.size	g_ActivePage, 1
  47              	g_ActivePage:
  48 0002 30       		.byte	48
  49              		.global	g_NumberOfMeasurements
  50              		.bss
  51              		.align	2
  52              		.type	g_NumberOfMeasurements, %object
  53              		.size	g_NumberOfMeasurements, 4
  54              	g_NumberOfMeasurements:
  55 0008 00000000 		.space	4
  56              		.global	g_SwitchPeriodOfLaser_ms
  57              		.align	2
ARM GAS  C:\Users\LOCALA~1\AppData\Local\Temp\ccYJKuih.s 			page 2


  58              		.type	g_SwitchPeriodOfLaser_ms, %object
  59              		.size	g_SwitchPeriodOfLaser_ms, 4
  60              	g_SwitchPeriodOfLaser_ms:
  61 000c 00000000 		.space	4
  62              		.global	g_MaxMeasurementTime_min
  63              		.align	2
  64              		.type	g_MaxMeasurementTime_min, %object
  65              		.size	g_MaxMeasurementTime_min, 4
  66              	g_MaxMeasurementTime_min:
  67 0010 00000000 		.space	4
  68              		.global	g_FormationTime_ms
  69              		.align	2
  70              		.type	g_FormationTime_ms, %object
  71              		.size	g_FormationTime_ms, 4
  72              	g_FormationTime_ms:
  73 0014 00000000 		.space	4
  74              		.global	g_RelaxationTime_ms
  75              		.align	2
  76              		.type	g_RelaxationTime_ms, %object
  77              		.size	g_RelaxationTime_ms, 4
  78              	g_RelaxationTime_ms:
  79 0018 00000000 		.space	4
  80              		.global	g_ConfirmationTime_ms
  81              		.align	2
  82              		.type	g_ConfirmationTime_ms, %object
  83              		.size	g_ConfirmationTime_ms, 4
  84              	g_ConfirmationTime_ms:
  85 001c 00000000 		.space	4
  86              		.global	g_ThresholdValue_mV
  87              		.align	2
  88              		.type	g_ThresholdValue_mV, %object
  89              		.size	g_ThresholdValue_mV, 4
  90              	g_ThresholdValue_mV:
  91 0020 00000000 		.space	4
  92              		.global	g_DataLogging
  93              		.type	g_DataLogging, %object
  94              		.size	g_DataLogging, 1
  95              	g_DataLogging:
  96 0024 00       		.space	1
  97              		.global	MAXMEASUREMENTSTEPS
  98              		.section	.rodata
  99              		.align	2
 100              		.type	MAXMEASUREMENTSTEPS, %object
 101              		.size	MAXMEASUREMENTSTEPS, 4
 102              	MAXMEASUREMENTSTEPS:
 103 0000 04000000 		.word	4
 104              		.comm	g_measurementLasers,12,4
 105              		.global	LaserState1
 106              		.bss
 107              		.type	LaserState1, %object
 108              		.size	LaserState1, 1
 109              	LaserState1:
 110 0025 00       		.space	1
 111              		.global	LaserState2
 112              		.type	LaserState2, %object
 113              		.size	LaserState2, 1
 114              	LaserState2:
ARM GAS  C:\Users\LOCALA~1\AppData\Local\Temp\ccYJKuih.s 			page 3


 115 0026 00       		.space	1
 116              		.global	LaserState3
 117              		.type	LaserState3, %object
 118              		.size	LaserState3, 1
 119              	LaserState3:
 120 0027 00       		.space	1
 121              		.global	OutputState1
 122              		.type	OutputState1, %object
 123              		.size	OutputState1, 1
 124              	OutputState1:
 125 0028 00       		.space	1
 126              		.global	OutputState2
 127              		.type	OutputState2, %object
 128              		.size	OutputState2, 1
 129              	OutputState2:
 130 0029 00       		.space	1
 131              		.global	v_timer_100ms
 132 002a 0000     		.align	2
 133              		.type	v_timer_100ms, %object
 134              		.size	v_timer_100ms, 4
 135              	v_timer_100ms:
 136 002c 00000000 		.space	4
 137              		.global	v_timerflag_100ms
 138              		.type	v_timerflag_100ms, %object
 139              		.size	v_timerflag_100ms, 1
 140              	v_timerflag_100ms:
 141 0030 00       		.space	1
 142              		.global	v_timer_waiting
 143 0031 000000   		.align	2
 144              		.type	v_timer_waiting, %object
 145              		.size	v_timer_waiting, 4
 146              	v_timer_waiting:
 147 0034 00000000 		.space	4
 148              		.global	v_timerflag_waiting
 149              		.type	v_timerflag_waiting, %object
 150              		.size	v_timerflag_waiting, 1
 151              	v_timerflag_waiting:
 152 0038 00       		.space	1
 153              		.global	v_timer_Lifetime_ms
 154 0039 00000000 		.align	3
 154      000000
 155              		.type	v_timer_Lifetime_ms, %object
 156              		.size	v_timer_Lifetime_ms, 8
 157              	v_timer_Lifetime_ms:
 158 0040 00000000 		.space	8
 158      00000000 
 159              		.global	v_timer_Measurement
 160              		.align	2
 161              		.type	v_timer_Measurement, %object
 162              		.size	v_timer_Measurement, 4
 163              	v_timer_Measurement:
 164 0048 00000000 		.space	4
 165              		.global	v_timerflag_Measurement
 166              		.align	2
 167              		.type	v_timerflag_Measurement, %object
 168              		.size	v_timerflag_Measurement, 4
 169              	v_timerflag_Measurement:
ARM GAS  C:\Users\LOCALA~1\AppData\Local\Temp\ccYJKuih.s 			page 4


 170 004c 00000000 		.space	4
 171              		.global	v_timer_LaserSwitch
 172              		.align	2
 173              		.type	v_timer_LaserSwitch, %object
 174              		.size	v_timer_LaserSwitch, 4
 175              	v_timer_LaserSwitch:
 176 0050 00000000 		.space	4
 177              		.global	v_timerflag_LaserSwitch
 178              		.align	2
 179              		.type	v_timerflag_LaserSwitch, %object
 180              		.size	v_timerflag_LaserSwitch, 4
 181              	v_timerflag_LaserSwitch:
 182 0054 00000000 		.space	4
 183              		.global	v_timer_500ms
 184              		.align	2
 185              		.type	v_timer_500ms, %object
 186              		.size	v_timer_500ms, 4
 187              	v_timer_500ms:
 188 0058 00000000 		.space	4
 189              		.global	v_timerflag_500ms
 190              		.align	2
 191              		.type	v_timerflag_500ms, %object
 192              		.size	v_timerflag_500ms, 4
 193              	v_timerflag_500ms:
 194 005c 00000000 		.space	4
 195              		.global	g_Stepper_MaxFrequency
 196              		.data
 197 0003 00       		.align	2
 198              		.type	g_Stepper_MaxFrequency, %object
 199              		.size	g_Stepper_MaxFrequency, 4
 200              	g_Stepper_MaxFrequency:
 201 0004 BC020000 		.word	700
 202              		.global	g_Stepper_SigmoidShift
 203              		.align	2
 204              		.type	g_Stepper_SigmoidShift, %object
 205              		.size	g_Stepper_SigmoidShift, 4
 206              	g_Stepper_SigmoidShift:
 207 0008 9CFFFFFF 		.word	-100
 208              		.global	g_Stepper_SigmoidRaise
 209              		.align	2
 210              		.type	g_Stepper_SigmoidRaise, %object
 211              		.size	g_Stepper_SigmoidRaise, 4
 212              	g_Stepper_SigmoidRaise:
 213 000c 0A000000 		.word	10
 214              		.global	__aeabi_dadd
 215              		.global	__aeabi_dcmpeq
 216              		.global	__aeabi_d2uiz
 217              		.global	__aeabi_i2d
 218              		.global	__aeabi_dcmplt
 219              		.section	.text.MoveToWithConstSpeed,"ax",%progbits
 220              		.align	2
 221              		.global	MoveToWithConstSpeed
 222              		.thumb
 223              		.thumb_func
 224              		.type	MoveToWithConstSpeed, %function
 225              	MoveToWithConstSpeed:
 226              	.LFB63:
ARM GAS  C:\Users\LOCALA~1\AppData\Local\Temp\ccYJKuih.s 			page 5


 227              		.file 1 "./StepMotor.h"
   1:./StepMotor.h **** /* ========================================
   2:./StepMotor.h ****  *
   3:./StepMotor.h ****  * Copyright YOUR COMPANY, THE YEAR
   4:./StepMotor.h ****  * All Rights Reserved
   5:./StepMotor.h ****  * UNPUBLISHED, LICENSED SOFTWARE.
   6:./StepMotor.h ****  *
   7:./StepMotor.h ****  * CONFIDENTIAL AND PROPRIETARY INFORMATION
   8:./StepMotor.h ****  * WHICH IS THE PROPERTY OF your company.
   9:./StepMotor.h ****  *
  10:./StepMotor.h ****  * ========================================
  11:./StepMotor.h **** */
  12:./StepMotor.h **** 
  13:./StepMotor.h **** #ifndef STEPMOTOR_H
  14:./StepMotor.h ****     #define STEPMOTOR_H
  15:./StepMotor.h ****     
  16:./StepMotor.h ****     #include <project.h>
  17:./StepMotor.h ****     #include <math.h>
  18:./StepMotor.h ****     #include <GlobalVariables.h>
  19:./StepMotor.h ****     
  20:./StepMotor.h ****     int g_Stepper_MaxFrequency = 700;
  21:./StepMotor.h ****     int g_Stepper_SigmoidShift = -100;
  22:./StepMotor.h ****     int g_Stepper_SigmoidRaise = 10;
  23:./StepMotor.h ****     #define RIGHT 1
  24:./StepMotor.h ****     #define LEFT -1
  25:./StepMotor.h ****     #define Stepper_Diff_HomeSampling 400
  26:./StepMotor.h ****     #define Stepper_StepsPerStep 4
  27:./StepMotor.h ****     
  28:./StepMotor.h ****     void MoveTo (double steps, double dir);
  29:./StepMotor.h ****     
  30:./StepMotor.h ****     
  31:./StepMotor.h ****     void MoveToWithConstSpeed (double steps, double dir)
  32:./StepMotor.h ****     {
 228              		.loc 1 32 0
 229              		.cfi_startproc
 230              		@ args = 0, pretend = 0, frame = 32
 231              		@ frame_needed = 1, uses_anonymous_args = 0
 232 0000 90B5     		push	{r4, r7, lr}
 233              		.cfi_def_cfa_offset 12
 234              		.cfi_offset 4, -12
 235              		.cfi_offset 7, -8
 236              		.cfi_offset 14, -4
 237 0002 89B0     		sub	sp, sp, #36
 238              		.cfi_def_cfa_offset 48
 239 0004 00AF     		add	r7, sp, #0
 240              		.cfi_def_cfa_register 7
 241 0006 C7E90201 		strd	r0, [r7, #8]
 242 000a C7E90023 		strd	r2, [r7]
  33:./StepMotor.h ****     	// Übergebene Steps müssen mit 2 Mulipliziert werden, da jeder 
  34:./StepMotor.h ****     	// Schritt 2 Flankenwechsel beeinhaltet
  35:./StepMotor.h ****     	steps = steps*2;
 243              		.loc 1 35 0
 244 000e D7E90201 		ldrd	r0, [r7, #8]
 245 0012 0246     		mov	r2, r0
 246 0014 0B46     		mov	r3, r1
 247 0016 FFF7FEFF 		bl	__aeabi_dadd
 248 001a 0346     		mov	r3, r0
ARM GAS  C:\Users\LOCALA~1\AppData\Local\Temp\ccYJKuih.s 			page 6


 249 001c 0C46     		mov	r4, r1
 250 001e C7E90234 		strd	r3, [r7, #8]
  36:./StepMotor.h ****     	
  37:./StepMotor.h ****         // Inkrement der Anzufahrenden Schritte
  38:./StepMotor.h ****         int i;
  39:./StepMotor.h ****         // gerundete Dauer des Stepper-Zustands
  40:./StepMotor.h ****         double t_StepperCLK;       
  41:./StepMotor.h ****         
  42:./StepMotor.h ****         // SLEEP -> Motor "aufwecken" -> Leistungsaufnahme
  43:./StepMotor.h ****         Pin_StepperSLEEP_Write(1);
 251              		.loc 1 43 0
 252 0022 0120     		movs	r0, #1
 253 0024 FFF7FEFF 		bl	Pin_StepperSLEEP_Write
  44:./StepMotor.h ****         
  45:./StepMotor.h ****         // Richtung setzen
  46:./StepMotor.h ****         //
  47:./StepMotor.h ****         // Rechtsdrehung
  48:./StepMotor.h ****         if (dir == 1)
 254              		.loc 1 48 0
 255 0028 4FF00002 		mov	r2, #0
 256 002c 204B     		ldr	r3, .L9+8
 257 002e D7E90001 		ldrd	r0, [r7]
 258 0032 FFF7FEFF 		bl	__aeabi_dcmpeq
 259 0036 0346     		mov	r3, r0
 260 0038 002B     		cmp	r3, #0
 261 003a 03D0     		beq	.L8
  49:./StepMotor.h ****         {
  50:./StepMotor.h ****             Pin_StepperDIR_Write(0);
 262              		.loc 1 50 0
 263 003c 0020     		movs	r0, #0
 264 003e FFF7FEFF 		bl	Pin_StepperDIR_Write
 265 0042 02E0     		b	.L4
 266              	.L8:
  51:./StepMotor.h ****         }
  52:./StepMotor.h ****         // Linksdrehung
  53:./StepMotor.h ****         else
  54:./StepMotor.h ****         {
  55:./StepMotor.h ****             Pin_StepperDIR_Write(1);
 267              		.loc 1 55 0
 268 0044 0120     		movs	r0, #1
 269 0046 FFF7FEFF 		bl	Pin_StepperDIR_Write
 270              	.L4:
  56:./StepMotor.h ****         }    
  57:./StepMotor.h ****         
  58:./StepMotor.h ****         // Für jeden der Schritte
  59:./StepMotor.h ****         for (i = 0; i < steps; i = i + 1)
 271              		.loc 1 59 0
 272 004a 0023     		movs	r3, #0
 273 004c FB61     		str	r3, [r7, #28]
 274 004e 1BE0     		b	.L5
 275              	.L6:
  60:./StepMotor.h ****         {
  61:./StepMotor.h ****             // Momentane Ausgabe der LED invertieren
  62:./StepMotor.h ****             Pin_StepperCLK_Write(!Pin_StepperCLK_Read());
 276              		.loc 1 62 0 discriminator 3
 277 0050 FFF7FEFF 		bl	Pin_StepperCLK_Read
 278 0054 0346     		mov	r3, r0
ARM GAS  C:\Users\LOCALA~1\AppData\Local\Temp\ccYJKuih.s 			page 7


 279 0056 002B     		cmp	r3, #0
 280 0058 0CBF     		ite	eq
 281 005a 0123     		moveq	r3, #1
 282 005c 0023     		movne	r3, #0
 283 005e DBB2     		uxtb	r3, r3
 284 0060 1846     		mov	r0, r3
 285 0062 FFF7FEFF 		bl	Pin_StepperCLK_Write
  63:./StepMotor.h ****             t_StepperCLK = 27500; // [mus]
 286              		.loc 1 63 0 discriminator 3
 287 0066 10A4     		adr	r4, .L9
 288 0068 D4E90034 		ldrd	r3, [r4]
 289 006c C7E90434 		strd	r3, [r7, #16]
  64:./StepMotor.h ****             CyDelayUs((uint16)(t_StepperCLK));     
 290              		.loc 1 64 0 discriminator 3
 291 0070 D7E90401 		ldrd	r0, [r7, #16]
 292 0074 FFF7FEFF 		bl	__aeabi_d2uiz
 293 0078 0346     		mov	r3, r0
 294 007a 9BB2     		uxth	r3, r3
 295 007c 1846     		mov	r0, r3
 296 007e FFF7FEFF 		bl	CyDelayUs
  59:./StepMotor.h ****         {
 297              		.loc 1 59 0 discriminator 3
 298 0082 FB69     		ldr	r3, [r7, #28]
 299 0084 0133     		adds	r3, r3, #1
 300 0086 FB61     		str	r3, [r7, #28]
 301              	.L5:
  59:./StepMotor.h ****         {
 302              		.loc 1 59 0 is_stmt 0 discriminator 1
 303 0088 F869     		ldr	r0, [r7, #28]
 304 008a FFF7FEFF 		bl	__aeabi_i2d
 305 008e D7E90223 		ldrd	r2, [r7, #8]
 306 0092 FFF7FEFF 		bl	__aeabi_dcmplt
 307 0096 0346     		mov	r3, r0
 308 0098 002B     		cmp	r3, #0
 309 009a D9D1     		bne	.L6
  65:./StepMotor.h ****         }
  66:./StepMotor.h ****     }
 310              		.loc 1 66 0 is_stmt 1
 311 009c 00BF     		nop
 312 009e 2437     		adds	r7, r7, #36
 313              		.cfi_def_cfa_offset 12
 314 00a0 BD46     		mov	sp, r7
 315              		.cfi_def_cfa_register 13
 316              		@ sp needed
 317 00a2 90BD     		pop	{r4, r7, pc}
 318              	.L10:
 319 00a4 AFF30080 		.align	3
 320              	.L9:
 321 00a8 00000000 		.word	0
 322 00ac 00DBDA40 		.word	1088084736
 323 00b0 0000F03F 		.word	1072693248
 324              		.cfi_endproc
 325              	.LFE63:
 326              		.size	MoveToWithConstSpeed, .-MoveToWithConstSpeed
 327              		.section	.text.MoveOneStepCW,"ax",%progbits
 328              		.align	2
 329              		.global	MoveOneStepCW
ARM GAS  C:\Users\LOCALA~1\AppData\Local\Temp\ccYJKuih.s 			page 8


 330              		.thumb
 331              		.thumb_func
 332              		.type	MoveOneStepCW, %function
 333              	MoveOneStepCW:
 334              	.LFB64:
  67:./StepMotor.h ****     
  68:./StepMotor.h ****     void MoveOneStepCW()
  69:./StepMotor.h ****     {
 335              		.loc 1 69 0
 336              		.cfi_startproc
 337              		@ args = 0, pretend = 0, frame = 0
 338              		@ frame_needed = 1, uses_anonymous_args = 0
 339 0000 80B5     		push	{r7, lr}
 340              		.cfi_def_cfa_offset 8
 341              		.cfi_offset 7, -8
 342              		.cfi_offset 14, -4
 343 0002 00AF     		add	r7, sp, #0
 344              		.cfi_def_cfa_register 7
  70:./StepMotor.h ****         MoveToWithConstSpeed(1, RIGHT);
 345              		.loc 1 70 0
 346 0004 4FF00002 		mov	r2, #0
 347 0008 034B     		ldr	r3, .L12
 348 000a 4FF00000 		mov	r0, #0
 349 000e 0249     		ldr	r1, .L12
 350 0010 FFF7FEFF 		bl	MoveToWithConstSpeed
  71:./StepMotor.h ****     }
 351              		.loc 1 71 0
 352 0014 00BF     		nop
 353 0016 80BD     		pop	{r7, pc}
 354              	.L13:
 355              		.align	2
 356              	.L12:
 357 0018 0000F03F 		.word	1072693248
 358              		.cfi_endproc
 359              	.LFE64:
 360              		.size	MoveOneStepCW, .-MoveOneStepCW
 361              		.section	.text.MoveOneStepCCW,"ax",%progbits
 362              		.align	2
 363              		.global	MoveOneStepCCW
 364              		.thumb
 365              		.thumb_func
 366              		.type	MoveOneStepCCW, %function
 367              	MoveOneStepCCW:
 368              	.LFB65:
  72:./StepMotor.h ****     
  73:./StepMotor.h ****     void MoveOneStepCCW()
  74:./StepMotor.h ****     {
 369              		.loc 1 74 0
 370              		.cfi_startproc
 371              		@ args = 0, pretend = 0, frame = 0
 372              		@ frame_needed = 1, uses_anonymous_args = 0
 373 0000 80B5     		push	{r7, lr}
 374              		.cfi_def_cfa_offset 8
 375              		.cfi_offset 7, -8
 376              		.cfi_offset 14, -4
 377 0002 00AF     		add	r7, sp, #0
 378              		.cfi_def_cfa_register 7
ARM GAS  C:\Users\LOCALA~1\AppData\Local\Temp\ccYJKuih.s 			page 9


  75:./StepMotor.h ****         MoveToWithConstSpeed(1, LEFT);
 379              		.loc 1 75 0
 380 0004 4FF00002 		mov	r2, #0
 381 0008 034B     		ldr	r3, .L15
 382 000a 4FF00000 		mov	r0, #0
 383 000e 0349     		ldr	r1, .L15+4
 384 0010 FFF7FEFF 		bl	MoveToWithConstSpeed
  76:./StepMotor.h ****     }
 385              		.loc 1 76 0
 386 0014 00BF     		nop
 387 0016 80BD     		pop	{r7, pc}
 388              	.L16:
 389              		.align	2
 390              	.L15:
 391 0018 0000F0BF 		.word	-1074790400
 392 001c 0000F03F 		.word	1072693248
 393              		.cfi_endproc
 394              	.LFE65:
 395              		.size	MoveOneStepCCW, .-MoveOneStepCCW
 396              		.section	.text.Move10DegreeCW,"ax",%progbits
 397              		.align	2
 398              		.global	Move10DegreeCW
 399              		.thumb
 400              		.thumb_func
 401              		.type	Move10DegreeCW, %function
 402              	Move10DegreeCW:
 403              	.LFB66:
  77:./StepMotor.h ****     
  78:./StepMotor.h ****     void Move10DegreeCW()
  79:./StepMotor.h ****     {
 404              		.loc 1 79 0
 405              		.cfi_startproc
 406              		@ args = 0, pretend = 0, frame = 8
 407              		@ frame_needed = 1, uses_anonymous_args = 0
 408 0000 80B5     		push	{r7, lr}
 409              		.cfi_def_cfa_offset 8
 410              		.cfi_offset 7, -8
 411              		.cfi_offset 14, -4
 412 0002 82B0     		sub	sp, sp, #8
 413              		.cfi_def_cfa_offset 16
 414 0004 00AF     		add	r7, sp, #0
 415              		.cfi_def_cfa_register 7
  80:./StepMotor.h ****         int StepsFor10Degree = Stepper_Diff_HomeSampling/90 * 10;
 416              		.loc 1 80 0
 417 0006 2823     		movs	r3, #40
 418 0008 7B60     		str	r3, [r7, #4]
  81:./StepMotor.h ****         MoveToWithConstSpeed(StepsFor10Degree, RIGHT);
 419              		.loc 1 81 0
 420 000a 7868     		ldr	r0, [r7, #4]
 421 000c FFF7FEFF 		bl	__aeabi_i2d
 422 0010 4FF00002 		mov	r2, #0
 423 0014 034B     		ldr	r3, .L18
 424 0016 FFF7FEFF 		bl	MoveToWithConstSpeed
  82:./StepMotor.h ****     }
 425              		.loc 1 82 0
 426 001a 00BF     		nop
 427 001c 0837     		adds	r7, r7, #8
ARM GAS  C:\Users\LOCALA~1\AppData\Local\Temp\ccYJKuih.s 			page 10


 428              		.cfi_def_cfa_offset 8
 429 001e BD46     		mov	sp, r7
 430              		.cfi_def_cfa_register 13
 431              		@ sp needed
 432 0020 80BD     		pop	{r7, pc}
 433              	.L19:
 434 0022 00BF     		.align	2
 435              	.L18:
 436 0024 0000F03F 		.word	1072693248
 437              		.cfi_endproc
 438              	.LFE66:
 439              		.size	Move10DegreeCW, .-Move10DegreeCW
 440              		.section	.text.Move10DegreeCCW,"ax",%progbits
 441              		.align	2
 442              		.global	Move10DegreeCCW
 443              		.thumb
 444              		.thumb_func
 445              		.type	Move10DegreeCCW, %function
 446              	Move10DegreeCCW:
 447              	.LFB67:
  83:./StepMotor.h ****     
  84:./StepMotor.h ****     void Move10DegreeCCW()
  85:./StepMotor.h ****     {
 448              		.loc 1 85 0
 449              		.cfi_startproc
 450              		@ args = 0, pretend = 0, frame = 8
 451              		@ frame_needed = 1, uses_anonymous_args = 0
 452 0000 80B5     		push	{r7, lr}
 453              		.cfi_def_cfa_offset 8
 454              		.cfi_offset 7, -8
 455              		.cfi_offset 14, -4
 456 0002 82B0     		sub	sp, sp, #8
 457              		.cfi_def_cfa_offset 16
 458 0004 00AF     		add	r7, sp, #0
 459              		.cfi_def_cfa_register 7
  86:./StepMotor.h ****         int StepsFor10Degree = Stepper_Diff_HomeSampling/90 * 10;
 460              		.loc 1 86 0
 461 0006 2823     		movs	r3, #40
 462 0008 7B60     		str	r3, [r7, #4]
  87:./StepMotor.h ****         MoveToWithConstSpeed(StepsFor10Degree, LEFT);  
 463              		.loc 1 87 0
 464 000a 7868     		ldr	r0, [r7, #4]
 465 000c FFF7FEFF 		bl	__aeabi_i2d
 466 0010 4FF00002 		mov	r2, #0
 467 0014 034B     		ldr	r3, .L21
 468 0016 FFF7FEFF 		bl	MoveToWithConstSpeed
  88:./StepMotor.h ****     }
 469              		.loc 1 88 0
 470 001a 00BF     		nop
 471 001c 0837     		adds	r7, r7, #8
 472              		.cfi_def_cfa_offset 8
 473 001e BD46     		mov	sp, r7
 474              		.cfi_def_cfa_register 13
 475              		@ sp needed
 476 0020 80BD     		pop	{r7, pc}
 477              	.L22:
 478 0022 00BF     		.align	2
ARM GAS  C:\Users\LOCALA~1\AppData\Local\Temp\ccYJKuih.s 			page 11


 479              	.L21:
 480 0024 0000F0BF 		.word	-1074790400
 481              		.cfi_endproc
 482              	.LFE67:
 483              		.size	Move10DegreeCCW, .-Move10DegreeCCW
 484              		.section	.text.Move90DegreeCW,"ax",%progbits
 485              		.align	2
 486              		.global	Move90DegreeCW
 487              		.thumb
 488              		.thumb_func
 489              		.type	Move90DegreeCW, %function
 490              	Move90DegreeCW:
 491              	.LFB68:
  89:./StepMotor.h ****     
  90:./StepMotor.h ****     void Move90DegreeCW()
  91:./StepMotor.h ****     { 
 492              		.loc 1 91 0
 493              		.cfi_startproc
 494              		@ args = 0, pretend = 0, frame = 0
 495              		@ frame_needed = 1, uses_anonymous_args = 0
 496 0000 80B5     		push	{r7, lr}
 497              		.cfi_def_cfa_offset 8
 498              		.cfi_offset 7, -8
 499              		.cfi_offset 14, -4
 500 0002 00AF     		add	r7, sp, #0
 501              		.cfi_def_cfa_register 7
  92:./StepMotor.h ****         MoveTo(Stepper_Diff_HomeSampling, RIGHT);
 502              		.loc 1 92 0
 503 0004 4FF00002 		mov	r2, #0
 504 0008 034B     		ldr	r3, .L24
 505 000a 4FF00000 		mov	r0, #0
 506 000e 0349     		ldr	r1, .L24+4
 507 0010 FFF7FEFF 		bl	MoveTo
  93:./StepMotor.h ****     }
 508              		.loc 1 93 0
 509 0014 00BF     		nop
 510 0016 80BD     		pop	{r7, pc}
 511              	.L25:
 512              		.align	2
 513              	.L24:
 514 0018 0000F03F 		.word	1072693248
 515 001c 00007940 		.word	1081671680
 516              		.cfi_endproc
 517              	.LFE68:
 518              		.size	Move90DegreeCW, .-Move90DegreeCW
 519              		.section	.text.Move90DegreeCCW,"ax",%progbits
 520              		.align	2
 521              		.global	Move90DegreeCCW
 522              		.thumb
 523              		.thumb_func
 524              		.type	Move90DegreeCCW, %function
 525              	Move90DegreeCCW:
 526              	.LFB69:
  94:./StepMotor.h ****     
  95:./StepMotor.h ****     void Move90DegreeCCW()
  96:./StepMotor.h ****     {
 527              		.loc 1 96 0
ARM GAS  C:\Users\LOCALA~1\AppData\Local\Temp\ccYJKuih.s 			page 12


 528              		.cfi_startproc
 529              		@ args = 0, pretend = 0, frame = 0
 530              		@ frame_needed = 1, uses_anonymous_args = 0
 531 0000 80B5     		push	{r7, lr}
 532              		.cfi_def_cfa_offset 8
 533              		.cfi_offset 7, -8
 534              		.cfi_offset 14, -4
 535 0002 00AF     		add	r7, sp, #0
 536              		.cfi_def_cfa_register 7
  97:./StepMotor.h ****         MoveTo(Stepper_Diff_HomeSampling, LEFT);
 537              		.loc 1 97 0
 538 0004 4FF00002 		mov	r2, #0
 539 0008 034B     		ldr	r3, .L27
 540 000a 4FF00000 		mov	r0, #0
 541 000e 0349     		ldr	r1, .L27+4
 542 0010 FFF7FEFF 		bl	MoveTo
  98:./StepMotor.h ****     }
 543              		.loc 1 98 0
 544 0014 00BF     		nop
 545 0016 80BD     		pop	{r7, pc}
 546              	.L28:
 547              		.align	2
 548              	.L27:
 549 0018 0000F0BF 		.word	-1074790400
 550 001c 00007940 		.word	1081671680
 551              		.cfi_endproc
 552              	.LFE69:
 553              		.size	Move90DegreeCCW, .-Move90DegreeCCW
 554              		.section	.text.Init_StepMotor,"ax",%progbits
 555              		.align	2
 556              		.global	Init_StepMotor
 557              		.thumb
 558              		.thumb_func
 559              		.type	Init_StepMotor, %function
 560              	Init_StepMotor:
 561              	.LFB70:
  99:./StepMotor.h ****     
 100:./StepMotor.h ****     void Init_StepMotor()
 101:./StepMotor.h ****     {
 562              		.loc 1 101 0
 563              		.cfi_startproc
 564              		@ args = 0, pretend = 0, frame = 0
 565              		@ frame_needed = 1, uses_anonymous_args = 0
 566 0000 80B5     		push	{r7, lr}
 567              		.cfi_def_cfa_offset 8
 568              		.cfi_offset 7, -8
 569              		.cfi_offset 14, -4
 570 0002 00AF     		add	r7, sp, #0
 571              		.cfi_def_cfa_register 7
 102:./StepMotor.h ****         // Betriebsart des Motors festlegen
 103:./StepMotor.h ****         Pin_StepperMS1_Write(0); 	                // => 16tel-Schritt
 572              		.loc 1 103 0
 573 0004 0020     		movs	r0, #0
 574 0006 FFF7FEFF 		bl	Pin_StepperMS1_Write
 104:./StepMotor.h ****         Pin_StepperMS2_Write(0);    
 575              		.loc 1 104 0
 576 000a 0020     		movs	r0, #0
ARM GAS  C:\Users\LOCALA~1\AppData\Local\Temp\ccYJKuih.s 			page 13


 577 000c FFF7FEFF 		bl	Pin_StepperMS2_Write
 105:./StepMotor.h ****         Pin_StepperMS3_Write(1);   
 578              		.loc 1 105 0
 579 0010 0120     		movs	r0, #1
 580 0012 FFF7FEFF 		bl	Pin_StepperMS3_Write
 106:./StepMotor.h ****         /*
 107:./StepMotor.h ****         MODE0 	MODE1 	MODE2 	Microstepping
 108:./StepMotor.h ****         0 	    0 	    0 	    Vollschritt
 109:./StepMotor.h ****         1 	    0 	    0 	    Halbschritt
 110:./StepMotor.h ****         0 	    1 	    1 	    1/4 Schritt
 111:./StepMotor.h ****         1 	    1 	    0 	    1/8 Schritt
 112:./StepMotor.h ****         0 	    0 	    1 	    1/16 Schritt        x => momentan ausgewählt 
 113:./StepMotor.h ****         1 	    0 	    1 	    1/32 Schritt
 114:./StepMotor.h ****         0 	    1 	    1 	    1/32 Schritt
 115:./StepMotor.h ****         1 	    1 	    1 	    1/32 Schritt        
 116:./StepMotor.h ****         */	
 117:./StepMotor.h ****         
 118:./StepMotor.h ****         // ENABLE -> Enable Stepper-Motor an
 119:./StepMotor.h ****         Pin_StepperEN_Write(0); 
 581              		.loc 1 119 0
 582 0016 0020     		movs	r0, #0
 583 0018 FFF7FEFF 		bl	Pin_StepperEN_Write
 120:./StepMotor.h ****         // SLEEP -> Motor in Schlafzustand setzen -> keine Leistungsaufnahme
 121:./StepMotor.h ****         Pin_StepperSLEEP_Write(0);
 584              		.loc 1 121 0
 585 001c 0020     		movs	r0, #0
 586 001e FFF7FEFF 		bl	Pin_StepperSLEEP_Write
 122:./StepMotor.h ****         // SLEEP -> Motor "aufwecken" -> Leistungsaufnahme
 123:./StepMotor.h ****         Pin_StepperSLEEP_Write(1);
 587              		.loc 1 123 0
 588 0022 0120     		movs	r0, #1
 589 0024 FFF7FEFF 		bl	Pin_StepperSLEEP_Write
 124:./StepMotor.h ****         // RESET -> nicht(!) resetten
 125:./StepMotor.h ****         Pin_StepperRES_Write(1);
 590              		.loc 1 125 0
 591 0028 0120     		movs	r0, #1
 592 002a FFF7FEFF 		bl	Pin_StepperRES_Write
 126:./StepMotor.h ****     }
 593              		.loc 1 126 0
 594 002e 00BF     		nop
 595 0030 80BD     		pop	{r7, pc}
 596              		.cfi_endproc
 597              	.LFE70:
 598              		.size	Init_StepMotor, .-Init_StepMotor
 599              		.global	__aeabi_ddiv
 600              		.global	__aeabi_dsub
 601              		.global	__aeabi_dmul
 602 0032 00BF     		.section	.text.MoveTo,"ax",%progbits
 603              		.align	2
 604              		.global	MoveTo
 605              		.thumb
 606              		.thumb_func
 607              		.type	MoveTo, %function
 608              	MoveTo:
 609              	.LFB71:
 610              		.file 2 "StepMotor.c"
   1:StepMotor.c   **** /* ========================================
ARM GAS  C:\Users\LOCALA~1\AppData\Local\Temp\ccYJKuih.s 			page 14


   2:StepMotor.c   ****  *
   3:StepMotor.c   ****  * Copyright YOUR COMPANY, THE YEAR
   4:StepMotor.c   ****  * All Rights Reserved
   5:StepMotor.c   ****  * UNPUBLISHED, LICENSED SOFTWARE.
   6:StepMotor.c   ****  *
   7:StepMotor.c   ****  * CONFIDENTIAL AND PROPRIETARY INFORMATION
   8:StepMotor.c   ****  * WHICH IS THE PROPERTY OF your company.
   9:StepMotor.c   ****  *
  10:StepMotor.c   ****  * ========================================
  11:StepMotor.c   **** */
  12:StepMotor.c   **** 
  13:StepMotor.c   **** #include <StepMotor.h>
  14:StepMotor.c   **** 
  15:StepMotor.c   ****     void MoveTo (double steps, double dir)
  16:StepMotor.c   ****     {
 611              		.loc 2 16 0
 612              		.cfi_startproc
 613              		@ args = 0, pretend = 0, frame = 64
 614              		@ frame_needed = 1, uses_anonymous_args = 0
 615 0000 2DE9B043 		push	{r4, r5, r7, r8, r9, lr}
 616              		.cfi_def_cfa_offset 24
 617              		.cfi_offset 4, -24
 618              		.cfi_offset 5, -20
 619              		.cfi_offset 7, -16
 620              		.cfi_offset 8, -12
 621              		.cfi_offset 9, -8
 622              		.cfi_offset 14, -4
 623 0004 90B0     		sub	sp, sp, #64
 624              		.cfi_def_cfa_offset 88
 625 0006 00AF     		add	r7, sp, #0
 626              		.cfi_def_cfa_register 7
 627 0008 C7E90201 		strd	r0, [r7, #8]
 628 000c C7E90023 		strd	r2, [r7]
  17:StepMotor.c   ****     	// Übergebene Steps müssen mit 2 Mulipliziert werden, da jeder 
  18:StepMotor.c   ****     	// Schritt 2 Flankenwechsel beeinhaltet
  19:StepMotor.c   ****     	steps = steps*2;
 629              		.loc 2 19 0
 630 0010 D7E90201 		ldrd	r0, [r7, #8]
 631 0014 0246     		mov	r2, r0
 632 0016 0B46     		mov	r3, r1
 633 0018 FFF7FEFF 		bl	__aeabi_dadd
 634 001c 0346     		mov	r3, r0
 635 001e 0C46     		mov	r4, r1
 636 0020 C7E90234 		strd	r3, [r7, #8]
  20:StepMotor.c   ****     	
  21:StepMotor.c   ****         // Maximale Frequenz
  22:StepMotor.c   ****         double f_max;
  23:StepMotor.c   ****         // Relative Frequenz [0, 1]
  24:StepMotor.c   ****         double f_rel;
  25:StepMotor.c   ****         // Inkrement der Anzufahrenden Schritte
  26:StepMotor.c   ****         int i;
  27:StepMotor.c   ****         // gerundete Dauer des Stepper-Zustands
  28:StepMotor.c   ****         double t_StepperCLK;    
  29:StepMotor.c   ****         // Verschiebung des Sigmoids
  30:StepMotor.c   ****         double sig_shift;                   // höherere Wert -> höherere Frequenz zu Beginn
  31:StepMotor.c   ****         // Anstieg des Sigmoids
  32:StepMotor.c   ****         double sig_raise;                   // höherer Wert -> schnellerer Anstieg
ARM GAS  C:\Users\LOCALA~1\AppData\Local\Temp\ccYJKuih.s 			page 15


  33:StepMotor.c   ****         
  34:StepMotor.c   ****         //
  35:StepMotor.c   ****         // Parameterset für Motorkontrolle aus "MotorRamp.m"
  36:StepMotor.c   ****         //   
  37:StepMotor.c   ****         f_max = g_Stepper_MaxFrequency;
 637              		.loc 2 37 0
 638 0024 A04B     		ldr	r3, .L43+8
 639 0026 1B68     		ldr	r3, [r3]
 640 0028 1846     		mov	r0, r3
 641 002a FFF7FEFF 		bl	__aeabi_i2d
 642 002e 0346     		mov	r3, r0
 643 0030 0C46     		mov	r4, r1
 644 0032 C7E90C34 		strd	r3, [r7, #48]
  38:StepMotor.c   ****         sig_shift = g_Stepper_SigmoidShift;
 645              		.loc 2 38 0
 646 0036 9D4B     		ldr	r3, .L43+12
 647 0038 1B68     		ldr	r3, [r3]
 648 003a 1846     		mov	r0, r3
 649 003c FFF7FEFF 		bl	__aeabi_i2d
 650 0040 0346     		mov	r3, r0
 651 0042 0C46     		mov	r4, r1
 652 0044 C7E90A34 		strd	r3, [r7, #40]
  39:StepMotor.c   ****         sig_raise = g_Stepper_SigmoidRaise;
 653              		.loc 2 39 0
 654 0048 994B     		ldr	r3, .L43+16
 655 004a 1B68     		ldr	r3, [r3]
 656 004c 1846     		mov	r0, r3
 657 004e FFF7FEFF 		bl	__aeabi_i2d
 658 0052 0346     		mov	r3, r0
 659 0054 0C46     		mov	r4, r1
 660 0056 C7E90834 		strd	r3, [r7, #32]
  40:StepMotor.c   ****         
  41:StepMotor.c   ****         
  42:StepMotor.c   ****         // SLEEP -> Motor "aufwecken" -> Leistungsaufnahme
  43:StepMotor.c   ****         Pin_StepperSLEEP_Write(1);
 661              		.loc 2 43 0
 662 005a 0120     		movs	r0, #1
 663 005c FFF7FEFF 		bl	Pin_StepperSLEEP_Write
  44:StepMotor.c   ****         
  45:StepMotor.c   ****         // Richtung setzen
  46:StepMotor.c   ****         //
  47:StepMotor.c   ****         // Rechtsdrehung
  48:StepMotor.c   ****         if (dir == 1)
 664              		.loc 2 48 0
 665 0060 4FF00002 		mov	r2, #0
 666 0064 934B     		ldr	r3, .L43+20
 667 0066 D7E90001 		ldrd	r0, [r7]
 668 006a FFF7FEFF 		bl	__aeabi_dcmpeq
 669 006e 0346     		mov	r3, r0
 670 0070 002B     		cmp	r3, #0
 671 0072 03D0     		beq	.L41
  49:StepMotor.c   ****         {
  50:StepMotor.c   ****             Pin_StepperDIR_Write(0);
 672              		.loc 2 50 0
 673 0074 0020     		movs	r0, #0
 674 0076 FFF7FEFF 		bl	Pin_StepperDIR_Write
 675 007a 02E0     		b	.L33
ARM GAS  C:\Users\LOCALA~1\AppData\Local\Temp\ccYJKuih.s 			page 16


 676              	.L41:
  51:StepMotor.c   ****         }
  52:StepMotor.c   ****         // Linksdrehung
  53:StepMotor.c   ****         else
  54:StepMotor.c   ****         {
  55:StepMotor.c   ****             Pin_StepperDIR_Write(1);
 677              		.loc 2 55 0
 678 007c 0120     		movs	r0, #1
 679 007e FFF7FEFF 		bl	Pin_StepperDIR_Write
 680              	.L33:
  56:StepMotor.c   ****         }    
  57:StepMotor.c   ****         
  58:StepMotor.c   ****         // Für jeden der Schritte
  59:StepMotor.c   ****         for (i = 0; i < steps; i = i + 1)
 681              		.loc 2 59 0
 682 0082 0023     		movs	r3, #0
 683 0084 FB63     		str	r3, [r7, #60]
 684 0086 FAE0     		b	.L34
 685              	.L38:
  60:StepMotor.c   ****         {
  61:StepMotor.c   ****             // Frequenz für Beschleunigungsteil
  62:StepMotor.c   ****             if (i < steps/2)
 686              		.loc 2 62 0
 687 0088 F86B     		ldr	r0, [r7, #60]
 688 008a FFF7FEFF 		bl	__aeabi_i2d
 689 008e 0446     		mov	r4, r0
 690 0090 0D46     		mov	r5, r1
 691 0092 4FF00002 		mov	r2, #0
 692 0096 4FF08043 		mov	r3, #1073741824
 693 009a D7E90201 		ldrd	r0, [r7, #8]
 694 009e FFF7FEFF 		bl	__aeabi_ddiv
 695 00a2 0246     		mov	r2, r0
 696 00a4 0B46     		mov	r3, r1
 697 00a6 2046     		mov	r0, r4
 698 00a8 2946     		mov	r1, r5
 699 00aa FFF7FEFF 		bl	__aeabi_dcmplt
 700 00ae 0346     		mov	r3, r0
 701 00b0 002B     		cmp	r3, #0
 702 00b2 69D0     		beq	.L42
  63:StepMotor.c   ****             {       
  64:StepMotor.c   ****                 // Berechnung der Frequenz
  65:StepMotor.c   ****                 f_rel = 1.0/(1+exp(-1/(steps/sig_raise)*(i-steps/sig_shift))); 
 703              		.loc 2 65 0
 704 00b4 D7E90823 		ldrd	r2, [r7, #32]
 705 00b8 D7E90201 		ldrd	r0, [r7, #8]
 706 00bc FFF7FEFF 		bl	__aeabi_ddiv
 707 00c0 0346     		mov	r3, r0
 708 00c2 0C46     		mov	r4, r1
 709 00c4 1A46     		mov	r2, r3
 710 00c6 2346     		mov	r3, r4
 711 00c8 4FF00000 		mov	r0, #0
 712 00cc 7A49     		ldr	r1, .L43+24
 713 00ce FFF7FEFF 		bl	__aeabi_ddiv
 714 00d2 0346     		mov	r3, r0
 715 00d4 0C46     		mov	r4, r1
 716 00d6 2546     		mov	r5, r4
 717 00d8 1C46     		mov	r4, r3
ARM GAS  C:\Users\LOCALA~1\AppData\Local\Temp\ccYJKuih.s 			page 17


 718 00da F86B     		ldr	r0, [r7, #60]
 719 00dc FFF7FEFF 		bl	__aeabi_i2d
 720 00e0 8046     		mov	r8, r0
 721 00e2 8946     		mov	r9, r1
 722 00e4 D7E90A23 		ldrd	r2, [r7, #40]
 723 00e8 D7E90201 		ldrd	r0, [r7, #8]
 724 00ec FFF7FEFF 		bl	__aeabi_ddiv
 725 00f0 0246     		mov	r2, r0
 726 00f2 0B46     		mov	r3, r1
 727 00f4 4046     		mov	r0, r8
 728 00f6 4946     		mov	r1, r9
 729 00f8 FFF7FEFF 		bl	__aeabi_dsub
 730 00fc 0246     		mov	r2, r0
 731 00fe 0B46     		mov	r3, r1
 732 0100 2046     		mov	r0, r4
 733 0102 2946     		mov	r1, r5
 734 0104 FFF7FEFF 		bl	__aeabi_dmul
 735 0108 0346     		mov	r3, r0
 736 010a 0C46     		mov	r4, r1
 737 010c 1846     		mov	r0, r3
 738 010e 2146     		mov	r1, r4
 739 0110 FFF7FEFF 		bl	exp
 740 0114 4FF00002 		mov	r2, #0
 741 0118 664B     		ldr	r3, .L43+20
 742 011a FFF7FEFF 		bl	__aeabi_dadd
 743 011e 0346     		mov	r3, r0
 744 0120 0C46     		mov	r4, r1
 745 0122 1A46     		mov	r2, r3
 746 0124 2346     		mov	r3, r4
 747 0126 4FF00000 		mov	r0, #0
 748 012a 6249     		ldr	r1, .L43+20
 749 012c FFF7FEFF 		bl	__aeabi_ddiv
 750 0130 0346     		mov	r3, r0
 751 0132 0C46     		mov	r4, r1
 752 0134 C7E90634 		strd	r3, [r7, #24]
  66:StepMotor.c   ****                 // Momentane Ausgabe der LED invertieren
  67:StepMotor.c   ****                 Pin_StepperCLK_Write(!Pin_StepperCLK_Read());
 753              		.loc 2 67 0
 754 0138 FFF7FEFF 		bl	Pin_StepperCLK_Read
 755 013c 0346     		mov	r3, r0
 756 013e 002B     		cmp	r3, #0
 757 0140 0CBF     		ite	eq
 758 0142 0123     		moveq	r3, #1
 759 0144 0023     		movne	r3, #0
 760 0146 DBB2     		uxtb	r3, r3
 761 0148 1846     		mov	r0, r3
 762 014a FFF7FEFF 		bl	Pin_StepperCLK_Write
  68:StepMotor.c   ****                 // Wartezeit in us berechnen
  69:StepMotor.c   ****                 t_StepperCLK = 1000000.0/(f_max*f_rel);   
 763              		.loc 2 69 0
 764 014e D7E90623 		ldrd	r2, [r7, #24]
 765 0152 D7E90C01 		ldrd	r0, [r7, #48]
 766 0156 FFF7FEFF 		bl	__aeabi_dmul
 767 015a 0346     		mov	r3, r0
 768 015c 0C46     		mov	r4, r1
 769 015e 1A46     		mov	r2, r3
 770 0160 2346     		mov	r3, r4
ARM GAS  C:\Users\LOCALA~1\AppData\Local\Temp\ccYJKuih.s 			page 18


 771 0162 4FA1     		adr	r1, .L43
 772 0164 D1E90001 		ldrd	r0, [r1]
 773 0168 FFF7FEFF 		bl	__aeabi_ddiv
 774 016c 0346     		mov	r3, r0
 775 016e 0C46     		mov	r4, r1
 776 0170 C7E90434 		strd	r3, [r7, #16]
  70:StepMotor.c   ****                 CyDelayUs((uint16)(t_StepperCLK));           
 777              		.loc 2 70 0
 778 0174 D7E90401 		ldrd	r0, [r7, #16]
 779 0178 FFF7FEFF 		bl	__aeabi_d2uiz
 780 017c 0346     		mov	r3, r0
 781 017e 9BB2     		uxth	r3, r3
 782 0180 1846     		mov	r0, r3
 783 0182 FFF7FEFF 		bl	CyDelayUs
 784 0186 77E0     		b	.L37
 785              	.L42:
  71:StepMotor.c   **** 
  72:StepMotor.c   ****             }        
  73:StepMotor.c   ****             // Frequenz für Abbremsungsgungsteil
  74:StepMotor.c   ****             else 
  75:StepMotor.c   ****             {
  76:StepMotor.c   ****                 // Berechnung der Frequenz
  77:StepMotor.c   ****                 f_rel = (1.0 - 1/(1+exp(-1/(steps/sig_raise)*(i-steps+steps/sig_shift)))); 
 786              		.loc 2 77 0
 787 0188 D7E90823 		ldrd	r2, [r7, #32]
 788 018c D7E90201 		ldrd	r0, [r7, #8]
 789 0190 FFF7FEFF 		bl	__aeabi_ddiv
 790 0194 0346     		mov	r3, r0
 791 0196 0C46     		mov	r4, r1
 792 0198 1A46     		mov	r2, r3
 793 019a 2346     		mov	r3, r4
 794 019c 4FF00000 		mov	r0, #0
 795 01a0 4549     		ldr	r1, .L43+24
 796 01a2 FFF7FEFF 		bl	__aeabi_ddiv
 797 01a6 0346     		mov	r3, r0
 798 01a8 0C46     		mov	r4, r1
 799 01aa 2546     		mov	r5, r4
 800 01ac 1C46     		mov	r4, r3
 801 01ae F86B     		ldr	r0, [r7, #60]
 802 01b0 FFF7FEFF 		bl	__aeabi_i2d
 803 01b4 D7E90223 		ldrd	r2, [r7, #8]
 804 01b8 FFF7FEFF 		bl	__aeabi_dsub
 805 01bc 0246     		mov	r2, r0
 806 01be 0B46     		mov	r3, r1
 807 01c0 9046     		mov	r8, r2
 808 01c2 9946     		mov	r9, r3
 809 01c4 D7E90A23 		ldrd	r2, [r7, #40]
 810 01c8 D7E90201 		ldrd	r0, [r7, #8]
 811 01cc FFF7FEFF 		bl	__aeabi_ddiv
 812 01d0 0246     		mov	r2, r0
 813 01d2 0B46     		mov	r3, r1
 814 01d4 4046     		mov	r0, r8
 815 01d6 4946     		mov	r1, r9
 816 01d8 FFF7FEFF 		bl	__aeabi_dadd
 817 01dc 0246     		mov	r2, r0
 818 01de 0B46     		mov	r3, r1
 819 01e0 2046     		mov	r0, r4
ARM GAS  C:\Users\LOCALA~1\AppData\Local\Temp\ccYJKuih.s 			page 19


 820 01e2 2946     		mov	r1, r5
 821 01e4 FFF7FEFF 		bl	__aeabi_dmul
 822 01e8 0346     		mov	r3, r0
 823 01ea 0C46     		mov	r4, r1
 824 01ec 1846     		mov	r0, r3
 825 01ee 2146     		mov	r1, r4
 826 01f0 FFF7FEFF 		bl	exp
 827 01f4 4FF00002 		mov	r2, #0
 828 01f8 2E4B     		ldr	r3, .L43+20
 829 01fa FFF7FEFF 		bl	__aeabi_dadd
 830 01fe 0346     		mov	r3, r0
 831 0200 0C46     		mov	r4, r1
 832 0202 1A46     		mov	r2, r3
 833 0204 2346     		mov	r3, r4
 834 0206 4FF00000 		mov	r0, #0
 835 020a 2A49     		ldr	r1, .L43+20
 836 020c FFF7FEFF 		bl	__aeabi_ddiv
 837 0210 0346     		mov	r3, r0
 838 0212 0C46     		mov	r4, r1
 839 0214 1A46     		mov	r2, r3
 840 0216 2346     		mov	r3, r4
 841 0218 4FF00000 		mov	r0, #0
 842 021c 2549     		ldr	r1, .L43+20
 843 021e FFF7FEFF 		bl	__aeabi_dsub
 844 0222 0346     		mov	r3, r0
 845 0224 0C46     		mov	r4, r1
 846 0226 C7E90634 		strd	r3, [r7, #24]
  78:StepMotor.c   ****                 // Momentane Ausgabe der LED invertieren
  79:StepMotor.c   ****                 Pin_StepperCLK_Write(!Pin_StepperCLK_Read());
 847              		.loc 2 79 0
 848 022a FFF7FEFF 		bl	Pin_StepperCLK_Read
 849 022e 0346     		mov	r3, r0
 850 0230 002B     		cmp	r3, #0
 851 0232 0CBF     		ite	eq
 852 0234 0123     		moveq	r3, #1
 853 0236 0023     		movne	r3, #0
 854 0238 DBB2     		uxtb	r3, r3
 855 023a 1846     		mov	r0, r3
 856 023c FFF7FEFF 		bl	Pin_StepperCLK_Write
  80:StepMotor.c   **** 
  81:StepMotor.c   ****                 // Wartezeit in us berechnen
  82:StepMotor.c   ****                 t_StepperCLK = 1000000.0/(f_max*f_rel);            
 857              		.loc 2 82 0
 858 0240 D7E90623 		ldrd	r2, [r7, #24]
 859 0244 D7E90C01 		ldrd	r0, [r7, #48]
 860 0248 FFF7FEFF 		bl	__aeabi_dmul
 861 024c 0346     		mov	r3, r0
 862 024e 0C46     		mov	r4, r1
 863 0250 1A46     		mov	r2, r3
 864 0252 2346     		mov	r3, r4
 865 0254 12A1     		adr	r1, .L43
 866 0256 D1E90001 		ldrd	r0, [r1]
 867 025a FFF7FEFF 		bl	__aeabi_ddiv
 868 025e 0346     		mov	r3, r0
 869 0260 0C46     		mov	r4, r1
 870 0262 C7E90434 		strd	r3, [r7, #16]
  83:StepMotor.c   ****                 CyDelayUs((uint16)(t_StepperCLK));           
ARM GAS  C:\Users\LOCALA~1\AppData\Local\Temp\ccYJKuih.s 			page 20


 871              		.loc 2 83 0
 872 0266 D7E90401 		ldrd	r0, [r7, #16]
 873 026a FFF7FEFF 		bl	__aeabi_d2uiz
 874 026e 0346     		mov	r3, r0
 875 0270 9BB2     		uxth	r3, r3
 876 0272 1846     		mov	r0, r3
 877 0274 FFF7FEFF 		bl	CyDelayUs
 878              	.L37:
  59:StepMotor.c   ****         {
 879              		.loc 2 59 0 discriminator 2
 880 0278 FB6B     		ldr	r3, [r7, #60]
 881 027a 0133     		adds	r3, r3, #1
 882 027c FB63     		str	r3, [r7, #60]
 883              	.L34:
  59:StepMotor.c   ****         {
 884              		.loc 2 59 0 is_stmt 0 discriminator 1
 885 027e F86B     		ldr	r0, [r7, #60]
 886 0280 FFF7FEFF 		bl	__aeabi_i2d
 887 0284 D7E90223 		ldrd	r2, [r7, #8]
 888 0288 FFF7FEFF 		bl	__aeabi_dcmplt
 889 028c 0346     		mov	r3, r0
 890 028e 002B     		cmp	r3, #0
 891 0290 7FF4FAAE 		bne	.L38
  84:StepMotor.c   **** 
  85:StepMotor.c   ****             }  
  86:StepMotor.c   ****         }
  87:StepMotor.c   ****     }
 892              		.loc 2 87 0 is_stmt 1
 893 0294 00BF     		nop
 894 0296 4037     		adds	r7, r7, #64
 895              		.cfi_def_cfa_offset 24
 896 0298 BD46     		mov	sp, r7
 897              		.cfi_def_cfa_register 13
 898              		@ sp needed
 899 029a BDE8B083 		pop	{r4, r5, r7, r8, r9, pc}
 900              	.L44:
 901 029e 00BF     		.align	3
 902              	.L43:
 903 02a0 00000000 		.word	0
 904 02a4 80842E41 		.word	1093567616
 905 02a8 00000000 		.word	g_Stepper_MaxFrequency
 906 02ac 00000000 		.word	g_Stepper_SigmoidShift
 907 02b0 00000000 		.word	g_Stepper_SigmoidRaise
 908 02b4 0000F03F 		.word	1072693248
 909 02b8 0000F0BF 		.word	-1074790400
 910              		.cfi_endproc
 911              	.LFE71:
 912              		.size	MoveTo, .-MoveTo
 913              		.text
 914              	.Letext0:
 915              		.file 3 "d:\\programme\\psoc\\psoc creator\\4.2\\psoc creator\\import\\gnu\\arm\\5.4.1\\arm-none-e
 916              		.file 4 "d:\\programme\\psoc\\psoc creator\\4.2\\psoc creator\\import\\gnu\\arm\\5.4.1\\arm-none-e
 917              		.file 5 "Generated_Source\\PSoC5/cytypes.h"
 918              		.file 6 "Generated_Source\\PSoC5/core_cm3.h"
 919              		.file 7 "./GlobalVariables.h"
 920              		.file 8 "./SLIDERS.h"