ARM GAS  C:\Users\LOCALA~1\AppData\Local\Temp\ccE1mI48.s 			page 1


   1              		.syntax unified
   2              		.cpu cortex-m3
   3              		.fpu softvfp
   4              		.eabi_attribute 20, 1
   5              		.eabi_attribute 21, 1
   6              		.eabi_attribute 23, 3
   7              		.eabi_attribute 24, 1
   8              		.eabi_attribute 25, 1
   9              		.eabi_attribute 26, 1
  10              		.eabi_attribute 30, 6
  11              		.eabi_attribute 34, 1
  12              		.eabi_attribute 18, 4
  13              		.thumb
  14              		.syntax unified
  15              		.file	"Emul_EEPROM.c"
  16              		.text
  17              	.Ltext0:
  18              		.cfi_sections	.debug_frame
  19              		.section	.text.Emul_EEPROM_Start,"ax",%progbits
  20              		.align	2
  21              		.global	Emul_EEPROM_Start
  22              		.thumb
  23              		.thumb_func
  24              		.type	Emul_EEPROM_Start, %function
  25              	Emul_EEPROM_Start:
  26              	.LFB0:
  27              		.file 1 "Generated_Source\\PSoC5\\Emul_EEPROM.c"
   1:Generated_Source\PSoC5/Emul_EEPROM.c **** /*******************************************************************************
   2:Generated_Source\PSoC5/Emul_EEPROM.c **** * File Name: Emul_EEPROM.c
   3:Generated_Source\PSoC5/Emul_EEPROM.c **** * Version 1.20
   4:Generated_Source\PSoC5/Emul_EEPROM.c **** *
   5:Generated_Source\PSoC5/Emul_EEPROM.c **** * Description:
   6:Generated_Source\PSoC5/Emul_EEPROM.c **** *  This file provides the source code to API for the Emulated EEPROM Component.
   7:Generated_Source\PSoC5/Emul_EEPROM.c **** *
   8:Generated_Source\PSoC5/Emul_EEPROM.c **** ********************************************************************************
   9:Generated_Source\PSoC5/Emul_EEPROM.c **** * Copyright 2013-2016, Cypress Semiconductor Corporation.  All rights reserved.
  10:Generated_Source\PSoC5/Emul_EEPROM.c **** * You may use this file only in accordance with the license, terms, conditions,
  11:Generated_Source\PSoC5/Emul_EEPROM.c **** * disclaimers, and limitations in the end user license agreement accompanying
  12:Generated_Source\PSoC5/Emul_EEPROM.c **** * the software package with which this file was provided.
  13:Generated_Source\PSoC5/Emul_EEPROM.c **** *******************************************************************************/
  14:Generated_Source\PSoC5/Emul_EEPROM.c **** 
  15:Generated_Source\PSoC5/Emul_EEPROM.c **** #include "Emul_EEPROM.h"
  16:Generated_Source\PSoC5/Emul_EEPROM.c **** 
  17:Generated_Source\PSoC5/Emul_EEPROM.c **** 
  18:Generated_Source\PSoC5/Emul_EEPROM.c **** /*******************************************************************************
  19:Generated_Source\PSoC5/Emul_EEPROM.c **** * Function Name: Emul_EEPROM_Start
  20:Generated_Source\PSoC5/Emul_EEPROM.c **** ********************************************************************************
  21:Generated_Source\PSoC5/Emul_EEPROM.c **** *
  22:Generated_Source\PSoC5/Emul_EEPROM.c **** * Summary:
  23:Generated_Source\PSoC5/Emul_EEPROM.c **** *  Empty function. Included for consistency with other
  24:Generated_Source\PSoC5/Emul_EEPROM.c **** *  components.
  25:Generated_Source\PSoC5/Emul_EEPROM.c **** *
  26:Generated_Source\PSoC5/Emul_EEPROM.c **** * Parameters:
  27:Generated_Source\PSoC5/Emul_EEPROM.c **** *  None
  28:Generated_Source\PSoC5/Emul_EEPROM.c **** *
  29:Generated_Source\PSoC5/Emul_EEPROM.c **** * Return:
  30:Generated_Source\PSoC5/Emul_EEPROM.c **** *  None
ARM GAS  C:\Users\LOCALA~1\AppData\Local\Temp\ccE1mI48.s 			page 2


  31:Generated_Source\PSoC5/Emul_EEPROM.c **** *
  32:Generated_Source\PSoC5/Emul_EEPROM.c **** *******************************************************************************/
  33:Generated_Source\PSoC5/Emul_EEPROM.c **** void Emul_EEPROM_Start(void) 
  34:Generated_Source\PSoC5/Emul_EEPROM.c **** {
  28              		.loc 1 34 0
  29              		.cfi_startproc
  30              		@ args = 0, pretend = 0, frame = 0
  31              		@ frame_needed = 1, uses_anonymous_args = 0
  32              		@ link register save eliminated.
  33 0000 80B4     		push	{r7}
  34              		.cfi_def_cfa_offset 4
  35              		.cfi_offset 7, -4
  36 0002 00AF     		add	r7, sp, #0
  37              		.cfi_def_cfa_register 7
  35:Generated_Source\PSoC5/Emul_EEPROM.c **** 
  36:Generated_Source\PSoC5/Emul_EEPROM.c **** }
  38              		.loc 1 36 0
  39 0004 00BF     		nop
  40 0006 BD46     		mov	sp, r7
  41              		.cfi_def_cfa_register 13
  42              		@ sp needed
  43 0008 80BC     		pop	{r7}
  44              		.cfi_restore 7
  45              		.cfi_def_cfa_offset 0
  46 000a 7047     		bx	lr
  47              		.cfi_endproc
  48              	.LFE0:
  49              		.size	Emul_EEPROM_Start, .-Emul_EEPROM_Start
  50              		.section	.text.Emul_EEPROM_Stop,"ax",%progbits
  51              		.align	2
  52              		.global	Emul_EEPROM_Stop
  53              		.thumb
  54              		.thumb_func
  55              		.type	Emul_EEPROM_Stop, %function
  56              	Emul_EEPROM_Stop:
  57              	.LFB1:
  37:Generated_Source\PSoC5/Emul_EEPROM.c **** 
  38:Generated_Source\PSoC5/Emul_EEPROM.c **** 
  39:Generated_Source\PSoC5/Emul_EEPROM.c **** /*******************************************************************************
  40:Generated_Source\PSoC5/Emul_EEPROM.c **** * Function Name: Emul_EEPROM_Stop
  41:Generated_Source\PSoC5/Emul_EEPROM.c **** ********************************************************************************
  42:Generated_Source\PSoC5/Emul_EEPROM.c **** *
  43:Generated_Source\PSoC5/Emul_EEPROM.c **** * Summary:
  44:Generated_Source\PSoC5/Emul_EEPROM.c **** *  Empty function. Included for consistency with other
  45:Generated_Source\PSoC5/Emul_EEPROM.c **** *  components.
  46:Generated_Source\PSoC5/Emul_EEPROM.c **** *
  47:Generated_Source\PSoC5/Emul_EEPROM.c **** * Parameters:
  48:Generated_Source\PSoC5/Emul_EEPROM.c **** *  None
  49:Generated_Source\PSoC5/Emul_EEPROM.c **** *
  50:Generated_Source\PSoC5/Emul_EEPROM.c **** * Return:
  51:Generated_Source\PSoC5/Emul_EEPROM.c **** *  None
  52:Generated_Source\PSoC5/Emul_EEPROM.c **** *
  53:Generated_Source\PSoC5/Emul_EEPROM.c **** *******************************************************************************/
  54:Generated_Source\PSoC5/Emul_EEPROM.c **** void Emul_EEPROM_Stop(void) 
  55:Generated_Source\PSoC5/Emul_EEPROM.c **** {
  58              		.loc 1 55 0
  59              		.cfi_startproc
ARM GAS  C:\Users\LOCALA~1\AppData\Local\Temp\ccE1mI48.s 			page 3


  60              		@ args = 0, pretend = 0, frame = 0
  61              		@ frame_needed = 1, uses_anonymous_args = 0
  62              		@ link register save eliminated.
  63 0000 80B4     		push	{r7}
  64              		.cfi_def_cfa_offset 4
  65              		.cfi_offset 7, -4
  66 0002 00AF     		add	r7, sp, #0
  67              		.cfi_def_cfa_register 7
  56:Generated_Source\PSoC5/Emul_EEPROM.c **** 
  57:Generated_Source\PSoC5/Emul_EEPROM.c **** }
  68              		.loc 1 57 0
  69 0004 00BF     		nop
  70 0006 BD46     		mov	sp, r7
  71              		.cfi_def_cfa_register 13
  72              		@ sp needed
  73 0008 80BC     		pop	{r7}
  74              		.cfi_restore 7
  75              		.cfi_def_cfa_offset 0
  76 000a 7047     		bx	lr
  77              		.cfi_endproc
  78              	.LFE1:
  79              		.size	Emul_EEPROM_Stop, .-Emul_EEPROM_Stop
  80              		.section	.text.Emul_EEPROM_Write,"ax",%progbits
  81              		.align	2
  82              		.global	Emul_EEPROM_Write
  83              		.thumb
  84              		.thumb_func
  85              		.type	Emul_EEPROM_Write, %function
  86              	Emul_EEPROM_Write:
  87              	.LFB2:
  58:Generated_Source\PSoC5/Emul_EEPROM.c **** 
  59:Generated_Source\PSoC5/Emul_EEPROM.c **** 
  60:Generated_Source\PSoC5/Emul_EEPROM.c **** /*******************************************************************************
  61:Generated_Source\PSoC5/Emul_EEPROM.c **** * Function Name: Emul_EEPROM_Write
  62:Generated_Source\PSoC5/Emul_EEPROM.c **** ********************************************************************************
  63:Generated_Source\PSoC5/Emul_EEPROM.c **** *
  64:Generated_Source\PSoC5/Emul_EEPROM.c **** * Summary:
  65:Generated_Source\PSoC5/Emul_EEPROM.c **** *  Writes the specified number of bytes from the source buffer in SRAM to the
  66:Generated_Source\PSoC5/Emul_EEPROM.c **** *  emulated EEPROM array in flash, without modifying other data in flash.
  67:Generated_Source\PSoC5/Emul_EEPROM.c **** *
  68:Generated_Source\PSoC5/Emul_EEPROM.c **** * Parameters:
  69:Generated_Source\PSoC5/Emul_EEPROM.c **** *  srcBuf:    Pointer to the SRAM buffer holding the data to write.
  70:Generated_Source\PSoC5/Emul_EEPROM.c **** *  eepromPtr: Pointer to the array or variable in flash representing
  71:Generated_Source\PSoC5/Emul_EEPROM.c **** *             the emulated EEPROM.
  72:Generated_Source\PSoC5/Emul_EEPROM.c **** *  byteCount: Number of bytes to write from srcBuf to eepromPtr.
  73:Generated_Source\PSoC5/Emul_EEPROM.c **** *
  74:Generated_Source\PSoC5/Emul_EEPROM.c **** * Return:
  75:Generated_Source\PSoC5/Emul_EEPROM.c **** *    CYRET_SUCCESS     Successful write.
  76:Generated_Source\PSoC5/Emul_EEPROM.c **** *    CYRET_BAD_PARAM   eepromPtr is out of range of flash memory.
  77:Generated_Source\PSoC5/Emul_EEPROM.c **** *    CYRET_UNKNOWN     Other error in writing flash.
  78:Generated_Source\PSoC5/Emul_EEPROM.c **** *
  79:Generated_Source\PSoC5/Emul_EEPROM.c **** *******************************************************************************/
  80:Generated_Source\PSoC5/Emul_EEPROM.c **** #if (CY_PSOC3)
  81:Generated_Source\PSoC5/Emul_EEPROM.c ****     cystatus Emul_EEPROM_Write(const uint8 srcBuf[], const uint8 eepromPtr[], uint16 byteCount)
  82:Generated_Source\PSoC5/Emul_EEPROM.c ****                                                                             
  83:Generated_Source\PSoC5/Emul_EEPROM.c **** #else
  84:Generated_Source\PSoC5/Emul_EEPROM.c ****     cystatus Emul_EEPROM_Write(const uint8 srcBuf[], const uint8 eepromPtr[], uint32 byteCount)
ARM GAS  C:\Users\LOCALA~1\AppData\Local\Temp\ccE1mI48.s 			page 4


  85:Generated_Source\PSoC5/Emul_EEPROM.c **** #endif /* (!CY_PSOC3) */
  86:Generated_Source\PSoC5/Emul_EEPROM.c **** {
  88              		.loc 1 86 0
  89              		.cfi_startproc
  90              		@ args = 0, pretend = 0, frame = 592
  91              		@ frame_needed = 1, uses_anonymous_args = 0
  92 0000 80B5     		push	{r7, lr}
  93              		.cfi_def_cfa_offset 8
  94              		.cfi_offset 7, -8
  95              		.cfi_offset 14, -4
  96 0002 ADF5147D 		sub	sp, sp, #592
  97              		.cfi_def_cfa_offset 600
  98 0006 00AF     		add	r7, sp, #0
  99              		.cfi_def_cfa_register 7
 100 0008 07F10C03 		add	r3, r7, #12
 101 000c 1860     		str	r0, [r3]
 102 000e 07F10803 		add	r3, r7, #8
 103 0012 1960     		str	r1, [r3]
 104 0014 3B1D     		adds	r3, r7, #4
 105 0016 1A60     		str	r2, [r3]
  87:Generated_Source\PSoC5/Emul_EEPROM.c ****     uint8 writeBuffer[CY_FLASH_SIZEOF_ROW];
  88:Generated_Source\PSoC5/Emul_EEPROM.c ****     uint32 arrayId;
  89:Generated_Source\PSoC5/Emul_EEPROM.c ****     uint32 rowId;
  90:Generated_Source\PSoC5/Emul_EEPROM.c ****     uint32 dstIndex;
  91:Generated_Source\PSoC5/Emul_EEPROM.c ****     uint32 srcIndex;
  92:Generated_Source\PSoC5/Emul_EEPROM.c ****     cystatus rc;
  93:Generated_Source\PSoC5/Emul_EEPROM.c ****     uint32 eeOffset;
  94:Generated_Source\PSoC5/Emul_EEPROM.c ****     uint32 byteOffset;
  95:Generated_Source\PSoC5/Emul_EEPROM.c ****     
  96:Generated_Source\PSoC5/Emul_EEPROM.c ****     #if (!CY_PSOC4)
  97:Generated_Source\PSoC5/Emul_EEPROM.c ****         #if (CYDEV_ECC_ENABLE == 0)
  98:Generated_Source\PSoC5/Emul_EEPROM.c ****             uint8 rowBuffer[CY_FLASH_SIZEOF_ROW + CY_FLASH_SIZEOF_ECC_ROW];
  99:Generated_Source\PSoC5/Emul_EEPROM.c ****         #endif /* CYDEV_ECC_ENABLE == 0) */
 100:Generated_Source\PSoC5/Emul_EEPROM.c ****     #endif /* (!CY_PSOC4) */
 101:Generated_Source\PSoC5/Emul_EEPROM.c **** 
 102:Generated_Source\PSoC5/Emul_EEPROM.c ****     eeOffset = (uint32)eepromPtr;
 106              		.loc 1 102 0
 107 0018 07F10803 		add	r3, r7, #8
 108 001c 1B68     		ldr	r3, [r3]
 109 001e C7F83432 		str	r3, [r7, #564]
 103:Generated_Source\PSoC5/Emul_EEPROM.c ****     #if (CY_PSOC3)
 104:Generated_Source\PSoC5/Emul_EEPROM.c ****         eeOffset &= Emul_EEPROM_CODE_ADDR_MASK;
 105:Generated_Source\PSoC5/Emul_EEPROM.c ****     #endif /* (CY_PSOC3) */
 106:Generated_Source\PSoC5/Emul_EEPROM.c **** 
 107:Generated_Source\PSoC5/Emul_EEPROM.c ****     /* Make sure, that eepromPtr[] points to ROM */
 108:Generated_Source\PSoC5/Emul_EEPROM.c ****     #if (CY_PSOC3)
 109:Generated_Source\PSoC5/Emul_EEPROM.c ****         if (((uint32)eepromPtr >= Emul_EEPROM_CODE_ADDR_OFFSET) &&
 110:Generated_Source\PSoC5/Emul_EEPROM.c ****             (((uint32)eepromPtr + byteCount) <= Emul_EEPROM_CODE_ADDR_END))
 111:Generated_Source\PSoC5/Emul_EEPROM.c ****     #else
 112:Generated_Source\PSoC5/Emul_EEPROM.c ****         if (((uint32)eepromPtr + byteCount) <= Emul_EEPROM_FLASH_END_ADDR)
 110              		.loc 1 112 0
 111 0022 07F10803 		add	r3, r7, #8
 112 0026 1A68     		ldr	r2, [r3]
 113 0028 3B1D     		adds	r3, r7, #4
 114 002a 1B68     		ldr	r3, [r3]
 115 002c 1344     		add	r3, r3, r2
 116 002e B3F5802F 		cmp	r3, #262144
ARM GAS  C:\Users\LOCALA~1\AppData\Local\Temp\ccE1mI48.s 			page 5


 117 0032 00F28A80 		bhi	.L4
 113:Generated_Source\PSoC5/Emul_EEPROM.c ****     #endif /* (CY_PSOC3) */
 114:Generated_Source\PSoC5/Emul_EEPROM.c ****     {
 115:Generated_Source\PSoC5/Emul_EEPROM.c ****         #if (!CY_PSOC4)
 116:Generated_Source\PSoC5/Emul_EEPROM.c ****             (void)CySetTemp();
 118              		.loc 1 116 0
 119 0036 FFF7FEFF 		bl	CySetTemp
 117:Generated_Source\PSoC5/Emul_EEPROM.c **** 
 118:Generated_Source\PSoC5/Emul_EEPROM.c ****             #if(CYDEV_ECC_ENABLE == 0)
 119:Generated_Source\PSoC5/Emul_EEPROM.c ****                 (void)CySetFlashEEBuffer(rowBuffer);
 120              		.loc 1 119 0
 121 003a 07F11403 		add	r3, r7, #20
 122 003e 1846     		mov	r0, r3
 123 0040 FFF7FEFF 		bl	CySetFlashEEBuffer
 120:Generated_Source\PSoC5/Emul_EEPROM.c ****             #endif
 121:Generated_Source\PSoC5/Emul_EEPROM.c ****         #endif /* (!CY_PSOC4) */
 122:Generated_Source\PSoC5/Emul_EEPROM.c **** 
 123:Generated_Source\PSoC5/Emul_EEPROM.c ****         arrayId = eeOffset / CY_FLASH_SIZEOF_ARRAY;
 124              		.loc 1 123 0
 125 0044 D7F83432 		ldr	r3, [r7, #564]
 126 0048 1B0C     		lsrs	r3, r3, #16
 127 004a C7F84C32 		str	r3, [r7, #588]
 124:Generated_Source\PSoC5/Emul_EEPROM.c ****         rowId = (eeOffset / CY_FLASH_SIZEOF_ROW) % Emul_EEPROM_ROWS_IN_ARRAY;
 128              		.loc 1 124 0
 129 004e D7F83432 		ldr	r3, [r7, #564]
 130 0052 1B0A     		lsrs	r3, r3, #8
 131 0054 DBB2     		uxtb	r3, r3
 132 0056 C7F84832 		str	r3, [r7, #584]
 125:Generated_Source\PSoC5/Emul_EEPROM.c ****         byteOffset = (CY_FLASH_SIZEOF_ARRAY * arrayId) + (CY_FLASH_SIZEOF_ROW * rowId);
 133              		.loc 1 125 0
 134 005a D7F84C32 		ldr	r3, [r7, #588]
 135 005e 1A02     		lsls	r2, r3, #8
 136 0060 D7F84832 		ldr	r3, [r7, #584]
 137 0064 1344     		add	r3, r3, r2
 138 0066 1B02     		lsls	r3, r3, #8
 139 0068 C7F83832 		str	r3, [r7, #568]
 126:Generated_Source\PSoC5/Emul_EEPROM.c ****         srcIndex = 0u;
 140              		.loc 1 126 0
 141 006c 0023     		movs	r3, #0
 142 006e C7F84032 		str	r3, [r7, #576]
 127:Generated_Source\PSoC5/Emul_EEPROM.c **** 
 128:Generated_Source\PSoC5/Emul_EEPROM.c ****         rc = CYRET_SUCCESS;
 143              		.loc 1 128 0
 144 0072 0023     		movs	r3, #0
 145 0074 C7F83C32 		str	r3, [r7, #572]
 129:Generated_Source\PSoC5/Emul_EEPROM.c **** 
 130:Generated_Source\PSoC5/Emul_EEPROM.c ****         while ((srcIndex < byteCount) && (CYRET_SUCCESS == rc))
 146              		.loc 1 130 0
 147 0078 5AE0     		b	.L5
 148              	.L11:
 131:Generated_Source\PSoC5/Emul_EEPROM.c ****         {
 132:Generated_Source\PSoC5/Emul_EEPROM.c ****             /* Copy data to the write buffer either from the source buffer or from the flash */
 133:Generated_Source\PSoC5/Emul_EEPROM.c ****             for (dstIndex = 0u; dstIndex < CY_FLASH_SIZEOF_ROW; dstIndex++)
 149              		.loc 1 133 0
 150 007a 0023     		movs	r3, #0
 151 007c C7F84432 		str	r3, [r7, #580]
 152 0080 34E0     		b	.L6
ARM GAS  C:\Users\LOCALA~1\AppData\Local\Temp\ccE1mI48.s 			page 6


 153              	.L9:
 134:Generated_Source\PSoC5/Emul_EEPROM.c ****             {
 135:Generated_Source\PSoC5/Emul_EEPROM.c ****                 if ((byteOffset >= eeOffset) && (srcIndex < byteCount))
 154              		.loc 1 135 0
 155 0082 D7F83822 		ldr	r2, [r7, #568]
 156 0086 D7F83432 		ldr	r3, [r7, #564]
 157 008a 9A42     		cmp	r2, r3
 158 008c 19D3     		bcc	.L7
 159              		.loc 1 135 0 is_stmt 0 discriminator 1
 160 008e 3B1D     		adds	r3, r7, #4
 161 0090 D7F84022 		ldr	r2, [r7, #576]
 162 0094 1B68     		ldr	r3, [r3]
 163 0096 9A42     		cmp	r2, r3
 164 0098 13D2     		bcs	.L7
 136:Generated_Source\PSoC5/Emul_EEPROM.c ****                 {
 137:Generated_Source\PSoC5/Emul_EEPROM.c ****                     writeBuffer[dstIndex] = srcBuf[srcIndex];
 165              		.loc 1 137 0 is_stmt 1
 166 009a 07F10C03 		add	r3, r7, #12
 167 009e 1A68     		ldr	r2, [r3]
 168 00a0 D7F84032 		ldr	r3, [r7, #576]
 169 00a4 1344     		add	r3, r3, r2
 170 00a6 1978     		ldrb	r1, [r3]	@ zero_extendqisi2
 171 00a8 07F59A72 		add	r2, r7, #308
 172 00ac D7F84432 		ldr	r3, [r7, #580]
 173 00b0 1344     		add	r3, r3, r2
 174 00b2 0A46     		mov	r2, r1
 175 00b4 1A70     		strb	r2, [r3]
 138:Generated_Source\PSoC5/Emul_EEPROM.c ****                     srcIndex++;
 176              		.loc 1 138 0
 177 00b6 D7F84032 		ldr	r3, [r7, #576]
 178 00ba 0133     		adds	r3, r3, #1
 179 00bc C7F84032 		str	r3, [r7, #576]
 180 00c0 0AE0     		b	.L8
 181              	.L7:
 139:Generated_Source\PSoC5/Emul_EEPROM.c ****                 }
 140:Generated_Source\PSoC5/Emul_EEPROM.c ****                 else
 141:Generated_Source\PSoC5/Emul_EEPROM.c ****                 {
 142:Generated_Source\PSoC5/Emul_EEPROM.c ****                     writeBuffer[dstIndex] = CY_GET_XTND_REG8(CYDEV_FLASH_BASE + byteOffset);
 182              		.loc 1 142 0
 183 00c2 D7F83832 		ldr	r3, [r7, #568]
 184 00c6 1B78     		ldrb	r3, [r3]
 185 00c8 D9B2     		uxtb	r1, r3
 186 00ca 07F59A72 		add	r2, r7, #308
 187 00ce D7F84432 		ldr	r3, [r7, #580]
 188 00d2 1344     		add	r3, r3, r2
 189 00d4 0A46     		mov	r2, r1
 190 00d6 1A70     		strb	r2, [r3]
 191              	.L8:
 143:Generated_Source\PSoC5/Emul_EEPROM.c ****                 }
 144:Generated_Source\PSoC5/Emul_EEPROM.c ****                 byteOffset++;
 192              		.loc 1 144 0 discriminator 2
 193 00d8 D7F83832 		ldr	r3, [r7, #568]
 194 00dc 0133     		adds	r3, r3, #1
 195 00de C7F83832 		str	r3, [r7, #568]
 133:Generated_Source\PSoC5/Emul_EEPROM.c ****             {
 196              		.loc 1 133 0 discriminator 2
 197 00e2 D7F84432 		ldr	r3, [r7, #580]
ARM GAS  C:\Users\LOCALA~1\AppData\Local\Temp\ccE1mI48.s 			page 7


 198 00e6 0133     		adds	r3, r3, #1
 199 00e8 C7F84432 		str	r3, [r7, #580]
 200              	.L6:
 133:Generated_Source\PSoC5/Emul_EEPROM.c ****             {
 201              		.loc 1 133 0 is_stmt 0 discriminator 1
 202 00ec D7F84432 		ldr	r3, [r7, #580]
 203 00f0 FF2B     		cmp	r3, #255
 204 00f2 C6D9     		bls	.L9
 145:Generated_Source\PSoC5/Emul_EEPROM.c ****             }
 146:Generated_Source\PSoC5/Emul_EEPROM.c **** 
 147:Generated_Source\PSoC5/Emul_EEPROM.c ****             /* Write flash row */
 148:Generated_Source\PSoC5/Emul_EEPROM.c ****             #if (CY_PSOC4)
 149:Generated_Source\PSoC5/Emul_EEPROM.c ****                 rc = CySysFlashWriteRow(rowId, writeBuffer);
 150:Generated_Source\PSoC5/Emul_EEPROM.c ****             #else
 151:Generated_Source\PSoC5/Emul_EEPROM.c ****                 rc = CyWriteRowData((uint8)arrayId, (uint16)rowId, writeBuffer);
 205              		.loc 1 151 0 is_stmt 1
 206 00f4 D7F84C32 		ldr	r3, [r7, #588]
 207 00f8 DBB2     		uxtb	r3, r3
 208 00fa D7F84822 		ldr	r2, [r7, #584]
 209 00fe 91B2     		uxth	r1, r2
 210 0100 07F59A72 		add	r2, r7, #308
 211 0104 1846     		mov	r0, r3
 212 0106 FFF7FEFF 		bl	CyWriteRowData
 213 010a C7F83C02 		str	r0, [r7, #572]
 152:Generated_Source\PSoC5/Emul_EEPROM.c ****             #endif /* (CY_PSOC4) */
 153:Generated_Source\PSoC5/Emul_EEPROM.c **** 
 154:Generated_Source\PSoC5/Emul_EEPROM.c ****             /* Go to the next row */
 155:Generated_Source\PSoC5/Emul_EEPROM.c ****             rowId++;
 214              		.loc 1 155 0
 215 010e D7F84832 		ldr	r3, [r7, #584]
 216 0112 0133     		adds	r3, r3, #1
 217 0114 C7F84832 		str	r3, [r7, #584]
 156:Generated_Source\PSoC5/Emul_EEPROM.c ****             #if (CY_FLASH_NUMBER_ARRAYS > 1)
 157:Generated_Source\PSoC5/Emul_EEPROM.c ****                 if (rowId >= Emul_EEPROM_ROWS_IN_ARRAY)
 218              		.loc 1 157 0
 219 0118 D7F84832 		ldr	r3, [r7, #584]
 220 011c FF2B     		cmp	r3, #255
 221 011e 07D9     		bls	.L5
 158:Generated_Source\PSoC5/Emul_EEPROM.c ****                 {
 159:Generated_Source\PSoC5/Emul_EEPROM.c ****                     arrayId++;
 222              		.loc 1 159 0
 223 0120 D7F84C32 		ldr	r3, [r7, #588]
 224 0124 0133     		adds	r3, r3, #1
 225 0126 C7F84C32 		str	r3, [r7, #588]
 160:Generated_Source\PSoC5/Emul_EEPROM.c ****                     rowId = 0u;
 226              		.loc 1 160 0
 227 012a 0023     		movs	r3, #0
 228 012c C7F84832 		str	r3, [r7, #584]
 229              	.L5:
 130:Generated_Source\PSoC5/Emul_EEPROM.c ****         {
 230              		.loc 1 130 0
 231 0130 3B1D     		adds	r3, r7, #4
 232 0132 D7F84022 		ldr	r2, [r7, #576]
 233 0136 1B68     		ldr	r3, [r3]
 234 0138 9A42     		cmp	r2, r3
 235 013a 03D2     		bcs	.L10
 130:Generated_Source\PSoC5/Emul_EEPROM.c ****         {
ARM GAS  C:\Users\LOCALA~1\AppData\Local\Temp\ccE1mI48.s 			page 8


 236              		.loc 1 130 0 is_stmt 0 discriminator 1
 237 013c D7F83C32 		ldr	r3, [r7, #572]
 238 0140 002B     		cmp	r3, #0
 239 0142 9AD0     		beq	.L11
 240              	.L10:
 161:Generated_Source\PSoC5/Emul_EEPROM.c ****                 }
 162:Generated_Source\PSoC5/Emul_EEPROM.c ****             #endif /* (CY_FLASH_NUMBER_ARRAYS > 1) */
 163:Generated_Source\PSoC5/Emul_EEPROM.c ****         }
 164:Generated_Source\PSoC5/Emul_EEPROM.c **** 
 165:Generated_Source\PSoC5/Emul_EEPROM.c ****         /* Flush both Cache and PHUB prefetch buffer */
 166:Generated_Source\PSoC5/Emul_EEPROM.c ****         #if (CY_PSOC5)
 167:Generated_Source\PSoC5/Emul_EEPROM.c ****             CyFlushCache();
 241              		.loc 1 167 0 is_stmt 1
 242 0144 FFF7FEFF 		bl	CyFlushCache
 243 0148 02E0     		b	.L12
 244              	.L4:
 168:Generated_Source\PSoC5/Emul_EEPROM.c ****         #elif (CY_PSOC3)
 169:Generated_Source\PSoC5/Emul_EEPROM.c ****             CY_FLASH_CONTROL_REG |= 6u;
 170:Generated_Source\PSoC5/Emul_EEPROM.c ****         #endif /* (CY_PSOC5) */
 171:Generated_Source\PSoC5/Emul_EEPROM.c ****     }
 172:Generated_Source\PSoC5/Emul_EEPROM.c ****     else
 173:Generated_Source\PSoC5/Emul_EEPROM.c ****     {
 174:Generated_Source\PSoC5/Emul_EEPROM.c ****         rc = CYRET_BAD_PARAM;
 245              		.loc 1 174 0
 246 014a 0123     		movs	r3, #1
 247 014c C7F83C32 		str	r3, [r7, #572]
 248              	.L12:
 175:Generated_Source\PSoC5/Emul_EEPROM.c ****     }
 176:Generated_Source\PSoC5/Emul_EEPROM.c **** 
 177:Generated_Source\PSoC5/Emul_EEPROM.c ****     /* Mask return codes from flash, if they are not supported */
 178:Generated_Source\PSoC5/Emul_EEPROM.c ****     if ((CYRET_SUCCESS != rc) && (CYRET_BAD_PARAM != rc))
 249              		.loc 1 178 0
 250 0150 D7F83C32 		ldr	r3, [r7, #572]
 251 0154 002B     		cmp	r3, #0
 252 0156 07D0     		beq	.L13
 253              		.loc 1 178 0 is_stmt 0 discriminator 1
 254 0158 D7F83C32 		ldr	r3, [r7, #572]
 255 015c 012B     		cmp	r3, #1
 256 015e 03D0     		beq	.L13
 179:Generated_Source\PSoC5/Emul_EEPROM.c ****     {
 180:Generated_Source\PSoC5/Emul_EEPROM.c ****         rc = CYRET_UNKNOWN;
 257              		.loc 1 180 0 is_stmt 1
 258 0160 4FF0FF33 		mov	r3, #-1
 259 0164 C7F83C32 		str	r3, [r7, #572]
 260              	.L13:
 181:Generated_Source\PSoC5/Emul_EEPROM.c ****     }
 182:Generated_Source\PSoC5/Emul_EEPROM.c ****     
 183:Generated_Source\PSoC5/Emul_EEPROM.c ****     return (rc);
 261              		.loc 1 183 0
 262 0168 D7F83C32 		ldr	r3, [r7, #572]
 184:Generated_Source\PSoC5/Emul_EEPROM.c **** }
 263              		.loc 1 184 0
 264 016c 1846     		mov	r0, r3
 265 016e 07F51477 		add	r7, r7, #592
 266              		.cfi_def_cfa_offset 8
 267 0172 BD46     		mov	sp, r7
 268              		.cfi_def_cfa_register 13
ARM GAS  C:\Users\LOCALA~1\AppData\Local\Temp\ccE1mI48.s 			page 9


 269              		@ sp needed
 270 0174 80BD     		pop	{r7, pc}
 271              		.cfi_endproc
 272              	.LFE2:
 273              		.size	Emul_EEPROM_Write, .-Emul_EEPROM_Write
 274 0176 00BF     		.text
 275              	.Letext0:
 276              		.file 2 "Generated_Source\\PSoC5\\cytypes.h"