ARM GAS  C:\Users\LocalAdmin\AppData\Local\Temp\cchhZa3p.s 			page 1


   1              		.syntax unified
   2              		.cpu cortex-m3
   3              		.fpu softvfp
   4              		.eabi_attribute 20, 1
   5              		.eabi_attribute 21, 1
   6              		.eabi_attribute 23, 3
   7              		.eabi_attribute 24, 1
   8              		.eabi_attribute 25, 1
   9              		.eabi_attribute 26, 1
  10              		.eabi_attribute 30, 6
  11              		.eabi_attribute 34, 1
  12              		.eabi_attribute 18, 4
  13              		.thumb
  14              		.file	"main.c"
  15              		.text
  16              	.Ltext0:
  17              		.cfi_sections	.debug_frame
  18              		.global	NumberOfMeasurements
  19              		.bss
  20              		.align	2
  21              		.type	NumberOfMeasurements, %object
  22              		.size	NumberOfMeasurements, 4
  23              	NumberOfMeasurements:
  24 0000 00000000 		.space	4
  25              		.comm	ADC_value,4,4
  26              		.comm	Number,4000,4
  27              		.comm	Lifetime,4000,4
  28              		.global	Lifetime_max
  29              		.align	2
  30              		.type	Lifetime_max, %object
  31              		.size	Lifetime_max, 4
  32              	Lifetime_max:
  33 0004 00000000 		.space	4
  34              		.global	menustate
  35              		.type	menustate, %object
  36              		.size	menustate, 1
  37              	menustate:
  38 0008 00       		.space	1
  39              		.comm	RX_Buffer,4,4
  40              		.global	counter_Timer1_steps
  41 0009 000000   		.align	2
  42              		.type	counter_Timer1_steps, %object
  43              		.size	counter_Timer1_steps, 4
  44              	counter_Timer1_steps:
  45 000c 00000000 		.space	4
  46              		.global	counter_Lamella_Number
  47              		.align	2
  48              		.type	counter_Lamella_Number, %object
  49              		.size	counter_Lamella_Number, 4
  50              	counter_Lamella_Number:
  51 0010 00000000 		.space	4
  52              		.comm	counter_Lamella_Relaxation_steps,4,4
  53              		.comm	counter_Maximum_Lamella_Time_steps,4,4
  54              		.comm	counter_Rupture_Confirmation_Target,4,4
  55              		.global	counter_Rupture_Confirmation
  56              		.align	2
  57              		.type	counter_Rupture_Confirmation, %object
ARM GAS  C:\Users\LocalAdmin\AppData\Local\Temp\cchhZa3p.s 			page 2


  58              		.size	counter_Rupture_Confirmation, 4
  59              	counter_Rupture_Confirmation:
  60 0014 00000000 		.space	4
  61              		.global	bool_Rupture_Confirmed
  62              		.align	2
  63              		.type	bool_Rupture_Confirmed, %object
  64              		.size	bool_Rupture_Confirmed, 4
  65              	bool_Rupture_Confirmed:
  66 0018 00000000 		.space	4
  67              		.comm	WidthOfBin,4,4
  68              		.global	timerflag100ms
  69              		.type	timerflag100ms, %object
  70              		.size	timerflag100ms, 1
  71              	timerflag100ms:
  72 001c 00       		.space	1
  73              		.global	timerflag1000ms
  74              		.type	timerflag1000ms, %object
  75              		.size	timerflag1000ms, 1
  76              	timerflag1000ms:
  77 001d 00       		.space	1
  78              		.global	timerflag5000ms
  79              		.type	timerflag5000ms, %object
  80              		.size	timerflag5000ms, 1
  81              	timerflag5000ms:
  82 001e 00       		.space	1
  83              		.global	cnt_timer100ms
  84 001f 00       		.align	2
  85              		.type	cnt_timer100ms, %object
  86              		.size	cnt_timer100ms, 4
  87              	cnt_timer100ms:
  88 0020 00000000 		.space	4
  89              		.global	cnt_timer1000ms
  90              		.align	2
  91              		.type	cnt_timer1000ms, %object
  92              		.size	cnt_timer1000ms, 4
  93              	cnt_timer1000ms:
  94 0024 00000000 		.space	4
  95              		.global	cnt_timer5000ms
  96              		.align	2
  97              		.type	cnt_timer5000ms, %object
  98              		.size	cnt_timer5000ms, 4
  99              	cnt_timer5000ms:
 100 0028 00000000 		.space	4
 101              		.global	slider_ready
 102              		.type	slider_ready, %object
 103              		.size	slider_ready, 1
 104              	slider_ready:
 105 002c 00       		.space	1
 106              		.global	Measurement_running
 107              		.type	Measurement_running, %object
 108              		.size	Measurement_running, 1
 109              	Measurement_running:
 110 002d 00       		.space	1
 111              		.global	present_Result_saved
 112 002e 0000     		.align	2
 113              		.type	present_Result_saved, %object
 114              		.size	present_Result_saved, 4
ARM GAS  C:\Users\LocalAdmin\AppData\Local\Temp\cchhZa3p.s 			page 3


 115              	present_Result_saved:
 116 0030 00000000 		.space	4
 117              		.global	new_pickup_initialized
 118              		.type	new_pickup_initialized, %object
 119              		.size	new_pickup_initialized, 1
 120              	new_pickup_initialized:
 121 0034 00       		.space	1
 122              		.global	slider_val_sent
 123              		.type	slider_val_sent, %object
 124              		.size	slider_val_sent, 1
 125              	slider_val_sent:
 126 0035 00       		.space	1
 127              		.global	slider_val_received
 128              		.type	slider_val_received, %object
 129              		.size	slider_val_received, 1
 130              	slider_val_received:
 131 0036 00       		.space	1
 132              		.global	present_LiveData_plot_refreshed
 133 0037 00       		.align	2
 134              		.type	present_LiveData_plot_refreshed, %object
 135              		.size	present_LiveData_plot_refreshed, 4
 136              	present_LiveData_plot_refreshed:
 137 0038 00000000 		.space	4
 138              		.global	current_RescaledData_plot_refreshed
 139              		.align	2
 140              		.type	current_RescaledData_plot_refreshed, %object
 141              		.size	current_RescaledData_plot_refreshed, 4
 142              	current_RescaledData_plot_refreshed:
 143 003c 00000000 		.space	4
 144              		.global	STI100_writing
 145              		.align	2
 146              		.type	STI100_writing, %object
 147              		.size	STI100_writing, 4
 148              	STI100_writing:
 149 0040 00000000 		.space	4
 150              		.global	STI100_write_requested
 151              		.align	2
 152              		.type	STI100_write_requested, %object
 153              		.size	STI100_write_requested, 4
 154              	STI100_write_requested:
 155 0044 00000000 		.space	4
 156              		.global	STI100_present_results_saved
 157              		.align	2
 158              		.type	STI100_present_results_saved, %object
 159              		.size	STI100_present_results_saved, 4
 160              	STI100_present_results_saved:
 161 0048 00000000 		.space	4
 162              		.comm	num_str,20,4
 163              		.comm	NameOfValuebox,4,4
 164              		.global	i
 165              		.align	2
 166              		.type	i, %object
 167              		.size	i, 4
 168              	i:
 169 004c 00000000 		.space	4
 170              		.global	j
 171              		.align	2
ARM GAS  C:\Users\LocalAdmin\AppData\Local\Temp\cchhZa3p.s 			page 4


 172              		.type	j, %object
 173              		.size	j, 4
 174              	j:
 175 0050 00000000 		.space	4
 176              		.global	plot_every_nth
 177              		.data
 178              		.align	2
 179              		.type	plot_every_nth, %object
 180              		.size	plot_every_nth, 4
 181              	plot_every_nth:
 182 0000 01000000 		.word	1
 183              		.global	Lamella_Logger_Time_s
 184              		.section	.rodata
 185              		.align	2
 186              		.type	Lamella_Logger_Time_s, %object
 187              		.size	Lamella_Logger_Time_s, 4
 188              	Lamella_Logger_Time_s:
 189 0000 01000000 		.word	1
 190              		.comm	counter_Lamella_Logger_steps,4,4
 191              		.global	Maximum_Lamella_Time_h
 192              		.align	2
 193              		.type	Maximum_Lamella_Time_h, %object
 194              		.size	Maximum_Lamella_Time_h, 4
 195              	Maximum_Lamella_Time_h:
 196 0004 0000403F 		.word	1061158912
 197              		.global	Lamella_Relaxation_Time_s
 198              		.align	2
 199              		.type	Lamella_Relaxation_Time_s, %object
 200              		.size	Lamella_Relaxation_Time_s, 4
 201              	Lamella_Relaxation_Time_s:
 202 0008 01000000 		.word	1
 203              		.global	Rupture_Confirmation_Time_s
 204              		.align	2
 205              		.type	Rupture_Confirmation_Time_s, %object
 206              		.size	Rupture_Confirmation_Time_s, 4
 207              	Rupture_Confirmation_Time_s:
 208 000c 0000003F 		.word	1056964608
 209              		.global	SampligCountsPerSecond
 210              		.align	2
 211              		.type	SampligCountsPerSecond, %object
 212              		.size	SampligCountsPerSecond, 4
 213              	SampligCountsPerSecond:
 214 0010 0A000000 		.word	10
 215              		.global	LamellaFormationTime_ms
 216              		.align	2
 217              		.type	LamellaFormationTime_ms, %object
 218              		.size	LamellaFormationTime_ms, 4
 219              	LamellaFormationTime_ms:
 220 0014 C4090000 		.word	2500
 221              		.section	.text.Laser_ON,"ax",%progbits
 222              		.align	2
 223              		.global	Laser_ON
 224              		.thumb
 225              		.thumb_func
 226              		.type	Laser_ON, %function
 227              	Laser_ON:
 228              	.LFB56:
ARM GAS  C:\Users\LocalAdmin\AppData\Local\Temp\cchhZa3p.s 			page 5


 229              		.file 1 "Laser_Control.h"
   1:Laser_Control.h **** /* ========================================
   2:Laser_Control.h ****  *
   3:Laser_Control.h ****  * Copyright YOUR COMPANY, THE YEAR
   4:Laser_Control.h ****  * All Rights Reserved
   5:Laser_Control.h ****  * UNPUBLISHED, LICENSED SOFTWARE.
   6:Laser_Control.h ****  *
   7:Laser_Control.h ****  * CONFIDENTIAL AND PROPRIETARY INFORMATION
   8:Laser_Control.h ****  * WHICH IS THE PROPERTY OF your company.
   9:Laser_Control.h ****  *
  10:Laser_Control.h ****  * ========================================
  11:Laser_Control.h **** */
  12:Laser_Control.h **** 
  13:Laser_Control.h **** #include <project.h>
  14:Laser_Control.h **** 
  15:Laser_Control.h **** //
  16:Laser_Control.h **** // Laser anschalten
  17:Laser_Control.h **** // 
  18:Laser_Control.h **** void Laser_ON (void)
  19:Laser_Control.h **** {
 230              		.loc 1 19 0
 231              		.cfi_startproc
 232              		@ args = 0, pretend = 0, frame = 0
 233              		@ frame_needed = 1, uses_anonymous_args = 0
 234 0000 80B5     		push	{r7, lr}
 235              		.cfi_def_cfa_offset 8
 236              		.cfi_offset 7, -8
 237              		.cfi_offset 14, -4
 238 0002 00AF     		add	r7, sp, #0
 239              		.cfi_def_cfa_register 7
  20:Laser_Control.h ****     Pin_LaserEN_Write(1);
 240              		.loc 1 20 0
 241 0004 0120     		movs	r0, #1
 242 0006 FFF7FEFF 		bl	Pin_LaserEN_Write
  21:Laser_Control.h **** }
 243              		.loc 1 21 0
 244 000a 80BD     		pop	{r7, pc}
 245              		.cfi_endproc
 246              	.LFE56:
 247              		.size	Laser_ON, .-Laser_ON
 248              		.section	.text.Laser_OFF,"ax",%progbits
 249              		.align	2
 250              		.global	Laser_OFF
 251              		.thumb
 252              		.thumb_func
 253              		.type	Laser_OFF, %function
 254              	Laser_OFF:
 255              	.LFB57:
  22:Laser_Control.h **** 
  23:Laser_Control.h **** //
  24:Laser_Control.h **** // Laser ausschalten
  25:Laser_Control.h **** // 
  26:Laser_Control.h **** void Laser_OFF (void)
  27:Laser_Control.h **** {
 256              		.loc 1 27 0
 257              		.cfi_startproc
 258              		@ args = 0, pretend = 0, frame = 0
ARM GAS  C:\Users\LocalAdmin\AppData\Local\Temp\cchhZa3p.s 			page 6


 259              		@ frame_needed = 1, uses_anonymous_args = 0
 260 0000 80B5     		push	{r7, lr}
 261              		.cfi_def_cfa_offset 8
 262              		.cfi_offset 7, -8
 263              		.cfi_offset 14, -4
 264 0002 00AF     		add	r7, sp, #0
 265              		.cfi_def_cfa_register 7
  28:Laser_Control.h ****     Pin_LaserEN_Write(0);
 266              		.loc 1 28 0
 267 0004 0020     		movs	r0, #0
 268 0006 FFF7FEFF 		bl	Pin_LaserEN_Write
  29:Laser_Control.h **** }
 269              		.loc 1 29 0
 270 000a 80BD     		pop	{r7, pc}
 271              		.cfi_endproc
 272              	.LFE57:
 273              		.size	Laser_OFF, .-Laser_OFF
 274              		.section	.rodata
 275              		.align	2
 276              		.type	StepsDifferenceHomeSampling, %object
 277              		.size	StepsDifferenceHomeSampling, 4
 278              	StepsDifferenceHomeSampling:
 279 0018 20030000 		.word	800
 280              		.align	2
 281              		.type	StepsOneStepSettings, %object
 282              		.size	StepsOneStepSettings, 4
 283              	StepsOneStepSettings:
 284 001c 04000000 		.word	4
 285              		.comm	f_max_Stepper,8,8
 286              		.comm	sig_shift_Stepper,8,8
 287              		.comm	sig_raise_Stepper,8,8
 288              		.section	.text.Init_Stepper,"ax",%progbits
 289              		.align	2
 290              		.global	Init_Stepper
 291              		.thumb
 292              		.thumb_func
 293              		.type	Init_Stepper, %function
 294              	Init_Stepper:
 295              	.LFB58:
 296              		.file 2 "StepperMotor_Control.h"
   1:StepperMotor_Control.h **** /* ========================================
   2:StepperMotor_Control.h ****  *
   3:StepperMotor_Control.h ****  * Copyright YOUR COMPANY, THE YEAR
   4:StepperMotor_Control.h ****  * All Rights Reserved
   5:StepperMotor_Control.h ****  * UNPUBLISHED, LICENSED SOFTWARE.
   6:StepperMotor_Control.h ****  *
   7:StepperMotor_Control.h ****  * CONFIDENTIAL AND PROPRIETARY INFORMATION
   8:StepperMotor_Control.h ****  * WHICH IS THE PROPERTY OF your company.
   9:StepperMotor_Control.h ****  *
  10:StepperMotor_Control.h ****  * ========================================
  11:StepperMotor_Control.h **** */
  12:StepperMotor_Control.h **** 
  13:StepperMotor_Control.h **** 
  14:StepperMotor_Control.h **** #include <project.h>
  15:StepperMotor_Control.h **** #include <math.h>
  16:StepperMotor_Control.h **** 
  17:StepperMotor_Control.h **** #ifndef Laser_Control
ARM GAS  C:\Users\LocalAdmin\AppData\Local\Temp\cchhZa3p.s 			page 7


  18:StepperMotor_Control.h **** #define Laser_Control
  19:StepperMotor_Control.h **** #endif
  20:StepperMotor_Control.h **** 
  21:StepperMotor_Control.h **** #define RIGHT 1
  22:StepperMotor_Control.h **** #define LEFT -1
  23:StepperMotor_Control.h **** 
  24:StepperMotor_Control.h **** // Parameter der Funktionen, die mit Schrittmotor zusammenhängen
  25:StepperMotor_Control.h **** static int const StepsDifferenceHomeSampling = 800;               // mit 1.8° / Step Motor -> 90°
  26:StepperMotor_Control.h **** static int const StepsOneStepSettings = 4;                		  // "einen" Schritt in Settings mit Bu
  27:StepperMotor_Control.h **** 
  28:StepperMotor_Control.h **** double f_max_Stepper;
  29:StepperMotor_Control.h **** double sig_shift_Stepper;
  30:StepperMotor_Control.h **** double sig_raise_Stepper;
  31:StepperMotor_Control.h **** 
  32:StepperMotor_Control.h **** //
  33:StepperMotor_Control.h **** // Initialisierungen für Schrittmotor zur Kontrolle der Lamellenposition
  34:StepperMotor_Control.h **** //
  35:StepperMotor_Control.h **** void Init_Stepper (void)
  36:StepperMotor_Control.h **** {
 297              		.loc 2 36 0
 298              		.cfi_startproc
 299              		@ args = 0, pretend = 0, frame = 0
 300              		@ frame_needed = 1, uses_anonymous_args = 0
 301 0000 80B5     		push	{r7, lr}
 302              		.cfi_def_cfa_offset 8
 303              		.cfi_offset 7, -8
 304              		.cfi_offset 14, -4
 305 0002 00AF     		add	r7, sp, #0
 306              		.cfi_def_cfa_register 7
  37:StepperMotor_Control.h ****     // Werte der Motorparameter setzen (-> Verwendung in "MoveTo" verwendet)
  38:StepperMotor_Control.h ****     // Maximale Frequenz
  39:StepperMotor_Control.h ****     f_max_Stepper = 700;
 307              		.loc 2 39 0
 308 0004 1349     		ldr	r1, .L4
 309 0006 4FF00002 		mov	r2, #0
 310 000a 134B     		ldr	r3, .L4+4
 311 000c C1E90023 		strd	r2, [r1]
  40:StepperMotor_Control.h ****     // Verschiebung des Sigmoids
  41:StepperMotor_Control.h ****     sig_shift_Stepper = -100;                   // höherere Wert -> höherere Frequenz zu Beginn
 312              		.loc 2 41 0
 313 0010 1249     		ldr	r1, .L4+8
 314 0012 4FF00002 		mov	r2, #0
 315 0016 124B     		ldr	r3, .L4+12
 316 0018 C1E90023 		strd	r2, [r1]
  42:StepperMotor_Control.h ****     // Anstieg des Sigmoids
  43:StepperMotor_Control.h ****     sig_raise_Stepper = 10;                     // höherer Wert -> schnellerer Anstieg
 317              		.loc 2 43 0
 318 001c 1149     		ldr	r1, .L4+16
 319 001e 4FF00002 		mov	r2, #0
 320 0022 114B     		ldr	r3, .L4+20
 321 0024 C1E90023 		strd	r2, [r1]
  44:StepperMotor_Control.h ****     
  45:StepperMotor_Control.h ****     // Betriebsart des Motors festlegen
  46:StepperMotor_Control.h ****     Pin_StepperMS1_Write(0); 	                // => 16tel-Schritt
 322              		.loc 2 46 0
 323 0028 0020     		movs	r0, #0
 324 002a FFF7FEFF 		bl	Pin_StepperMS1_Write
ARM GAS  C:\Users\LocalAdmin\AppData\Local\Temp\cchhZa3p.s 			page 8


  47:StepperMotor_Control.h ****     Pin_StepperMS2_Write(0);    
 325              		.loc 2 47 0
 326 002e 0020     		movs	r0, #0
 327 0030 FFF7FEFF 		bl	Pin_StepperMS2_Write
  48:StepperMotor_Control.h ****     Pin_StepperMS3_Write(1);   
 328              		.loc 2 48 0
 329 0034 0120     		movs	r0, #1
 330 0036 FFF7FEFF 		bl	Pin_StepperMS3_Write
  49:StepperMotor_Control.h ****     /*
  50:StepperMotor_Control.h ****     MODE0 	MODE1 	MODE2 	Microstepping
  51:StepperMotor_Control.h ****     0 	    0 	    0 	    Vollschritt
  52:StepperMotor_Control.h ****     1 	    0 	    0 	    Halbschritt
  53:StepperMotor_Control.h ****     0 	    1 	    1 	    1/4 Schritt
  54:StepperMotor_Control.h ****     1 	    1 	    0 	    1/8 Schritt
  55:StepperMotor_Control.h ****     0 	    0 	    1 	    1/16 Schritt        x => momentan ausgewählt 
  56:StepperMotor_Control.h ****     1 	    0 	    1 	    1/32 Schritt
  57:StepperMotor_Control.h ****     0 	    1 	    1 	    1/32 Schritt
  58:StepperMotor_Control.h ****     1 	    1 	    1 	    1/32 Schritt        
  59:StepperMotor_Control.h ****     */	
  60:StepperMotor_Control.h ****     
  61:StepperMotor_Control.h ****     // ENABLE -> Enable Stepper-Motor an
  62:StepperMotor_Control.h ****     Pin_StepperEN_Write(0); 
 331              		.loc 2 62 0
 332 003a 0020     		movs	r0, #0
 333 003c FFF7FEFF 		bl	Pin_StepperEN_Write
  63:StepperMotor_Control.h ****     // SLEEP -> Motor in Schlafzustand setzen -> keine Leistungsaufnahme
  64:StepperMotor_Control.h ****     Pin_StepperSLEEP_Write(0);
 334              		.loc 2 64 0
 335 0040 0020     		movs	r0, #0
 336 0042 FFF7FEFF 		bl	Pin_StepperSLEEP_Write
  65:StepperMotor_Control.h ****     // SLEEP -> Motor "aufwecken" -> Leistungsaufnahme
  66:StepperMotor_Control.h ****     Pin_StepperSLEEP_Write(1);
 337              		.loc 2 66 0
 338 0046 0120     		movs	r0, #1
 339 0048 FFF7FEFF 		bl	Pin_StepperSLEEP_Write
  67:StepperMotor_Control.h ****     // RESET -> nicht(!) resetten
  68:StepperMotor_Control.h ****     Pin_StepperRES_Write(1);
 340              		.loc 2 68 0
 341 004c 0120     		movs	r0, #1
 342 004e FFF7FEFF 		bl	Pin_StepperRES_Write
  69:StepperMotor_Control.h ****     
  70:StepperMotor_Control.h **** }
 343              		.loc 2 70 0
 344 0052 80BD     		pop	{r7, pc}
 345              	.L5:
 346              		.align	2
 347              	.L4:
 348 0054 00000000 		.word	f_max_Stepper
 349 0058 00E08540 		.word	1082515456
 350 005c 00000000 		.word	sig_shift_Stepper
 351 0060 000059C0 		.word	-1067909120
 352 0064 00000000 		.word	sig_raise_Stepper
 353 0068 00002440 		.word	1076101120
 354              		.cfi_endproc
 355              	.LFE58:
 356              		.size	Init_Stepper, .-Init_Stepper
 357              		.global	__aeabi_dadd
ARM GAS  C:\Users\LocalAdmin\AppData\Local\Temp\cchhZa3p.s 			page 9


 358              		.global	__aeabi_dcmpeq
 359              		.global	__aeabi_i2d
 360              		.global	__aeabi_ddiv
 361              		.global	__aeabi_dcmplt
 362              		.global	__aeabi_dsub
 363              		.global	__aeabi_dmul
 364              		.global	__aeabi_d2uiz
 365              		.section	.text.MoveTo,"ax",%progbits
 366              		.align	2
 367              		.global	MoveTo
 368              		.thumb
 369              		.thumb_func
 370              		.type	MoveTo, %function
 371              	MoveTo:
 372              	.LFB59:
  71:StepperMotor_Control.h **** 
  72:StepperMotor_Control.h **** 
  73:StepperMotor_Control.h **** //
  74:StepperMotor_Control.h **** // Bewegen des Stepper-Motors um "steps" Schritte in Richtung "dir"
  75:StepperMotor_Control.h **** //
  76:StepperMotor_Control.h **** void MoveTo (double steps, double dir)
  77:StepperMotor_Control.h **** {
 373              		.loc 2 77 0
 374              		.cfi_startproc
 375              		@ args = 0, pretend = 0, frame = 64
 376              		@ frame_needed = 1, uses_anonymous_args = 0
 377 0000 2DE9B043 		push	{r4, r5, r7, r8, r9, lr}
 378              		.cfi_def_cfa_offset 24
 379              		.cfi_offset 4, -24
 380              		.cfi_offset 5, -20
 381              		.cfi_offset 7, -16
 382              		.cfi_offset 8, -12
 383              		.cfi_offset 9, -8
 384              		.cfi_offset 14, -4
 385 0004 90B0     		sub	sp, sp, #64
 386              		.cfi_def_cfa_offset 88
 387 0006 00AF     		add	r7, sp, #0
 388              		.cfi_def_cfa_register 7
 389 0008 C7E90201 		strd	r0, [r7, #8]
 390 000c C7E90023 		strd	r2, [r7]
  78:StepperMotor_Control.h **** 	// Übergebene Steps müssen mit 2 Mulipliziert werden, da jeder 
  79:StepperMotor_Control.h **** 	// Schritt 2 Flankenwechsel beeinhaltet
  80:StepperMotor_Control.h **** 	steps = steps*2;
 391              		.loc 2 80 0
 392 0010 D7E90223 		ldrd	r2, [r7, #8]
 393 0014 1046     		mov	r0, r2
 394 0016 1946     		mov	r1, r3
 395 0018 FFF7FEFF 		bl	__aeabi_dadd
 396 001c 0246     		mov	r2, r0
 397 001e 0B46     		mov	r3, r1
 398 0020 C7E90223 		strd	r2, [r7, #8]
  81:StepperMotor_Control.h **** 	
  82:StepperMotor_Control.h ****     // Maximale Frequenz
  83:StepperMotor_Control.h ****     double f_max;
  84:StepperMotor_Control.h ****     // Relative Frequenz [0, 1]
  85:StepperMotor_Control.h ****     double f_rel;
  86:StepperMotor_Control.h ****     // Inkrement der Anzufahrenden Schritte
ARM GAS  C:\Users\LocalAdmin\AppData\Local\Temp\cchhZa3p.s 			page 10


  87:StepperMotor_Control.h ****     int i;
  88:StepperMotor_Control.h ****     // gerundete Dauer des Stepper-Zustands
  89:StepperMotor_Control.h ****     double t_StepperCLK;    
  90:StepperMotor_Control.h ****     // Verschiebung des Sigmoids
  91:StepperMotor_Control.h ****     double sig_shift;                   // höherere Wert -> höherere Frequenz zu Beginn
  92:StepperMotor_Control.h ****     // Anstieg des Sigmoids
  93:StepperMotor_Control.h ****     double sig_raise;                   // höherer Wert -> schnellerer Anstieg
  94:StepperMotor_Control.h ****     
  95:StepperMotor_Control.h ****     //
  96:StepperMotor_Control.h ****     // Parameterset für Motorkontrolle aus "MotorRamp.m"
  97:StepperMotor_Control.h ****     //   
  98:StepperMotor_Control.h ****     f_max = f_max_Stepper;
 399              		.loc 2 98 0
 400 0024 9A4B     		ldr	r3, .L19+8
 401 0026 D3E90023 		ldrd	r2, [r3]
 402 002a C7E90C23 		strd	r2, [r7, #48]
  99:StepperMotor_Control.h ****     sig_shift = sig_shift_Stepper;
 403              		.loc 2 99 0
 404 002e 994B     		ldr	r3, .L19+12
 405 0030 D3E90023 		ldrd	r2, [r3]
 406 0034 C7E90A23 		strd	r2, [r7, #40]
 100:StepperMotor_Control.h ****     sig_raise = sig_raise_Stepper;
 407              		.loc 2 100 0
 408 0038 974B     		ldr	r3, .L19+16
 409 003a D3E90023 		ldrd	r2, [r3]
 410 003e C7E90823 		strd	r2, [r7, #32]
 101:StepperMotor_Control.h ****     
 102:StepperMotor_Control.h ****     
 103:StepperMotor_Control.h ****     // SLEEP -> Motor "aufwecken" -> Leistungsaufnahme
 104:StepperMotor_Control.h ****     Pin_StepperSLEEP_Write(1);
 411              		.loc 2 104 0
 412 0042 0120     		movs	r0, #1
 413 0044 FFF7FEFF 		bl	Pin_StepperSLEEP_Write
 105:StepperMotor_Control.h ****     
 106:StepperMotor_Control.h ****     // Richtung setzen
 107:StepperMotor_Control.h ****     //
 108:StepperMotor_Control.h ****     // Rechtsdrehung
 109:StepperMotor_Control.h ****     if (dir == RIGHT)
 414              		.loc 2 109 0
 415 0048 D7E90001 		ldrd	r0, [r7]
 416 004c 4FF00002 		mov	r2, #0
 417 0050 924B     		ldr	r3, .L19+20
 418 0052 FFF7FEFF 		bl	__aeabi_dcmpeq
 419 0056 0346     		mov	r3, r0
 420 0058 002B     		cmp	r3, #0
 421 005a 03D0     		beq	.L17
 110:StepperMotor_Control.h ****     {
 111:StepperMotor_Control.h ****         Pin_StepperDIR_Write(0);
 422              		.loc 2 111 0
 423 005c 0020     		movs	r0, #0
 424 005e FFF7FEFF 		bl	Pin_StepperDIR_Write
 425 0062 02E0     		b	.L9
 426              	.L17:
 112:StepperMotor_Control.h ****     }
 113:StepperMotor_Control.h ****     // Linksdrehung
 114:StepperMotor_Control.h ****     else
 115:StepperMotor_Control.h ****     {
ARM GAS  C:\Users\LocalAdmin\AppData\Local\Temp\cchhZa3p.s 			page 11


 116:StepperMotor_Control.h ****         Pin_StepperDIR_Write(1);
 427              		.loc 2 116 0
 428 0064 0120     		movs	r0, #1
 429 0066 FFF7FEFF 		bl	Pin_StepperDIR_Write
 430              	.L9:
 117:StepperMotor_Control.h ****     }    
 118:StepperMotor_Control.h ****     
 119:StepperMotor_Control.h ****     // Für jeden der Schritte
 120:StepperMotor_Control.h ****     for (i = 0; i < steps; i = i + 1)
 431              		.loc 2 120 0
 432 006a 0023     		movs	r3, #0
 433 006c FB63     		str	r3, [r7, #60]
 434 006e F8E0     		b	.L10
 435              	.L14:
 121:StepperMotor_Control.h ****     {
 122:StepperMotor_Control.h ****         // Frequenz für Beschleunigungsteil
 123:StepperMotor_Control.h ****         if (i < steps/2)
 436              		.loc 2 123 0
 437 0070 F86B     		ldr	r0, [r7, #60]
 438 0072 FFF7FEFF 		bl	__aeabi_i2d
 439 0076 0446     		mov	r4, r0
 440 0078 0D46     		mov	r5, r1
 441 007a D7E90201 		ldrd	r0, [r7, #8]
 442 007e 4FF00002 		mov	r2, #0
 443 0082 4FF08043 		mov	r3, #1073741824
 444 0086 FFF7FEFF 		bl	__aeabi_ddiv
 445 008a 0246     		mov	r2, r0
 446 008c 0B46     		mov	r3, r1
 447 008e 2046     		mov	r0, r4
 448 0090 2946     		mov	r1, r5
 449 0092 FFF7FEFF 		bl	__aeabi_dcmplt
 450 0096 0346     		mov	r3, r0
 451 0098 002B     		cmp	r3, #0
 452 009a 67D0     		beq	.L18
 124:StepperMotor_Control.h ****         {       
 125:StepperMotor_Control.h ****             // Berechnung der Frequenz
 126:StepperMotor_Control.h ****             f_rel = 1/(1+exp(-1/(steps/sig_raise)*(i-steps/sig_shift))); 
 453              		.loc 2 126 0
 454 009c D7E90201 		ldrd	r0, [r7, #8]
 455 00a0 D7E90823 		ldrd	r2, [r7, #32]
 456 00a4 FFF7FEFF 		bl	__aeabi_ddiv
 457 00a8 0246     		mov	r2, r0
 458 00aa 0B46     		mov	r3, r1
 459 00ac 4FF00000 		mov	r0, #0
 460 00b0 7B49     		ldr	r1, .L19+24
 461 00b2 FFF7FEFF 		bl	__aeabi_ddiv
 462 00b6 0246     		mov	r2, r0
 463 00b8 0B46     		mov	r3, r1
 464 00ba 1446     		mov	r4, r2
 465 00bc 1D46     		mov	r5, r3
 466 00be F86B     		ldr	r0, [r7, #60]
 467 00c0 FFF7FEFF 		bl	__aeabi_i2d
 468 00c4 8046     		mov	r8, r0
 469 00c6 8946     		mov	r9, r1
 470 00c8 D7E90201 		ldrd	r0, [r7, #8]
 471 00cc D7E90A23 		ldrd	r2, [r7, #40]
 472 00d0 FFF7FEFF 		bl	__aeabi_ddiv
ARM GAS  C:\Users\LocalAdmin\AppData\Local\Temp\cchhZa3p.s 			page 12


 473 00d4 0246     		mov	r2, r0
 474 00d6 0B46     		mov	r3, r1
 475 00d8 4046     		mov	r0, r8
 476 00da 4946     		mov	r1, r9
 477 00dc FFF7FEFF 		bl	__aeabi_dsub
 478 00e0 0246     		mov	r2, r0
 479 00e2 0B46     		mov	r3, r1
 480 00e4 2046     		mov	r0, r4
 481 00e6 2946     		mov	r1, r5
 482 00e8 FFF7FEFF 		bl	__aeabi_dmul
 483 00ec 0246     		mov	r2, r0
 484 00ee 0B46     		mov	r3, r1
 485 00f0 1046     		mov	r0, r2
 486 00f2 1946     		mov	r1, r3
 487 00f4 FFF7FEFF 		bl	exp
 488 00f8 0246     		mov	r2, r0
 489 00fa 0B46     		mov	r3, r1
 490 00fc 1046     		mov	r0, r2
 491 00fe 1946     		mov	r1, r3
 492 0100 4FF00002 		mov	r2, #0
 493 0104 654B     		ldr	r3, .L19+20
 494 0106 FFF7FEFF 		bl	__aeabi_dadd
 495 010a 0246     		mov	r2, r0
 496 010c 0B46     		mov	r3, r1
 497 010e 4FF00000 		mov	r0, #0
 498 0112 6249     		ldr	r1, .L19+20
 499 0114 FFF7FEFF 		bl	__aeabi_ddiv
 500 0118 0246     		mov	r2, r0
 501 011a 0B46     		mov	r3, r1
 502 011c C7E90623 		strd	r2, [r7, #24]
 127:StepperMotor_Control.h ****             // Momentane Ausgabe der LED invertieren
 128:StepperMotor_Control.h ****             Pin_StepperCLK_Write(!Pin_StepperCLK_Read());
 503              		.loc 2 128 0
 504 0120 FFF7FEFF 		bl	Pin_StepperCLK_Read
 505 0124 0346     		mov	r3, r0
 506 0126 002B     		cmp	r3, #0
 507 0128 0CBF     		ite	eq
 508 012a 0123     		moveq	r3, #1
 509 012c 0023     		movne	r3, #0
 510 012e DBB2     		uxtb	r3, r3
 511 0130 1846     		mov	r0, r3
 512 0132 FFF7FEFF 		bl	Pin_StepperCLK_Write
 129:StepperMotor_Control.h ****             // Anzeige LED-Togglen zum Test
 130:StepperMotor_Control.h ****             // Pin_LED_Write(!Pin_LED_Read());
 131:StepperMotor_Control.h ****             // ALT: // Wartezeit berechnen
 132:StepperMotor_Control.h ****             // ALT: t_StepperCLK = round(1000/(f_max*f_rel));
 133:StepperMotor_Control.h ****             // ALT: // Warten
 134:StepperMotor_Control.h ****             // ALT: CyDelay(t_StepperCLK);
 135:StepperMotor_Control.h ****             // Wartezeit in ms berechnen
 136:StepperMotor_Control.h ****             t_StepperCLK = 1000000/(f_max*f_rel);   
 513              		.loc 2 136 0
 514 0136 D7E90C01 		ldrd	r0, [r7, #48]
 515 013a D7E90623 		ldrd	r2, [r7, #24]
 516 013e FFF7FEFF 		bl	__aeabi_dmul
 517 0142 0246     		mov	r2, r0
 518 0144 0B46     		mov	r3, r1
 519 0146 50A1     		adr	r1, .L19
ARM GAS  C:\Users\LocalAdmin\AppData\Local\Temp\cchhZa3p.s 			page 13


 520 0148 D1E90001 		ldrd	r0, [r1]
 521 014c FFF7FEFF 		bl	__aeabi_ddiv
 522 0150 0246     		mov	r2, r0
 523 0152 0B46     		mov	r3, r1
 524 0154 C7E90423 		strd	r2, [r7, #16]
 137:StepperMotor_Control.h ****             // umrechnen in us
 138:StepperMotor_Control.h ****             CyDelayUs((uint16)(t_StepperCLK));           
 525              		.loc 2 138 0
 526 0158 D7E90401 		ldrd	r0, [r7, #16]
 527 015c FFF7FEFF 		bl	__aeabi_d2uiz
 528 0160 0346     		mov	r3, r0
 529 0162 9BB2     		uxth	r3, r3
 530 0164 1846     		mov	r0, r3
 531 0166 FFF7FEFF 		bl	CyDelayUs
 532 016a 77E0     		b	.L13
 533              	.L18:
 139:StepperMotor_Control.h **** 
 140:StepperMotor_Control.h ****         }        
 141:StepperMotor_Control.h ****         // Frequenz für Abbremsungsgungsteil
 142:StepperMotor_Control.h ****         else 
 143:StepperMotor_Control.h ****         {
 144:StepperMotor_Control.h ****             // Berechnung der Frequenz
 145:StepperMotor_Control.h ****             f_rel = (1 - 1/(1+exp(-1/(steps/sig_raise)*(i-steps+steps/sig_shift)))); 
 534              		.loc 2 145 0
 535 016c D7E90201 		ldrd	r0, [r7, #8]
 536 0170 D7E90823 		ldrd	r2, [r7, #32]
 537 0174 FFF7FEFF 		bl	__aeabi_ddiv
 538 0178 0246     		mov	r2, r0
 539 017a 0B46     		mov	r3, r1
 540 017c 4FF00000 		mov	r0, #0
 541 0180 4749     		ldr	r1, .L19+24
 542 0182 FFF7FEFF 		bl	__aeabi_ddiv
 543 0186 0246     		mov	r2, r0
 544 0188 0B46     		mov	r3, r1
 545 018a 1446     		mov	r4, r2
 546 018c 1D46     		mov	r5, r3
 547 018e F86B     		ldr	r0, [r7, #60]
 548 0190 FFF7FEFF 		bl	__aeabi_i2d
 549 0194 0246     		mov	r2, r0
 550 0196 0B46     		mov	r3, r1
 551 0198 1046     		mov	r0, r2
 552 019a 1946     		mov	r1, r3
 553 019c D7E90223 		ldrd	r2, [r7, #8]
 554 01a0 FFF7FEFF 		bl	__aeabi_dsub
 555 01a4 0246     		mov	r2, r0
 556 01a6 0B46     		mov	r3, r1
 557 01a8 9046     		mov	r8, r2
 558 01aa 9946     		mov	r9, r3
 559 01ac D7E90201 		ldrd	r0, [r7, #8]
 560 01b0 D7E90A23 		ldrd	r2, [r7, #40]
 561 01b4 FFF7FEFF 		bl	__aeabi_ddiv
 562 01b8 0246     		mov	r2, r0
 563 01ba 0B46     		mov	r3, r1
 564 01bc 4046     		mov	r0, r8
 565 01be 4946     		mov	r1, r9
 566 01c0 FFF7FEFF 		bl	__aeabi_dadd
 567 01c4 0246     		mov	r2, r0
ARM GAS  C:\Users\LocalAdmin\AppData\Local\Temp\cchhZa3p.s 			page 14


 568 01c6 0B46     		mov	r3, r1
 569 01c8 2046     		mov	r0, r4
 570 01ca 2946     		mov	r1, r5
 571 01cc FFF7FEFF 		bl	__aeabi_dmul
 572 01d0 0246     		mov	r2, r0
 573 01d2 0B46     		mov	r3, r1
 574 01d4 1046     		mov	r0, r2
 575 01d6 1946     		mov	r1, r3
 576 01d8 FFF7FEFF 		bl	exp
 577 01dc 0246     		mov	r2, r0
 578 01de 0B46     		mov	r3, r1
 579 01e0 1046     		mov	r0, r2
 580 01e2 1946     		mov	r1, r3
 581 01e4 4FF00002 		mov	r2, #0
 582 01e8 2C4B     		ldr	r3, .L19+20
 583 01ea FFF7FEFF 		bl	__aeabi_dadd
 584 01ee 0246     		mov	r2, r0
 585 01f0 0B46     		mov	r3, r1
 586 01f2 4FF00000 		mov	r0, #0
 587 01f6 2949     		ldr	r1, .L19+20
 588 01f8 FFF7FEFF 		bl	__aeabi_ddiv
 589 01fc 0246     		mov	r2, r0
 590 01fe 0B46     		mov	r3, r1
 591 0200 4FF00000 		mov	r0, #0
 592 0204 2549     		ldr	r1, .L19+20
 593 0206 FFF7FEFF 		bl	__aeabi_dsub
 594 020a 0246     		mov	r2, r0
 595 020c 0B46     		mov	r3, r1
 596 020e C7E90623 		strd	r2, [r7, #24]
 146:StepperMotor_Control.h ****             // Momentane Ausgabe der LED invertieren
 147:StepperMotor_Control.h ****             Pin_StepperCLK_Write(!Pin_StepperCLK_Read());
 597              		.loc 2 147 0
 598 0212 FFF7FEFF 		bl	Pin_StepperCLK_Read
 599 0216 0346     		mov	r3, r0
 600 0218 002B     		cmp	r3, #0
 601 021a 0CBF     		ite	eq
 602 021c 0123     		moveq	r3, #1
 603 021e 0023     		movne	r3, #0
 604 0220 DBB2     		uxtb	r3, r3
 605 0222 1846     		mov	r0, r3
 606 0224 FFF7FEFF 		bl	Pin_StepperCLK_Write
 148:StepperMotor_Control.h ****             // Anzeige LED-Togglen zum Test
 149:StepperMotor_Control.h ****             // Pin_LED_Write(!Pin_LED_Read());
 150:StepperMotor_Control.h ****             // ALT: // Wartezeit berechnen
 151:StepperMotor_Control.h ****             // ALT: t_StepperCLK = round(1000/(f_max*f_rel));
 152:StepperMotor_Control.h ****             // ALT: // Warten
 153:StepperMotor_Control.h ****             // ALT: CyDelay(t_StepperCLK);
 154:StepperMotor_Control.h ****             // Wartezeit in ms berechnen
 155:StepperMotor_Control.h ****             t_StepperCLK = 1000000/(f_max*f_rel);            
 607              		.loc 2 155 0
 608 0228 D7E90C01 		ldrd	r0, [r7, #48]
 609 022c D7E90623 		ldrd	r2, [r7, #24]
 610 0230 FFF7FEFF 		bl	__aeabi_dmul
 611 0234 0246     		mov	r2, r0
 612 0236 0B46     		mov	r3, r1
 613 0238 13A1     		adr	r1, .L19
 614 023a D1E90001 		ldrd	r0, [r1]
ARM GAS  C:\Users\LocalAdmin\AppData\Local\Temp\cchhZa3p.s 			page 15


 615 023e FFF7FEFF 		bl	__aeabi_ddiv
 616 0242 0246     		mov	r2, r0
 617 0244 0B46     		mov	r3, r1
 618 0246 C7E90423 		strd	r2, [r7, #16]
 156:StepperMotor_Control.h ****             // umrechnen in us
 157:StepperMotor_Control.h ****             CyDelayUs((uint16)(t_StepperCLK));           
 619              		.loc 2 157 0
 620 024a D7E90401 		ldrd	r0, [r7, #16]
 621 024e FFF7FEFF 		bl	__aeabi_d2uiz
 622 0252 0346     		mov	r3, r0
 623 0254 9BB2     		uxth	r3, r3
 624 0256 1846     		mov	r0, r3
 625 0258 FFF7FEFF 		bl	CyDelayUs
 626              	.L13:
 120:StepperMotor_Control.h ****     {
 627              		.loc 2 120 0 discriminator 2
 628 025c FB6B     		ldr	r3, [r7, #60]
 629 025e 0133     		adds	r3, r3, #1
 630 0260 FB63     		str	r3, [r7, #60]
 631              	.L10:
 120:StepperMotor_Control.h ****     {
 632              		.loc 2 120 0 is_stmt 0 discriminator 1
 633 0262 F86B     		ldr	r0, [r7, #60]
 634 0264 FFF7FEFF 		bl	__aeabi_i2d
 635 0268 0246     		mov	r2, r0
 636 026a 0B46     		mov	r3, r1
 637 026c 1046     		mov	r0, r2
 638 026e 1946     		mov	r1, r3
 639 0270 D7E90223 		ldrd	r2, [r7, #8]
 640 0274 FFF7FEFF 		bl	__aeabi_dcmplt
 641 0278 0346     		mov	r3, r0
 642 027a 002B     		cmp	r3, #0
 643 027c 7FF4F8AE 		bne	.L14
 158:StepperMotor_Control.h **** 
 159:StepperMotor_Control.h ****         }  
 160:StepperMotor_Control.h ****     }
 161:StepperMotor_Control.h ****     // SLEEP -> Motor in Schlafzustand setzen -> keine Leistungsaufnahme
 162:StepperMotor_Control.h ****     // Pin_StepperSLEEP_Write(0); 
 163:StepperMotor_Control.h **** }
 644              		.loc 2 163 0 is_stmt 1
 645 0280 4037     		adds	r7, r7, #64
 646              		.cfi_def_cfa_offset 24
 647 0282 BD46     		mov	sp, r7
 648              		.cfi_def_cfa_register 13
 649              		@ sp needed
 650 0284 BDE8B083 		pop	{r4, r5, r7, r8, r9, pc}
 651              	.L20:
 652              		.align	3
 653              	.L19:
 654 0288 00000000 		.word	0
 655 028c 80842E41 		.word	1093567616
 656 0290 00000000 		.word	f_max_Stepper
 657 0294 00000000 		.word	sig_shift_Stepper
 658 0298 00000000 		.word	sig_raise_Stepper
 659 029c 0000F03F 		.word	1072693248
 660 02a0 0000F0BF 		.word	-1074790400
 661              		.cfi_endproc
ARM GAS  C:\Users\LocalAdmin\AppData\Local\Temp\cchhZa3p.s 			page 16


 662              	.LFE59:
 663              		.size	MoveTo, .-MoveTo
 664 02a4 AFF30080 		.section	.text.MoveToWithConstSpeed,"ax",%progbits
 665              		.align	2
 666              		.global	MoveToWithConstSpeed
 667              		.thumb
 668              		.thumb_func
 669              		.type	MoveToWithConstSpeed, %function
 670              	MoveToWithConstSpeed:
 671              	.LFB60:
 164:StepperMotor_Control.h **** 
 165:StepperMotor_Control.h **** //
 166:StepperMotor_Control.h **** // Bewegen des Stepper-Motors um "steps" Schritte in Richtung "dir"
 167:StepperMotor_Control.h **** //
 168:StepperMotor_Control.h **** void MoveToWithConstSpeed (double steps, double dir)
 169:StepperMotor_Control.h **** {
 672              		.loc 2 169 0
 673              		.cfi_startproc
 674              		@ args = 0, pretend = 0, frame = 32
 675              		@ frame_needed = 1, uses_anonymous_args = 0
 676 0000 80B5     		push	{r7, lr}
 677              		.cfi_def_cfa_offset 8
 678              		.cfi_offset 7, -8
 679              		.cfi_offset 14, -4
 680 0002 88B0     		sub	sp, sp, #32
 681              		.cfi_def_cfa_offset 40
 682 0004 00AF     		add	r7, sp, #0
 683              		.cfi_def_cfa_register 7
 684 0006 C7E90201 		strd	r0, [r7, #8]
 685 000a C7E90023 		strd	r2, [r7]
 170:StepperMotor_Control.h **** 	// Übergebene Steps müssen mit 2 Mulipliziert werden, da jeder 
 171:StepperMotor_Control.h **** 	// Schritt 2 Flankenwechsel beeinhaltet
 172:StepperMotor_Control.h **** 	steps = steps*2;
 686              		.loc 2 172 0
 687 000e D7E90223 		ldrd	r2, [r7, #8]
 688 0012 1046     		mov	r0, r2
 689 0014 1946     		mov	r1, r3
 690 0016 FFF7FEFF 		bl	__aeabi_dadd
 691 001a 0246     		mov	r2, r0
 692 001c 0B46     		mov	r3, r1
 693 001e C7E90223 		strd	r2, [r7, #8]
 173:StepperMotor_Control.h **** 	
 174:StepperMotor_Control.h ****     // Inkrement der Anzufahrenden Schritte
 175:StepperMotor_Control.h ****     int i;
 176:StepperMotor_Control.h ****     // gerundete Dauer des Stepper-Zustands
 177:StepperMotor_Control.h ****     double t_StepperCLK;       
 178:StepperMotor_Control.h ****     
 179:StepperMotor_Control.h ****     // SLEEP -> Motor "aufwecken" -> Leistungsaufnahme
 180:StepperMotor_Control.h ****     Pin_StepperSLEEP_Write(1);
 694              		.loc 2 180 0
 695 0022 0120     		movs	r0, #1
 696 0024 FFF7FEFF 		bl	Pin_StepperSLEEP_Write
 181:StepperMotor_Control.h ****     
 182:StepperMotor_Control.h ****     // Richtung setzen
 183:StepperMotor_Control.h ****     //
 184:StepperMotor_Control.h ****     // Rechtsdrehung
 185:StepperMotor_Control.h ****     if (dir == RIGHT)
ARM GAS  C:\Users\LocalAdmin\AppData\Local\Temp\cchhZa3p.s 			page 17


 697              		.loc 2 185 0
 698 0028 D7E90001 		ldrd	r0, [r7]
 699 002c 4FF00002 		mov	r2, #0
 700 0030 214B     		ldr	r3, .L29+8
 701 0032 FFF7FEFF 		bl	__aeabi_dcmpeq
 702 0036 0346     		mov	r3, r0
 703 0038 002B     		cmp	r3, #0
 704 003a 03D0     		beq	.L28
 186:StepperMotor_Control.h ****     {
 187:StepperMotor_Control.h ****         Pin_StepperDIR_Write(0);
 705              		.loc 2 187 0
 706 003c 0020     		movs	r0, #0
 707 003e FFF7FEFF 		bl	Pin_StepperDIR_Write
 708 0042 02E0     		b	.L24
 709              	.L28:
 188:StepperMotor_Control.h ****     }
 189:StepperMotor_Control.h ****     // Linksdrehung
 190:StepperMotor_Control.h ****     else
 191:StepperMotor_Control.h ****     {
 192:StepperMotor_Control.h ****         Pin_StepperDIR_Write(1);
 710              		.loc 2 192 0
 711 0044 0120     		movs	r0, #1
 712 0046 FFF7FEFF 		bl	Pin_StepperDIR_Write
 713              	.L24:
 193:StepperMotor_Control.h ****     }    
 194:StepperMotor_Control.h ****     
 195:StepperMotor_Control.h ****     // Für jeden der Schritte
 196:StepperMotor_Control.h ****     for (i = 0; i < steps; i = i + 1)
 714              		.loc 2 196 0
 715 004a 0023     		movs	r3, #0
 716 004c FB61     		str	r3, [r7, #28]
 717 004e 1BE0     		b	.L25
 718              	.L26:
 197:StepperMotor_Control.h ****     {
 198:StepperMotor_Control.h ****         // Momentane Ausgabe der LED invertieren
 199:StepperMotor_Control.h ****         Pin_StepperCLK_Write(!Pin_StepperCLK_Read());
 719              		.loc 2 199 0 discriminator 3
 720 0050 FFF7FEFF 		bl	Pin_StepperCLK_Read
 721 0054 0346     		mov	r3, r0
 722 0056 002B     		cmp	r3, #0
 723 0058 0CBF     		ite	eq
 724 005a 0123     		moveq	r3, #1
 725 005c 0023     		movne	r3, #0
 726 005e DBB2     		uxtb	r3, r3
 727 0060 1846     		mov	r0, r3
 728 0062 FFF7FEFF 		bl	Pin_StepperCLK_Write
 200:StepperMotor_Control.h ****         t_StepperCLK = 27500; // [mus]
 729              		.loc 2 200 0 discriminator 3
 730 0066 12A3     		adr	r3, .L29
 731 0068 D3E90023 		ldrd	r2, [r3]
 732 006c C7E90423 		strd	r2, [r7, #16]
 201:StepperMotor_Control.h ****         CyDelayUs((uint16)(t_StepperCLK));     
 733              		.loc 2 201 0 discriminator 3
 734 0070 D7E90401 		ldrd	r0, [r7, #16]
 735 0074 FFF7FEFF 		bl	__aeabi_d2uiz
 736 0078 0346     		mov	r3, r0
 737 007a 9BB2     		uxth	r3, r3
ARM GAS  C:\Users\LocalAdmin\AppData\Local\Temp\cchhZa3p.s 			page 18


 738 007c 1846     		mov	r0, r3
 739 007e FFF7FEFF 		bl	CyDelayUs
 196:StepperMotor_Control.h ****     {
 740              		.loc 2 196 0 discriminator 3
 741 0082 FB69     		ldr	r3, [r7, #28]
 742 0084 0133     		adds	r3, r3, #1
 743 0086 FB61     		str	r3, [r7, #28]
 744              	.L25:
 196:StepperMotor_Control.h ****     {
 745              		.loc 2 196 0 is_stmt 0 discriminator 1
 746 0088 F869     		ldr	r0, [r7, #28]
 747 008a FFF7FEFF 		bl	__aeabi_i2d
 748 008e 0246     		mov	r2, r0
 749 0090 0B46     		mov	r3, r1
 750 0092 1046     		mov	r0, r2
 751 0094 1946     		mov	r1, r3
 752 0096 D7E90223 		ldrd	r2, [r7, #8]
 753 009a FFF7FEFF 		bl	__aeabi_dcmplt
 754 009e 0346     		mov	r3, r0
 755 00a0 002B     		cmp	r3, #0
 756 00a2 D5D1     		bne	.L26
 202:StepperMotor_Control.h ****     }
 203:StepperMotor_Control.h ****     // SLEEP -> Motor in Schlafzustand setzen -> keine Leistungsaufnahme
 204:StepperMotor_Control.h ****     // Pin_StepperSLEEP_Write(0); 
 205:StepperMotor_Control.h **** }
 757              		.loc 2 205 0 is_stmt 1
 758 00a4 2037     		adds	r7, r7, #32
 759              		.cfi_def_cfa_offset 8
 760 00a6 BD46     		mov	sp, r7
 761              		.cfi_def_cfa_register 13
 762              		@ sp needed
 763 00a8 80BD     		pop	{r7, pc}
 764              	.L30:
 765 00aa 00BFAFF3 		.align	3
 765      0080
 766              	.L29:
 767 00b0 00000000 		.word	0
 768 00b4 00DBDA40 		.word	1088084736
 769 00b8 0000F03F 		.word	1072693248
 770              		.cfi_endproc
 771              	.LFE60:
 772              		.size	MoveToWithConstSpeed, .-MoveToWithConstSpeed
 773 00bc AFF30080 		.section	.text.MoveOneStep_Clockwise,"ax",%progbits
 774              		.align	2
 775              		.global	MoveOneStep_Clockwise
 776              		.thumb
 777              		.thumb_func
 778              		.type	MoveOneStep_Clockwise, %function
 779              	MoveOneStep_Clockwise:
 780              	.LFB61:
 206:StepperMotor_Control.h **** 
 207:StepperMotor_Control.h **** //
 208:StepperMotor_Control.h **** // Einzelschritt fahren zum Suchen der Referenz-Position
 209:StepperMotor_Control.h **** //
 210:StepperMotor_Control.h **** void MoveOneStep_Clockwise (void)
 211:StepperMotor_Control.h **** {
 781              		.loc 2 211 0
ARM GAS  C:\Users\LocalAdmin\AppData\Local\Temp\cchhZa3p.s 			page 19


 782              		.cfi_startproc
 783              		@ args = 0, pretend = 0, frame = 0
 784              		@ frame_needed = 1, uses_anonymous_args = 0
 785 0000 80B5     		push	{r7, lr}
 786              		.cfi_def_cfa_offset 8
 787              		.cfi_offset 7, -8
 788              		.cfi_offset 14, -4
 789 0002 00AF     		add	r7, sp, #0
 790              		.cfi_def_cfa_register 7
 212:StepperMotor_Control.h ****     MoveToWithConstSpeed(StepsOneStepSettings, -1);
 791              		.loc 2 212 0
 792 0004 0423     		movs	r3, #4
 793 0006 1846     		mov	r0, r3
 794 0008 FFF7FEFF 		bl	__aeabi_i2d
 795 000c 0246     		mov	r2, r0
 796 000e 0B46     		mov	r3, r1
 797 0010 1046     		mov	r0, r2
 798 0012 1946     		mov	r1, r3
 799 0014 4FF00002 		mov	r2, #0
 800 0018 014B     		ldr	r3, .L32
 801 001a FFF7FEFF 		bl	MoveToWithConstSpeed
 213:StepperMotor_Control.h **** }
 802              		.loc 2 213 0
 803 001e 80BD     		pop	{r7, pc}
 804              	.L33:
 805              		.align	2
 806              	.L32:
 807 0020 0000F0BF 		.word	-1074790400
 808              		.cfi_endproc
 809              	.LFE61:
 810              		.size	MoveOneStep_Clockwise, .-MoveOneStep_Clockwise
 811              		.section	.text.MoveOneStep_CounterClockwise,"ax",%progbits
 812              		.align	2
 813              		.global	MoveOneStep_CounterClockwise
 814              		.thumb
 815              		.thumb_func
 816              		.type	MoveOneStep_CounterClockwise, %function
 817              	MoveOneStep_CounterClockwise:
 818              	.LFB62:
 214:StepperMotor_Control.h **** 
 215:StepperMotor_Control.h **** //
 216:StepperMotor_Control.h **** // Einzelschritt fahren zum Suchen der Referenz-Position
 217:StepperMotor_Control.h **** //
 218:StepperMotor_Control.h **** void MoveOneStep_CounterClockwise (void)
 219:StepperMotor_Control.h **** {
 819              		.loc 2 219 0
 820              		.cfi_startproc
 821              		@ args = 0, pretend = 0, frame = 0
 822              		@ frame_needed = 1, uses_anonymous_args = 0
 823 0000 80B5     		push	{r7, lr}
 824              		.cfi_def_cfa_offset 8
 825              		.cfi_offset 7, -8
 826              		.cfi_offset 14, -4
 827 0002 00AF     		add	r7, sp, #0
 828              		.cfi_def_cfa_register 7
 220:StepperMotor_Control.h ****     MoveToWithConstSpeed(StepsOneStepSettings, 1);
 829              		.loc 2 220 0
ARM GAS  C:\Users\LocalAdmin\AppData\Local\Temp\cchhZa3p.s 			page 20


 830 0004 0423     		movs	r3, #4
 831 0006 1846     		mov	r0, r3
 832 0008 FFF7FEFF 		bl	__aeabi_i2d
 833 000c 0246     		mov	r2, r0
 834 000e 0B46     		mov	r3, r1
 835 0010 1046     		mov	r0, r2
 836 0012 1946     		mov	r1, r3
 837 0014 4FF00002 		mov	r2, #0
 838 0018 014B     		ldr	r3, .L35
 839 001a FFF7FEFF 		bl	MoveToWithConstSpeed
 221:StepperMotor_Control.h **** }
 840              		.loc 2 221 0
 841 001e 80BD     		pop	{r7, pc}
 842              	.L36:
 843              		.align	2
 844              	.L35:
 845 0020 0000F03F 		.word	1072693248
 846              		.cfi_endproc
 847              	.LFE62:
 848              		.size	MoveOneStep_CounterClockwise, .-MoveOneStep_CounterClockwise
 849              		.section	.text.MoveToSamplingPosition,"ax",%progbits
 850              		.align	2
 851              		.global	MoveToSamplingPosition
 852              		.thumb
 853              		.thumb_func
 854              		.type	MoveToSamplingPosition, %function
 855              	MoveToSamplingPosition:
 856              	.LFB63:
 222:StepperMotor_Control.h **** 
 223:StepperMotor_Control.h **** //
 224:StepperMotor_Control.h **** // Positionswechsel Home -> Sampling
 225:StepperMotor_Control.h **** //
 226:StepperMotor_Control.h **** void MoveToSamplingPosition (void)
 227:StepperMotor_Control.h **** {
 857              		.loc 2 227 0
 858              		.cfi_startproc
 859              		@ args = 0, pretend = 0, frame = 0
 860              		@ frame_needed = 1, uses_anonymous_args = 0
 861 0000 80B5     		push	{r7, lr}
 862              		.cfi_def_cfa_offset 8
 863              		.cfi_offset 7, -8
 864              		.cfi_offset 14, -4
 865 0002 00AF     		add	r7, sp, #0
 866              		.cfi_def_cfa_register 7
 228:StepperMotor_Control.h ****     MoveTo(StepsDifferenceHomeSampling, -1);
 867              		.loc 2 228 0
 868 0004 4FF44873 		mov	r3, #800
 869 0008 1846     		mov	r0, r3
 870 000a FFF7FEFF 		bl	__aeabi_i2d
 871 000e 0246     		mov	r2, r0
 872 0010 0B46     		mov	r3, r1
 873 0012 1046     		mov	r0, r2
 874 0014 1946     		mov	r1, r3
 875 0016 4FF00002 		mov	r2, #0
 876 001a 024B     		ldr	r3, .L38
 877 001c FFF7FEFF 		bl	MoveTo
 229:StepperMotor_Control.h **** }
ARM GAS  C:\Users\LocalAdmin\AppData\Local\Temp\cchhZa3p.s 			page 21


 878              		.loc 2 229 0
 879 0020 80BD     		pop	{r7, pc}
 880              	.L39:
 881 0022 00BF     		.align	2
 882              	.L38:
 883 0024 0000F0BF 		.word	-1074790400
 884              		.cfi_endproc
 885              	.LFE63:
 886              		.size	MoveToSamplingPosition, .-MoveToSamplingPosition
 887              		.section	.text.MoveToHomePosition,"ax",%progbits
 888              		.align	2
 889              		.global	MoveToHomePosition
 890              		.thumb
 891              		.thumb_func
 892              		.type	MoveToHomePosition, %function
 893              	MoveToHomePosition:
 894              	.LFB64:
 230:StepperMotor_Control.h **** 
 231:StepperMotor_Control.h **** 
 232:StepperMotor_Control.h **** //
 233:StepperMotor_Control.h **** // Positionswechsel Home -> Sampling
 234:StepperMotor_Control.h **** //
 235:StepperMotor_Control.h **** void MoveToHomePosition (void)
 236:StepperMotor_Control.h **** {
 895              		.loc 2 236 0
 896              		.cfi_startproc
 897              		@ args = 0, pretend = 0, frame = 0
 898              		@ frame_needed = 1, uses_anonymous_args = 0
 899 0000 80B5     		push	{r7, lr}
 900              		.cfi_def_cfa_offset 8
 901              		.cfi_offset 7, -8
 902              		.cfi_offset 14, -4
 903 0002 00AF     		add	r7, sp, #0
 904              		.cfi_def_cfa_register 7
 237:StepperMotor_Control.h ****     MoveTo(StepsDifferenceHomeSampling, 1);
 905              		.loc 2 237 0
 906 0004 4FF44873 		mov	r3, #800
 907 0008 1846     		mov	r0, r3
 908 000a FFF7FEFF 		bl	__aeabi_i2d
 909 000e 0246     		mov	r2, r0
 910 0010 0B46     		mov	r3, r1
 911 0012 1046     		mov	r0, r2
 912 0014 1946     		mov	r1, r3
 913 0016 4FF00002 		mov	r2, #0
 914 001a 024B     		ldr	r3, .L41
 915 001c FFF7FEFF 		bl	MoveTo
 238:StepperMotor_Control.h **** }
 916              		.loc 2 238 0
 917 0020 80BD     		pop	{r7, pc}
 918              	.L42:
 919 0022 00BF     		.align	2
 920              	.L41:
 921 0024 0000F03F 		.word	1072693248
 922              		.cfi_endproc
 923              	.LFE64:
 924              		.size	MoveToHomePosition, .-MoveToHomePosition
 925              		.section	.text.TestRotationMove,"ax",%progbits
ARM GAS  C:\Users\LocalAdmin\AppData\Local\Temp\cchhZa3p.s 			page 22


 926              		.align	2
 927              		.global	TestRotationMove
 928              		.thumb
 929              		.thumb_func
 930              		.type	TestRotationMove, %function
 931              	TestRotationMove:
 932              	.LFB65:
 239:StepperMotor_Control.h **** 
 240:StepperMotor_Control.h **** //
 241:StepperMotor_Control.h **** // Test des ganzen Versuchsgeschehens
 242:StepperMotor_Control.h **** //
 243:StepperMotor_Control.h **** void TestRotationMove (int No_Steps)
 244:StepperMotor_Control.h **** {
 933              		.loc 2 244 0
 934              		.cfi_startproc
 935              		@ args = 0, pretend = 0, frame = 8
 936              		@ frame_needed = 1, uses_anonymous_args = 0
 937 0000 80B5     		push	{r7, lr}
 938              		.cfi_def_cfa_offset 8
 939              		.cfi_offset 7, -8
 940              		.cfi_offset 14, -4
 941 0002 82B0     		sub	sp, sp, #8
 942              		.cfi_def_cfa_offset 16
 943 0004 00AF     		add	r7, sp, #0
 944              		.cfi_def_cfa_register 7
 945 0006 7860     		str	r0, [r7, #4]
 245:StepperMotor_Control.h ****     // Test "Sampling Position anfahren"
 246:StepperMotor_Control.h ****     MoveTo(No_Steps, -1);  
 946              		.loc 2 246 0
 947 0008 7868     		ldr	r0, [r7, #4]
 948 000a FFF7FEFF 		bl	__aeabi_i2d
 949 000e 0246     		mov	r2, r0
 950 0010 0B46     		mov	r3, r1
 951 0012 1046     		mov	r0, r2
 952 0014 1946     		mov	r1, r3
 953 0016 4FF00002 		mov	r2, #0
 954 001a 114B     		ldr	r3, .L44
 955 001c FFF7FEFF 		bl	MoveTo
 247:StepperMotor_Control.h ****     
 248:StepperMotor_Control.h ****     // Laser an
 249:StepperMotor_Control.h ****     Laser_ON();        
 956              		.loc 2 249 0
 957 0020 FFF7FEFF 		bl	Laser_ON
 250:StepperMotor_Control.h ****     // Test "Messung"
 251:StepperMotor_Control.h ****     CyDelay(1000);
 958              		.loc 2 251 0
 959 0024 4FF47A70 		mov	r0, #1000
 960 0028 FFF7FEFF 		bl	CyDelay
 252:StepperMotor_Control.h ****     // Laser aus
 253:StepperMotor_Control.h ****     Laser_OFF();
 961              		.loc 2 253 0
 962 002c FFF7FEFF 		bl	Laser_OFF
 254:StepperMotor_Control.h ****     
 255:StepperMotor_Control.h ****     // 50 Schritte entspricht Drehung um 90° beim verwendeten Schrittmotor
 256:StepperMotor_Control.h ****     // Test "Pick Up Position anfahren"
 257:StepperMotor_Control.h ****     MoveTo(No_Steps, 1); 
 963              		.loc 2 257 0
ARM GAS  C:\Users\LocalAdmin\AppData\Local\Temp\cchhZa3p.s 			page 23


 964 0030 7868     		ldr	r0, [r7, #4]
 965 0032 FFF7FEFF 		bl	__aeabi_i2d
 966 0036 0246     		mov	r2, r0
 967 0038 0B46     		mov	r3, r1
 968 003a 1046     		mov	r0, r2
 969 003c 1946     		mov	r1, r3
 970 003e 4FF00002 		mov	r2, #0
 971 0042 084B     		ldr	r3, .L44+4
 972 0044 FFF7FEFF 		bl	MoveTo
 258:StepperMotor_Control.h ****     
 259:StepperMotor_Control.h ****     // Laser an
 260:StepperMotor_Control.h ****     Laser_ON();        
 973              		.loc 2 260 0
 974 0048 FFF7FEFF 		bl	Laser_ON
 261:StepperMotor_Control.h ****     // Test "Warten auf Lamellen PickUp"
 262:StepperMotor_Control.h ****     CyDelay(500);
 975              		.loc 2 262 0
 976 004c 4FF4FA70 		mov	r0, #500
 977 0050 FFF7FEFF 		bl	CyDelay
 263:StepperMotor_Control.h ****     // Laser aus
 264:StepperMotor_Control.h ****     Laser_OFF(); 
 978              		.loc 2 264 0
 979 0054 FFF7FEFF 		bl	Laser_OFF
 265:StepperMotor_Control.h **** }
 980              		.loc 2 265 0
 981 0058 0837     		adds	r7, r7, #8
 982              		.cfi_def_cfa_offset 8
 983 005a BD46     		mov	sp, r7
 984              		.cfi_def_cfa_register 13
 985              		@ sp needed
 986 005c 80BD     		pop	{r7, pc}
 987              	.L45:
 988 005e 00BF     		.align	2
 989              	.L44:
 990 0060 0000F0BF 		.word	-1074790400
 991 0064 0000F03F 		.word	1072693248
 992              		.cfi_endproc
 993              	.LFE65:
 994              		.size	TestRotationMove, .-TestRotationMove
 995              		.section	.rodata
 996              		.align	2
 997              	.LC0:
 998 0020 70616765 		.ascii	"page Home\000"
 998      20486F6D 
 998      6500
 999              		.section	.text.Init_NextionTFT,"ax",%progbits
 1000              		.align	2
 1001              		.global	Init_NextionTFT
 1002              		.thumb
 1003              		.thumb_func
 1004              		.type	Init_NextionTFT, %function
 1005              	Init_NextionTFT:
 1006              	.LFB66:
 1007              		.file 3 "NextionLCD_Communication.h"
   1:NextionLCD_Communication.h **** /* ========================================
   2:NextionLCD_Communication.h ****  *
   3:NextionLCD_Communication.h ****  * Copyright YOUR COMPANY, THE YEAR
ARM GAS  C:\Users\LocalAdmin\AppData\Local\Temp\cchhZa3p.s 			page 24


   4:NextionLCD_Communication.h ****  * All Rights Reserved
   5:NextionLCD_Communication.h ****  * UNPUBLISHED, LICENSED SOFTWARE.
   6:NextionLCD_Communication.h ****  *
   7:NextionLCD_Communication.h ****  * CONFIDENTIAL AND PROPRIETARY INFORMATION
   8:NextionLCD_Communication.h ****  * WHICH IS THE PROPERTY OF your company.
   9:NextionLCD_Communication.h ****  *
  10:NextionLCD_Communication.h ****  * ========================================
  11:NextionLCD_Communication.h **** */
  12:NextionLCD_Communication.h **** 
  13:NextionLCD_Communication.h **** #include <project.h>
  14:NextionLCD_Communication.h **** #include <math.h>
  15:NextionLCD_Communication.h **** #include <stdio.h>
  16:NextionLCD_Communication.h **** #include <stdlib.h>         // enthält die itoa Funktion
  17:NextionLCD_Communication.h **** 
  18:NextionLCD_Communication.h **** #ifndef CY_ISR_Interrupt
  19:NextionLCD_Communication.h **** #define CY_ISR_Interrupt
  20:NextionLCD_Communication.h **** #endif
  21:NextionLCD_Communication.h **** 
  22:NextionLCD_Communication.h **** //
  23:NextionLCD_Communication.h **** // Initialisierung des TFT-Screens mit page "Home"
  24:NextionLCD_Communication.h **** //
  25:NextionLCD_Communication.h **** void Init_NextionTFT (void)
  26:NextionLCD_Communication.h **** {
 1008              		.loc 3 26 0
 1009              		.cfi_startproc
 1010              		@ args = 0, pretend = 0, frame = 0
 1011              		@ frame_needed = 1, uses_anonymous_args = 0
 1012 0000 80B5     		push	{r7, lr}
 1013              		.cfi_def_cfa_offset 8
 1014              		.cfi_offset 7, -8
 1015              		.cfi_offset 14, -4
 1016 0002 00AF     		add	r7, sp, #0
 1017              		.cfi_def_cfa_register 7
  27:NextionLCD_Communication.h ****     // Starten des TFT, enthält die entsprechenede "Init" und "Enable" Funktionen
  28:NextionLCD_Communication.h ****     UART_TFT_Start();
 1018              		.loc 3 28 0
 1019 0004 FFF7FEFF 		bl	UART_TFT_Start
  29:NextionLCD_Communication.h ****     CyDelay(1000);
 1020              		.loc 3 29 0
 1021 0008 4FF47A70 		mov	r0, #1000
 1022 000c FFF7FEFF 		bl	CyDelay
  30:NextionLCD_Communication.h ****     
  31:NextionLCD_Communication.h ****     // Anzeigen des Home-Screens bei Initialisierung
  32:NextionLCD_Communication.h ****     UART_TFT_PutString((char*)"page Home");
 1023              		.loc 3 32 0
 1024 0010 0648     		ldr	r0, .L47
 1025 0012 FFF7FEFF 		bl	UART_TFT_PutString
  33:NextionLCD_Communication.h ****     UART_TFT_PutChar(0xff);
 1026              		.loc 3 33 0
 1027 0016 FF20     		movs	r0, #255
 1028 0018 FFF7FEFF 		bl	UART_TFT_PutChar
  34:NextionLCD_Communication.h ****     UART_TFT_PutChar(0xff);
 1029              		.loc 3 34 0
 1030 001c FF20     		movs	r0, #255
 1031 001e FFF7FEFF 		bl	UART_TFT_PutChar
  35:NextionLCD_Communication.h ****     UART_TFT_PutChar(0xff);
 1032              		.loc 3 35 0
ARM GAS  C:\Users\LocalAdmin\AppData\Local\Temp\cchhZa3p.s 			page 25


 1033 0022 FF20     		movs	r0, #255
 1034 0024 FFF7FEFF 		bl	UART_TFT_PutChar
  36:NextionLCD_Communication.h **** //    CyDelay(100);
  37:NextionLCD_Communication.h ****     
  38:NextionLCD_Communication.h **** //    // Reset des GUI bei Initialisierung
  39:NextionLCD_Communication.h **** //    UART_TFT_PutString((char*)"rest");
  40:NextionLCD_Communication.h **** //    UART_TFT_PutChar(0xff);
  41:NextionLCD_Communication.h **** //    UART_TFT_PutChar(0xff);
  42:NextionLCD_Communication.h **** //    UART_TFT_PutChar(0xff);
  43:NextionLCD_Communication.h **** //    CyDelay(200);
  44:NextionLCD_Communication.h **** //    UART_TFT_Start();
  45:NextionLCD_Communication.h **** //    CyDelay(1000);    
  46:NextionLCD_Communication.h **** 
  47:NextionLCD_Communication.h **** //    // Show Button unsichtbar machen
  48:NextionLCD_Communication.h **** //    UART_TFT_PutString("vis b_show,0");
  49:NextionLCD_Communication.h **** //    // Anfrage absenden
  50:NextionLCD_Communication.h **** //    UART_TFT_PutChar(0xFF);
  51:NextionLCD_Communication.h **** //    UART_TFT_PutChar(0xFF);  
  52:NextionLCD_Communication.h **** //    UART_TFT_PutChar(0xFF);    
  53:NextionLCD_Communication.h **** }
 1035              		.loc 3 53 0
 1036 0028 80BD     		pop	{r7, pc}
 1037              	.L48:
 1038 002a 00BF     		.align	2
 1039              	.L47:
 1040 002c 20000000 		.word	.LC0
 1041              		.cfi_endproc
 1042              	.LFE66:
 1043              		.size	Init_NextionTFT, .-Init_NextionTFT
 1044              		.section	.rodata
 1045 002a 0000     		.align	2
 1046              	.LC1:
 1047 002c 67657420 		.ascii	"get slider.val\000"
 1047      736C6964 
 1047      65722E76 
 1047      616C00
 1048              		.section	.text.Nextion_GetSliderValue,"ax",%progbits
 1049              		.align	2
 1050              		.global	Nextion_GetSliderValue
 1051              		.thumb
 1052              		.thumb_func
 1053              		.type	Nextion_GetSliderValue, %function
 1054              	Nextion_GetSliderValue:
 1055              	.LFB67:
  54:NextionLCD_Communication.h **** 
  55:NextionLCD_Communication.h **** //////////
  56:NextionLCD_Communication.h **** ////////// Ersatz für floor der math.lib -> ist eigentlich für PSCO4 gemacht, weil er weniger int
  57:NextionLCD_Communication.h **** //////////
  58:NextionLCD_Communication.h **** ////////int ifloor(float x)
  59:NextionLCD_Communication.h **** ////////{
  60:NextionLCD_Communication.h **** ////////	if (x >= 0.0f)
  61:NextionLCD_Communication.h **** ////////	{
  62:NextionLCD_Communication.h **** ////////		return ((int)x);
  63:NextionLCD_Communication.h **** ////////	}
  64:NextionLCD_Communication.h **** ////////	else
  65:NextionLCD_Communication.h **** ////////	{
  66:NextionLCD_Communication.h **** ////////		return ((int)x - 1);
ARM GAS  C:\Users\LocalAdmin\AppData\Local\Temp\cchhZa3p.s 			page 26


  67:NextionLCD_Communication.h **** ////////	}
  68:NextionLCD_Communication.h **** ////////}
  69:NextionLCD_Communication.h **** 
  70:NextionLCD_Communication.h **** ////////// 
  71:NextionLCD_Communication.h **** ////////// Float -> ASCII-Umwandlung; x Float Wert zum Umwandeln, f anzahl der Stellen 
  72:NextionLCD_Communication.h **** ////////// z.B. 3; str Ergebnisstring; Laufzeit: 144 us
  73:NextionLCD_Communication.h **** //////////
  74:NextionLCD_Communication.h **** ////////void ftoa (float x,int f,char *str)
  75:NextionLCD_Communication.h **** ////////{
  76:NextionLCD_Communication.h **** ////////	float scale; /* scale factor */
  77:NextionLCD_Communication.h **** ////////	int i,d; /* copy of f, and # digits before decimal point */
  78:NextionLCD_Communication.h **** ////////	/* a digit */
  79:NextionLCD_Communication.h **** ////////	if( x < 0.0 )
  80:NextionLCD_Communication.h **** ////////	{
  81:NextionLCD_Communication.h **** ////////		*str++ = '-' ;
  82:NextionLCD_Communication.h **** ////////		x = -x ;
  83:NextionLCD_Communication.h **** ////////	}
  84:NextionLCD_Communication.h **** ////////    else
  85:NextionLCD_Communication.h **** ////////    {
  86:NextionLCD_Communication.h **** ////////        *str++ = '+' ;
  87:NextionLCD_Communication.h **** ////////    }
  88:NextionLCD_Communication.h **** ////////	i = f ;
  89:NextionLCD_Communication.h **** ////////	scale = 2.0 ;
  90:NextionLCD_Communication.h **** ////////	while ( i-- ) scale *= 10.0 ;
  91:NextionLCD_Communication.h **** ////////	x += 1.0 / scale ;
  92:NextionLCD_Communication.h **** ////////	/* count places before decimal & scale the number */
  93:NextionLCD_Communication.h **** ////////	i = 0 ;
  94:NextionLCD_Communication.h **** ////////	scale = 1.0 ;
  95:NextionLCD_Communication.h **** ////////	while ( x >= scale )
  96:NextionLCD_Communication.h **** ////////	{
  97:NextionLCD_Communication.h **** ////////		scale *= 10.0 ;
  98:NextionLCD_Communication.h **** ////////		i++ ;
  99:NextionLCD_Communication.h **** ////////	}
 100:NextionLCD_Communication.h **** ////////	if ( i == 0 ) *str++ = '0';
 101:NextionLCD_Communication.h **** ////////	while ( i-- )
 102:NextionLCD_Communication.h **** ////////	{
 103:NextionLCD_Communication.h **** ////////		/* output digits before decimal */
 104:NextionLCD_Communication.h **** ////////		// returns the value of parameter x rounded down to the nearest integer
 105:NextionLCD_Communication.h **** ////////        // floor find the nearest integer less than or equal to x. 
 106:NextionLCD_Communication.h **** ////////        scale = ifloor(0.5 + scale * 0.1 ) ;
 107:NextionLCD_Communication.h **** ////////		// scale = (int)(0.5 + scale * 0.1) ;
 108:NextionLCD_Communication.h **** ////////		d = ( x / scale ) ;
 109:NextionLCD_Communication.h **** ////////		*str++ = d + '0' ;
 110:NextionLCD_Communication.h **** ////////		x -= (float)d * scale ;
 111:NextionLCD_Communication.h **** ////////	}
 112:NextionLCD_Communication.h **** ////////	if ( f <= 0 )
 113:NextionLCD_Communication.h **** ////////	{
 114:NextionLCD_Communication.h **** ////////		*str = 0;
 115:NextionLCD_Communication.h **** ////////		return ;
 116:NextionLCD_Communication.h **** ////////	}
 117:NextionLCD_Communication.h **** ////////	*str++ = ',' ;  // Komma oder Punkt
 118:NextionLCD_Communication.h **** ////////	while ( f-- )
 119:NextionLCD_Communication.h **** ////////	{
 120:NextionLCD_Communication.h **** ////////		/* output digits after decimal */
 121:NextionLCD_Communication.h **** ////////		x *= 10.0 ;
 122:NextionLCD_Communication.h **** ////////		d = x;
 123:NextionLCD_Communication.h **** ////////		*str++ = d + '0' ;
ARM GAS  C:\Users\LocalAdmin\AppData\Local\Temp\cchhZa3p.s 			page 27


 124:NextionLCD_Communication.h **** ////////		x -= d ;
 125:NextionLCD_Communication.h **** ////////	}
 126:NextionLCD_Communication.h **** ////////	*str = 0;
 127:NextionLCD_Communication.h **** ////////}
 128:NextionLCD_Communication.h **** 
 129:NextionLCD_Communication.h **** ////////////
 130:NextionLCD_Communication.h **** //////////// Schreibt eine 16-Bit-Zahl in die LCD-Anzeige
 131:NextionLCD_Communication.h **** ////////////
 132:NextionLCD_Communication.h **** //////////void myitoa(int a, char *str, unsigned char vkstellen, char nullflag)
 133:NextionLCD_Communication.h **** //////////{ unsigned char idx; 		/*Schleifenzähler*/
 134:NextionLCD_Communication.h **** //////////  unsigned int div = 10000; /*Teilen bei int max 10000*/
 135:NextionLCD_Communication.h **** //////////  unsigned int buff; 		/*Temp*/ 
 136:NextionLCD_Communication.h **** //////////  unsigned char flag = 1; 	/*Flag wird für Nullunterdrückung benötigt*/
 137:NextionLCD_Communication.h **** //////////  unsigned char Ausgabe; 	/*Ausgabe Wert für String*/
 138:NextionLCD_Communication.h **** //////////  flag=0;
 139:NextionLCD_Communication.h **** //////////  for(idx=5;idx>0;idx--) 	/*Schleife 5* für 10000er Stelle*/
 140:NextionLCD_Communication.h **** //////////  { buff = a;
 141:NextionLCD_Communication.h **** //////////    buff = buff / div;
 142:NextionLCD_Communication.h **** //////////    if(flag == 0)
 143:NextionLCD_Communication.h **** //////////    { if(buff >0)
 144:NextionLCD_Communication.h **** //////////      { flag = 1;
 145:NextionLCD_Communication.h **** //////////      }
 146:NextionLCD_Communication.h **** //////////    }
 147:NextionLCD_Communication.h **** //////////    Ausgabe = buff + 48; /*Umrechnung für Ergebnis String*/
 148:NextionLCD_Communication.h **** //////////    // ggf. Leerstellenunterdrückung 
 149:NextionLCD_Communication.h **** //////////	if(flag == 0)
 150:NextionLCD_Communication.h **** //////////    { if(idx<=vkstellen)
 151:NextionLCD_Communication.h **** //////////	  { if(nullflag==0) 
 152:NextionLCD_Communication.h **** //////////	    // { if (idx>1) *str++=254;
 153:NextionLCD_Communication.h **** //////////	    { if (idx>1) *str++=' ';        
 154:NextionLCD_Communication.h **** //////////		  else       *str++=48;  // Sonderfall a=0 !
 155:NextionLCD_Communication.h **** //////////	    }
 156:NextionLCD_Communication.h **** //////////		else         *str++=48; 
 157:NextionLCD_Communication.h **** //////////	  } /*Nullunterdrückung durch Leerzeichen*/
 158:NextionLCD_Communication.h **** //////////    }
 159:NextionLCD_Communication.h **** //////////	else
 160:NextionLCD_Communication.h **** //////////	{ *str++=Ausgabe; }
 161:NextionLCD_Communication.h **** //////////	a = a - (buff * div);
 162:NextionLCD_Communication.h **** //////////    div = div/10;
 163:NextionLCD_Communication.h **** //////////  }
 164:NextionLCD_Communication.h **** //////////  *str++=0;
 165:NextionLCD_Communication.h **** //////////}
 166:NextionLCD_Communication.h **** 
 167:NextionLCD_Communication.h **** //
 168:NextionLCD_Communication.h **** // Abfragen des Slider-Values
 169:NextionLCD_Communication.h **** //
 170:NextionLCD_Communication.h **** int Nextion_GetSliderValue (void)
 171:NextionLCD_Communication.h **** {  
 1056              		.loc 3 171 0
 1057              		.cfi_startproc
 1058              		@ args = 0, pretend = 0, frame = 8
 1059              		@ frame_needed = 1, uses_anonymous_args = 0
 1060 0000 80B5     		push	{r7, lr}
 1061              		.cfi_def_cfa_offset 8
 1062              		.cfi_offset 7, -8
 1063              		.cfi_offset 14, -4
 1064 0002 82B0     		sub	sp, sp, #8
ARM GAS  C:\Users\LocalAdmin\AppData\Local\Temp\cchhZa3p.s 			page 28


 1065              		.cfi_def_cfa_offset 16
 1066 0004 00AF     		add	r7, sp, #0
 1067              		.cfi_def_cfa_register 7
 172:NextionLCD_Communication.h ****     int slider_value = 1;
 1068              		.loc 3 172 0
 1069 0006 0123     		movs	r3, #1
 1070 0008 7B60     		str	r3, [r7, #4]
 173:NextionLCD_Communication.h ****     
 174:NextionLCD_Communication.h ****     // Anfrage an Sliderstellen
 175:NextionLCD_Communication.h ****     UART_TFT_PutString((char*)"get slider.val");
 1071              		.loc 3 175 0
 1072 000a 0848     		ldr	r0, .L51
 1073 000c FFF7FEFF 		bl	UART_TFT_PutString
 176:NextionLCD_Communication.h ****     // Anfrage absenden
 177:NextionLCD_Communication.h ****     UART_TFT_PutChar(0xFF);
 1074              		.loc 3 177 0
 1075 0010 FF20     		movs	r0, #255
 1076 0012 FFF7FEFF 		bl	UART_TFT_PutChar
 178:NextionLCD_Communication.h ****     UART_TFT_PutChar(0xFF);  
 1077              		.loc 3 178 0
 1078 0016 FF20     		movs	r0, #255
 1079 0018 FFF7FEFF 		bl	UART_TFT_PutChar
 179:NextionLCD_Communication.h ****     UART_TFT_PutChar(0xFF);  
 1080              		.loc 3 179 0
 1081 001c FF20     		movs	r0, #255
 1082 001e FFF7FEFF 		bl	UART_TFT_PutChar
 180:NextionLCD_Communication.h ****     
 181:NextionLCD_Communication.h ****     return slider_value;
 1083              		.loc 3 181 0
 1084 0022 7B68     		ldr	r3, [r7, #4]
 182:NextionLCD_Communication.h **** }
 1085              		.loc 3 182 0
 1086 0024 1846     		mov	r0, r3
 1087 0026 0837     		adds	r7, r7, #8
 1088              		.cfi_def_cfa_offset 8
 1089 0028 BD46     		mov	sp, r7
 1090              		.cfi_def_cfa_register 13
 1091              		@ sp needed
 1092 002a 80BD     		pop	{r7, pc}
 1093              	.L52:
 1094              		.align	2
 1095              	.L51:
 1096 002c 2C000000 		.word	.LC1
 1097              		.cfi_endproc
 1098              	.LFE67:
 1099              		.size	Nextion_GetSliderValue, .-Nextion_GetSliderValue
 1100              		.section	.rodata
 1101 003b 00       		.align	2
 1102              	.LC2:
 1103 003c 736C6964 		.ascii	"slider.val=\000"
 1103      65722E76 
 1103      616C3D00 
 1104              		.section	.text.Nextion_SendSliderValue,"ax",%progbits
 1105              		.align	2
 1106              		.global	Nextion_SendSliderValue
 1107              		.thumb
 1108              		.thumb_func
ARM GAS  C:\Users\LocalAdmin\AppData\Local\Temp\cchhZa3p.s 			page 29


 1109              		.type	Nextion_SendSliderValue, %function
 1110              	Nextion_SendSliderValue:
 1111              	.LFB68:
 183:NextionLCD_Communication.h **** 
 184:NextionLCD_Communication.h **** //
 185:NextionLCD_Communication.h **** // Senden des Slider-Values
 186:NextionLCD_Communication.h **** //
 187:NextionLCD_Communication.h **** void Nextion_SendSliderValue (int new_slider_value)
 188:NextionLCD_Communication.h **** {      
 1112              		.loc 3 188 0
 1113              		.cfi_startproc
 1114              		@ args = 0, pretend = 0, frame = 32
 1115              		@ frame_needed = 1, uses_anonymous_args = 0
 1116 0000 80B5     		push	{r7, lr}
 1117              		.cfi_def_cfa_offset 8
 1118              		.cfi_offset 7, -8
 1119              		.cfi_offset 14, -4
 1120 0002 88B0     		sub	sp, sp, #32
 1121              		.cfi_def_cfa_offset 40
 1122 0004 00AF     		add	r7, sp, #0
 1123              		.cfi_def_cfa_register 7
 1124 0006 7860     		str	r0, [r7, #4]
 189:NextionLCD_Communication.h ****     // Hilfsvariable mit 20 Zeichen, in der slider-Wert als char gespeichert wird
 190:NextionLCD_Communication.h ****     char num_str[20];
 191:NextionLCD_Communication.h ****     
 192:NextionLCD_Communication.h ****     // neuen Wert setzen
 193:NextionLCD_Communication.h ****     UART_TFT_PutString((char*)"slider.val=");
 1125              		.loc 3 193 0
 1126 0008 0D48     		ldr	r0, .L54
 1127 000a FFF7FEFF 		bl	UART_TFT_PutString
 194:NextionLCD_Communication.h ****     // Umwandlung Integer -> Array of char ("String") x_str im Decimalsystem
 195:NextionLCD_Communication.h ****     itoa(new_slider_value, num_str, 10);
 1128              		.loc 3 195 0
 1129 000e 07F10C03 		add	r3, r7, #12
 1130 0012 7868     		ldr	r0, [r7, #4]
 1131 0014 1946     		mov	r1, r3
 1132 0016 0A22     		movs	r2, #10
 1133 0018 FFF7FEFF 		bl	itoa
 196:NextionLCD_Communication.h ****     UART_TFT_PutString(num_str);
 1134              		.loc 3 196 0
 1135 001c 07F10C03 		add	r3, r7, #12
 1136 0020 1846     		mov	r0, r3
 1137 0022 FFF7FEFF 		bl	UART_TFT_PutString
 197:NextionLCD_Communication.h ****     // Anfrage absenden
 198:NextionLCD_Communication.h ****     UART_TFT_PutChar(0xFF);
 1138              		.loc 3 198 0
 1139 0026 FF20     		movs	r0, #255
 1140 0028 FFF7FEFF 		bl	UART_TFT_PutChar
 199:NextionLCD_Communication.h ****     UART_TFT_PutChar(0xFF);  
 1141              		.loc 3 199 0
 1142 002c FF20     		movs	r0, #255
 1143 002e FFF7FEFF 		bl	UART_TFT_PutChar
 200:NextionLCD_Communication.h ****     UART_TFT_PutChar(0xFF);  
 1144              		.loc 3 200 0
 1145 0032 FF20     		movs	r0, #255
 1146 0034 FFF7FEFF 		bl	UART_TFT_PutChar
 201:NextionLCD_Communication.h **** }
ARM GAS  C:\Users\LocalAdmin\AppData\Local\Temp\cchhZa3p.s 			page 30


 1147              		.loc 3 201 0
 1148 0038 2037     		adds	r7, r7, #32
 1149              		.cfi_def_cfa_offset 8
 1150 003a BD46     		mov	sp, r7
 1151              		.cfi_def_cfa_register 13
 1152              		@ sp needed
 1153 003c 80BD     		pop	{r7, pc}
 1154              	.L55:
 1155 003e 00BF     		.align	2
 1156              	.L54:
 1157 0040 3C000000 		.word	.LC2
 1158              		.cfi_endproc
 1159              	.LFE68:
 1160              		.size	Nextion_SendSliderValue, .-Nextion_SendSliderValue
 1161              		.section	.rodata
 1162              		.align	2
 1163              	.LC3:
 1164 0048 655F6E6F 		.ascii	"e_no_meas.val=\000"
 1164      5F6D6561 
 1164      732E7661 
 1164      6C3D00
 1165              		.section	.text.Nextion_SendTextNoMeas,"ax",%progbits
 1166              		.align	2
 1167              		.global	Nextion_SendTextNoMeas
 1168              		.thumb
 1169              		.thumb_func
 1170              		.type	Nextion_SendTextNoMeas, %function
 1171              	Nextion_SendTextNoMeas:
 1172              	.LFB69:
 202:NextionLCD_Communication.h **** 
 203:NextionLCD_Communication.h **** //
 204:NextionLCD_Communication.h **** // Senden eines Textes an Textfeld im "Home"-Screen
 205:NextionLCD_Communication.h **** //
 206:NextionLCD_Communication.h **** void Nextion_SendTextNoMeas (int new_value)
 207:NextionLCD_Communication.h **** {      
 1173              		.loc 3 207 0
 1174              		.cfi_startproc
 1175              		@ args = 0, pretend = 0, frame = 8
 1176              		@ frame_needed = 1, uses_anonymous_args = 0
 1177 0000 80B5     		push	{r7, lr}
 1178              		.cfi_def_cfa_offset 8
 1179              		.cfi_offset 7, -8
 1180              		.cfi_offset 14, -4
 1181 0002 82B0     		sub	sp, sp, #8
 1182              		.cfi_def_cfa_offset 16
 1183 0004 00AF     		add	r7, sp, #0
 1184              		.cfi_def_cfa_register 7
 1185 0006 7860     		str	r0, [r7, #4]
 208:NextionLCD_Communication.h ****     // neuen Wert setzen
 209:NextionLCD_Communication.h ****     UART_TFT_PutString((char*)"e_no_meas.val=");
 1186              		.loc 3 209 0
 1187 0008 0948     		ldr	r0, .L57
 1188 000a FFF7FEFF 		bl	UART_TFT_PutString
 210:NextionLCD_Communication.h ****     UART_TFT_PutString((char*)new_value);
 1189              		.loc 3 210 0
 1190 000e 7B68     		ldr	r3, [r7, #4]
 1191 0010 1846     		mov	r0, r3
ARM GAS  C:\Users\LocalAdmin\AppData\Local\Temp\cchhZa3p.s 			page 31


 1192 0012 FFF7FEFF 		bl	UART_TFT_PutString
 211:NextionLCD_Communication.h ****     // Anfrage absenden
 212:NextionLCD_Communication.h ****     UART_TFT_PutChar(0xFF);
 1193              		.loc 3 212 0
 1194 0016 FF20     		movs	r0, #255
 1195 0018 FFF7FEFF 		bl	UART_TFT_PutChar
 213:NextionLCD_Communication.h ****     UART_TFT_PutChar(0xFF);  
 1196              		.loc 3 213 0
 1197 001c FF20     		movs	r0, #255
 1198 001e FFF7FEFF 		bl	UART_TFT_PutChar
 214:NextionLCD_Communication.h ****     UART_TFT_PutChar(0xFF);  
 1199              		.loc 3 214 0
 1200 0022 FF20     		movs	r0, #255
 1201 0024 FFF7FEFF 		bl	UART_TFT_PutChar
 215:NextionLCD_Communication.h **** }
 1202              		.loc 3 215 0
 1203 0028 0837     		adds	r7, r7, #8
 1204              		.cfi_def_cfa_offset 8
 1205 002a BD46     		mov	sp, r7
 1206              		.cfi_def_cfa_register 13
 1207              		@ sp needed
 1208 002c 80BD     		pop	{r7, pc}
 1209              	.L58:
 1210 002e 00BF     		.align	2
 1211              	.L57:
 1212 0030 48000000 		.word	.LC3
 1213              		.cfi_endproc
 1214              	.LFE69:
 1215              		.size	Nextion_SendTextNoMeas, .-Nextion_SendTextNoMeas
 1216              		.section	.text.Nextion_Send_String,"ax",%progbits
 1217              		.align	2
 1218              		.global	Nextion_Send_String
 1219              		.thumb
 1220              		.thumb_func
 1221              		.type	Nextion_Send_String, %function
 1222              	Nextion_Send_String:
 1223              	.LFB70:
 216:NextionLCD_Communication.h **** 
 217:NextionLCD_Communication.h **** 
 218:NextionLCD_Communication.h **** void Nextion_Send_String(unsigned char *sfloat)
 219:NextionLCD_Communication.h **** {
 1224              		.loc 3 219 0
 1225              		.cfi_startproc
 1226              		@ args = 0, pretend = 0, frame = 8
 1227              		@ frame_needed = 1, uses_anonymous_args = 0
 1228 0000 80B5     		push	{r7, lr}
 1229              		.cfi_def_cfa_offset 8
 1230              		.cfi_offset 7, -8
 1231              		.cfi_offset 14, -4
 1232 0002 82B0     		sub	sp, sp, #8
 1233              		.cfi_def_cfa_offset 16
 1234 0004 00AF     		add	r7, sp, #0
 1235              		.cfi_def_cfa_register 7
 1236 0006 7860     		str	r0, [r7, #4]
 220:NextionLCD_Communication.h ****         UART_TFT_PutString((char*)sfloat);
 1237              		.loc 3 220 0
 1238 0008 7868     		ldr	r0, [r7, #4]
ARM GAS  C:\Users\LocalAdmin\AppData\Local\Temp\cchhZa3p.s 			page 32


 1239 000a FFF7FEFF 		bl	UART_TFT_PutString
 221:NextionLCD_Communication.h ****         UART_TFT_PutChar(0xFF);
 1240              		.loc 3 221 0
 1241 000e FF20     		movs	r0, #255
 1242 0010 FFF7FEFF 		bl	UART_TFT_PutChar
 222:NextionLCD_Communication.h ****         UART_TFT_PutChar(0xFF);  
 1243              		.loc 3 222 0
 1244 0014 FF20     		movs	r0, #255
 1245 0016 FFF7FEFF 		bl	UART_TFT_PutChar
 223:NextionLCD_Communication.h ****         UART_TFT_PutChar(0xFF);          
 1246              		.loc 3 223 0
 1247 001a FF20     		movs	r0, #255
 1248 001c FFF7FEFF 		bl	UART_TFT_PutChar
 224:NextionLCD_Communication.h **** }
 1249              		.loc 3 224 0
 1250 0020 0837     		adds	r7, r7, #8
 1251              		.cfi_def_cfa_offset 8
 1252 0022 BD46     		mov	sp, r7
 1253              		.cfi_def_cfa_register 13
 1254              		@ sp needed
 1255 0024 80BD     		pop	{r7, pc}
 1256              		.cfi_endproc
 1257              	.LFE70:
 1258              		.size	Nextion_Send_String, .-Nextion_Send_String
 1259 0026 00BF     		.section	.rodata
 1260 0057 00       		.align	2
 1261              	.LC4:
 1262 0058 76697320 		.ascii	"vis b_show,1\000"
 1262      625F7368 
 1262      6F772C31 
 1262      00
 1263 0065 000000   		.align	2
 1264              	.LC5:
 1265 0068 76697320 		.ascii	"vis b_show,0\000"
 1265      625F7368 
 1265      6F772C30 
 1265      00
 1266              		.section	.text.Nextion_Toggle_b_show,"ax",%progbits
 1267              		.align	2
 1268              		.global	Nextion_Toggle_b_show
 1269              		.thumb
 1270              		.thumb_func
 1271              		.type	Nextion_Toggle_b_show, %function
 1272              	Nextion_Toggle_b_show:
 1273              	.LFB71:
 225:NextionLCD_Communication.h **** 
 226:NextionLCD_Communication.h **** //
 227:NextionLCD_Communication.h **** // Toggle (=Kippschalter) für Show-Button, wenn die Messung läuft
 228:NextionLCD_Communication.h **** //
 229:NextionLCD_Communication.h **** void Nextion_Toggle_b_show (void)
 230:NextionLCD_Communication.h **** {
 1274              		.loc 3 230 0
 1275              		.cfi_startproc
 1276              		@ args = 0, pretend = 0, frame = 8
 1277              		@ frame_needed = 1, uses_anonymous_args = 0
 1278 0000 80B5     		push	{r7, lr}
 1279              		.cfi_def_cfa_offset 8
ARM GAS  C:\Users\LocalAdmin\AppData\Local\Temp\cchhZa3p.s 			page 33


 1280              		.cfi_offset 7, -8
 1281              		.cfi_offset 14, -4
 1282 0002 82B0     		sub	sp, sp, #8
 1283              		.cfi_def_cfa_offset 16
 1284 0004 00AF     		add	r7, sp, #0
 1285              		.cfi_def_cfa_register 7
 231:NextionLCD_Communication.h ****     int bool_measurement_running = 1;    
 1286              		.loc 3 231 0
 1287 0006 0123     		movs	r3, #1
 1288 0008 7B60     		str	r3, [r7, #4]
 232:NextionLCD_Communication.h ****     // Variablenwert von "b_meas_running" auslesen
 233:NextionLCD_Communication.h ****     
 234:NextionLCD_Communication.h ****     // wenn Messung läuft
 235:NextionLCD_Communication.h ****     if (bool_measurement_running == 1)
 1289              		.loc 3 235 0
 1290 000a 7B68     		ldr	r3, [r7, #4]
 1291 000c 012B     		cmp	r3, #1
 1292 000e 0CD1     		bne	.L61
 236:NextionLCD_Communication.h ****     {
 237:NextionLCD_Communication.h ****         // Show Button anzeigen
 238:NextionLCD_Communication.h ****         UART_TFT_PutString((char*)"vis b_show,1");
 1293              		.loc 3 238 0
 1294 0010 0D48     		ldr	r0, .L63
 1295 0012 FFF7FEFF 		bl	UART_TFT_PutString
 239:NextionLCD_Communication.h ****         // Anfrage absenden
 240:NextionLCD_Communication.h ****         UART_TFT_PutChar(0xFF);
 1296              		.loc 3 240 0
 1297 0016 FF20     		movs	r0, #255
 1298 0018 FFF7FEFF 		bl	UART_TFT_PutChar
 241:NextionLCD_Communication.h ****         UART_TFT_PutChar(0xFF);  
 1299              		.loc 3 241 0
 1300 001c FF20     		movs	r0, #255
 1301 001e FFF7FEFF 		bl	UART_TFT_PutChar
 242:NextionLCD_Communication.h ****         UART_TFT_PutChar(0xFF);           
 1302              		.loc 3 242 0
 1303 0022 FF20     		movs	r0, #255
 1304 0024 FFF7FEFF 		bl	UART_TFT_PutChar
 1305 0028 0BE0     		b	.L60
 1306              	.L61:
 243:NextionLCD_Communication.h ****     }
 244:NextionLCD_Communication.h ****     // wenn keine Messung läuft
 245:NextionLCD_Communication.h ****     else
 246:NextionLCD_Communication.h ****     {
 247:NextionLCD_Communication.h ****         // Show Button unsichtbar machen
 248:NextionLCD_Communication.h ****         UART_TFT_PutString((char*)"vis b_show,0");
 1307              		.loc 3 248 0
 1308 002a 0848     		ldr	r0, .L63+4
 1309 002c FFF7FEFF 		bl	UART_TFT_PutString
 249:NextionLCD_Communication.h ****         // Anfrage absenden
 250:NextionLCD_Communication.h ****         UART_TFT_PutChar(0xFF);
 1310              		.loc 3 250 0
 1311 0030 FF20     		movs	r0, #255
 1312 0032 FFF7FEFF 		bl	UART_TFT_PutChar
 251:NextionLCD_Communication.h ****         UART_TFT_PutChar(0xFF);  
 1313              		.loc 3 251 0
 1314 0036 FF20     		movs	r0, #255
 1315 0038 FFF7FEFF 		bl	UART_TFT_PutChar
ARM GAS  C:\Users\LocalAdmin\AppData\Local\Temp\cchhZa3p.s 			page 34


 252:NextionLCD_Communication.h ****         UART_TFT_PutChar(0xFF);
 1316              		.loc 3 252 0
 1317 003c FF20     		movs	r0, #255
 1318 003e FFF7FEFF 		bl	UART_TFT_PutChar
 1319              	.L60:
 253:NextionLCD_Communication.h ****     }
 254:NextionLCD_Communication.h ****     
 255:NextionLCD_Communication.h **** }
 1320              		.loc 3 255 0
 1321 0042 0837     		adds	r7, r7, #8
 1322              		.cfi_def_cfa_offset 8
 1323 0044 BD46     		mov	sp, r7
 1324              		.cfi_def_cfa_register 13
 1325              		@ sp needed
 1326 0046 80BD     		pop	{r7, pc}
 1327              	.L64:
 1328              		.align	2
 1329              	.L63:
 1330 0048 58000000 		.word	.LC4
 1331 004c 68000000 		.word	.LC5
 1332              		.cfi_endproc
 1333              	.LFE71:
 1334              		.size	Nextion_Toggle_b_show, .-Nextion_Toggle_b_show
 1335              		.section	.rodata
 1336 0075 000000   		.align	2
 1337              	.LC6:
 1338 0078 2E747874 		.ascii	".txt=\"\000"
 1338      3D2200
 1339 007f 00       		.align	2
 1340              	.LC7:
 1341 0080 2200     		.ascii	"\"\000"
 1342              		.section	.text.Nextion_Send_Text_to_Textbox,"ax",%progbits
 1343              		.align	2
 1344              		.global	Nextion_Send_Text_to_Textbox
 1345              		.thumb
 1346              		.thumb_func
 1347              		.type	Nextion_Send_Text_to_Textbox, %function
 1348              	Nextion_Send_Text_to_Textbox:
 1349              	.LFB72:
 256:NextionLCD_Communication.h **** 
 257:NextionLCD_Communication.h **** //
 258:NextionLCD_Communication.h **** // Text an Textbox senden
 259:NextionLCD_Communication.h **** //
 260:NextionLCD_Communication.h **** void Nextion_Send_Text_to_Textbox(unsigned char *textbox,unsigned char *sfloat)
 261:NextionLCD_Communication.h **** {
 1350              		.loc 3 261 0
 1351              		.cfi_startproc
 1352              		@ args = 0, pretend = 0, frame = 8
 1353              		@ frame_needed = 1, uses_anonymous_args = 0
 1354 0000 80B5     		push	{r7, lr}
 1355              		.cfi_def_cfa_offset 8
 1356              		.cfi_offset 7, -8
 1357              		.cfi_offset 14, -4
 1358 0002 82B0     		sub	sp, sp, #8
 1359              		.cfi_def_cfa_offset 16
 1360 0004 00AF     		add	r7, sp, #0
 1361              		.cfi_def_cfa_register 7
ARM GAS  C:\Users\LocalAdmin\AppData\Local\Temp\cchhZa3p.s 			page 35


 1362 0006 7860     		str	r0, [r7, #4]
 1363 0008 3960     		str	r1, [r7]
 262:NextionLCD_Communication.h ****     UART_TFT_PutString((char*)textbox);
 1364              		.loc 3 262 0
 1365 000a 7868     		ldr	r0, [r7, #4]
 1366 000c FFF7FEFF 		bl	UART_TFT_PutString
 263:NextionLCD_Communication.h ****     UART_TFT_PutString(".txt=\""); 
 1367              		.loc 3 263 0
 1368 0010 0A48     		ldr	r0, .L66
 1369 0012 FFF7FEFF 		bl	UART_TFT_PutString
 264:NextionLCD_Communication.h ****     UART_TFT_PutString((char*)sfloat);
 1370              		.loc 3 264 0
 1371 0016 3868     		ldr	r0, [r7]
 1372 0018 FFF7FEFF 		bl	UART_TFT_PutString
 265:NextionLCD_Communication.h ****     UART_TFT_PutString((char*)"\"");
 1373              		.loc 3 265 0
 1374 001c 0848     		ldr	r0, .L66+4
 1375 001e FFF7FEFF 		bl	UART_TFT_PutString
 266:NextionLCD_Communication.h ****     UART_TFT_PutChar(0xFF);
 1376              		.loc 3 266 0
 1377 0022 FF20     		movs	r0, #255
 1378 0024 FFF7FEFF 		bl	UART_TFT_PutChar
 267:NextionLCD_Communication.h ****     UART_TFT_PutChar(0xFF);  
 1379              		.loc 3 267 0
 1380 0028 FF20     		movs	r0, #255
 1381 002a FFF7FEFF 		bl	UART_TFT_PutChar
 268:NextionLCD_Communication.h ****     UART_TFT_PutChar(0xFF);          
 1382              		.loc 3 268 0
 1383 002e FF20     		movs	r0, #255
 1384 0030 FFF7FEFF 		bl	UART_TFT_PutChar
 269:NextionLCD_Communication.h **** }
 1385              		.loc 3 269 0
 1386 0034 0837     		adds	r7, r7, #8
 1387              		.cfi_def_cfa_offset 8
 1388 0036 BD46     		mov	sp, r7
 1389              		.cfi_def_cfa_register 13
 1390              		@ sp needed
 1391 0038 80BD     		pop	{r7, pc}
 1392              	.L67:
 1393 003a 00BF     		.align	2
 1394              	.L66:
 1395 003c 78000000 		.word	.LC6
 1396 0040 80000000 		.word	.LC7
 1397              		.cfi_endproc
 1398              	.LFE72:
 1399              		.size	Nextion_Send_Text_to_Textbox, .-Nextion_Send_Text_to_Textbox
 1400              		.section	.rodata
 1401 0082 0000     		.align	2
 1402              	.LC8:
 1403 0084 696E745F 		.ascii	"int_now.val=\000"
 1403      6E6F772E 
 1403      76616C3D 
 1403      00
 1404              		.section	.text.Nextion_Send_Value_To_Valuebox,"ax",%progbits
 1405              		.align	2
 1406              		.global	Nextion_Send_Value_To_Valuebox
 1407              		.thumb
ARM GAS  C:\Users\LocalAdmin\AppData\Local\Temp\cchhZa3p.s 			page 36


 1408              		.thumb_func
 1409              		.type	Nextion_Send_Value_To_Valuebox, %function
 1410              	Nextion_Send_Value_To_Valuebox:
 1411              	.LFB73:
 270:NextionLCD_Communication.h **** 
 271:NextionLCD_Communication.h **** //
 272:NextionLCD_Communication.h **** // Senden eines Textes an Textfeld im "Home"-Screen
 273:NextionLCD_Communication.h **** //
 274:NextionLCD_Communication.h **** void Nextion_Send_Value_To_Valuebox (char *valuebox, int new_value)
 275:NextionLCD_Communication.h **** {      
 1412              		.loc 3 275 0
 1413              		.cfi_startproc
 1414              		@ args = 0, pretend = 0, frame = 32
 1415              		@ frame_needed = 1, uses_anonymous_args = 0
 1416 0000 80B5     		push	{r7, lr}
 1417              		.cfi_def_cfa_offset 8
 1418              		.cfi_offset 7, -8
 1419              		.cfi_offset 14, -4
 1420 0002 88B0     		sub	sp, sp, #32
 1421              		.cfi_def_cfa_offset 40
 1422 0004 00AF     		add	r7, sp, #0
 1423              		.cfi_def_cfa_register 7
 1424 0006 7860     		str	r0, [r7, #4]
 1425 0008 3960     		str	r1, [r7]
 276:NextionLCD_Communication.h ****     // Hilfsvariable mit 20 Zeichen, in der slider-Wert als char gespeichert wird
 277:NextionLCD_Communication.h ****     char num_str[20];
 278:NextionLCD_Communication.h ****     
 279:NextionLCD_Communication.h ****     // neuen Wert setzen
 280:NextionLCD_Communication.h ****     UART_TFT_PutString((char*)valuebox);
 1426              		.loc 3 280 0
 1427 000a 7868     		ldr	r0, [r7, #4]
 1428 000c FFF7FEFF 		bl	UART_TFT_PutString
 281:NextionLCD_Communication.h ****     UART_TFT_PutString((char*)"int_now.val=");
 1429              		.loc 3 281 0
 1430 0010 0C48     		ldr	r0, .L69
 1431 0012 FFF7FEFF 		bl	UART_TFT_PutString
 282:NextionLCD_Communication.h ****     // Umwandlung Integer -> Array of char ("String") x_str im Decimalsystem
 283:NextionLCD_Communication.h ****     itoa(new_value, num_str, 10);
 1432              		.loc 3 283 0
 1433 0016 07F10C03 		add	r3, r7, #12
 1434 001a 3868     		ldr	r0, [r7]
 1435 001c 1946     		mov	r1, r3
 1436 001e 0A22     		movs	r2, #10
 1437 0020 FFF7FEFF 		bl	itoa
 284:NextionLCD_Communication.h ****     UART_TFT_PutString((char*)new_value);
 1438              		.loc 3 284 0
 1439 0024 3B68     		ldr	r3, [r7]
 1440 0026 1846     		mov	r0, r3
 1441 0028 FFF7FEFF 		bl	UART_TFT_PutString
 285:NextionLCD_Communication.h ****     // Anfrage absenden
 286:NextionLCD_Communication.h ****     UART_TFT_PutChar(0xFF);
 1442              		.loc 3 286 0
 1443 002c FF20     		movs	r0, #255
 1444 002e FFF7FEFF 		bl	UART_TFT_PutChar
 287:NextionLCD_Communication.h ****     UART_TFT_PutChar(0xFF);  
 1445              		.loc 3 287 0
 1446 0032 FF20     		movs	r0, #255
ARM GAS  C:\Users\LocalAdmin\AppData\Local\Temp\cchhZa3p.s 			page 37


 1447 0034 FFF7FEFF 		bl	UART_TFT_PutChar
 288:NextionLCD_Communication.h ****     UART_TFT_PutChar(0xFF);  
 1448              		.loc 3 288 0
 1449 0038 FF20     		movs	r0, #255
 1450 003a FFF7FEFF 		bl	UART_TFT_PutChar
 289:NextionLCD_Communication.h **** }
 1451              		.loc 3 289 0
 1452 003e 2037     		adds	r7, r7, #32
 1453              		.cfi_def_cfa_offset 8
 1454 0040 BD46     		mov	sp, r7
 1455              		.cfi_def_cfa_register 13
 1456              		@ sp needed
 1457 0042 80BD     		pop	{r7, pc}
 1458              	.L70:
 1459              		.align	2
 1460              	.L69:
 1461 0044 84000000 		.word	.LC8
 1462              		.cfi_endproc
 1463              	.LFE73:
 1464              		.size	Nextion_Send_Value_To_Valuebox, .-Nextion_Send_Value_To_Valuebox
 1465              		.section	.rodata
 1466 0091 000000   		.align	2
 1467              	.LC9:
 1468 0094 705F6D61 		.ascii	"p_main.val=\000"
 1468      696E2E76 
 1468      616C3D00 
 1469              		.section	.text.Nextion_SendProgressbarValue,"ax",%progbits
 1470              		.align	2
 1471              		.global	Nextion_SendProgressbarValue
 1472              		.thumb
 1473              		.thumb_func
 1474              		.type	Nextion_SendProgressbarValue, %function
 1475              	Nextion_SendProgressbarValue:
 1476              	.LFB74:
 290:NextionLCD_Communication.h **** 
 291:NextionLCD_Communication.h **** ////////void Nextion_Send_Value_to_Textbox(unsigned char *textbox,float value)
 292:NextionLCD_Communication.h **** ////////{
 293:NextionLCD_Communication.h **** ////////    char sfloat[10];
 294:NextionLCD_Communication.h **** ////////    // Float anzeigewert to ASCII
 295:NextionLCD_Communication.h **** ////////    ftoa(value,3,sfloat);    
 296:NextionLCD_Communication.h **** ////////    UART_TFT_PutString((char*)textbox);
 297:NextionLCD_Communication.h **** ////////    UART_TFT_PutString(".txt=\""); 
 298:NextionLCD_Communication.h **** ////////    UART_TFT_PutString((char*)sfloat);
 299:NextionLCD_Communication.h **** ////////    UART_TFT_PutString((char*)"\"");
 300:NextionLCD_Communication.h **** ////////    UART_TFT_PutChar(0xFF);
 301:NextionLCD_Communication.h **** ////////    UART_TFT_PutChar(0xFF);  
 302:NextionLCD_Communication.h **** ////////    UART_TFT_PutChar(0xFF);          
 303:NextionLCD_Communication.h **** ////////}
 304:NextionLCD_Communication.h **** 
 305:NextionLCD_Communication.h **** //
 306:NextionLCD_Communication.h **** // Stellwert des Progessbar setzen; Werte von 0 bis 100
 307:NextionLCD_Communication.h **** //
 308:NextionLCD_Communication.h **** void Nextion_SendProgressbarValue(unsigned int value)
 309:NextionLCD_Communication.h **** {
 1477              		.loc 3 309 0
 1478              		.cfi_startproc
 1479              		@ args = 0, pretend = 0, frame = 32
ARM GAS  C:\Users\LocalAdmin\AppData\Local\Temp\cchhZa3p.s 			page 38


 1480              		@ frame_needed = 1, uses_anonymous_args = 0
 1481 0000 80B5     		push	{r7, lr}
 1482              		.cfi_def_cfa_offset 8
 1483              		.cfi_offset 7, -8
 1484              		.cfi_offset 14, -4
 1485 0002 88B0     		sub	sp, sp, #32
 1486              		.cfi_def_cfa_offset 40
 1487 0004 00AF     		add	r7, sp, #0
 1488              		.cfi_def_cfa_register 7
 1489 0006 7860     		str	r0, [r7, #4]
 310:NextionLCD_Communication.h ****     // Hilfsvariable mit 20 Zeichen, in der slider-Wert als char gespeichert wird
 311:NextionLCD_Communication.h ****     char num_str[20];
 312:NextionLCD_Communication.h **** 
 313:NextionLCD_Communication.h ****     UART_TFT_PutString((char*)"p_main.val=");
 1490              		.loc 3 313 0
 1491 0008 0D48     		ldr	r0, .L72
 1492 000a FFF7FEFF 		bl	UART_TFT_PutString
 314:NextionLCD_Communication.h ****     // Umwandlung Integer -> Array of char ("String") x_str im Decimalsystem
 315:NextionLCD_Communication.h ****     itoa(value, num_str, 10);
 1493              		.loc 3 315 0
 1494 000e 7A68     		ldr	r2, [r7, #4]
 1495 0010 07F10C03 		add	r3, r7, #12
 1496 0014 1046     		mov	r0, r2
 1497 0016 1946     		mov	r1, r3
 1498 0018 0A22     		movs	r2, #10
 1499 001a FFF7FEFF 		bl	itoa
 316:NextionLCD_Communication.h ****     UART_TFT_PutString(num_str);
 1500              		.loc 3 316 0
 1501 001e 07F10C03 		add	r3, r7, #12
 1502 0022 1846     		mov	r0, r3
 1503 0024 FFF7FEFF 		bl	UART_TFT_PutString
 317:NextionLCD_Communication.h ****     UART_TFT_PutChar(0xFF);
 1504              		.loc 3 317 0
 1505 0028 FF20     		movs	r0, #255
 1506 002a FFF7FEFF 		bl	UART_TFT_PutChar
 318:NextionLCD_Communication.h ****     UART_TFT_PutChar(0xFF);  
 1507              		.loc 3 318 0
 1508 002e FF20     		movs	r0, #255
 1509 0030 FFF7FEFF 		bl	UART_TFT_PutChar
 319:NextionLCD_Communication.h ****     UART_TFT_PutChar(0xFF);          
 1510              		.loc 3 319 0
 1511 0034 FF20     		movs	r0, #255
 1512 0036 FFF7FEFF 		bl	UART_TFT_PutChar
 320:NextionLCD_Communication.h **** }
 1513              		.loc 3 320 0
 1514 003a 2037     		adds	r7, r7, #32
 1515              		.cfi_def_cfa_offset 8
 1516 003c BD46     		mov	sp, r7
 1517              		.cfi_def_cfa_register 13
 1518              		@ sp needed
 1519 003e 80BD     		pop	{r7, pc}
 1520              	.L73:
 1521              		.align	2
 1522              	.L72:
 1523 0040 94000000 		.word	.LC9
 1524              		.cfi_endproc
 1525              	.LFE74:
ARM GAS  C:\Users\LocalAdmin\AppData\Local\Temp\cchhZa3p.s 			page 39


 1526              		.size	Nextion_SendProgressbarValue, .-Nextion_SendProgressbarValue
 1527              		.section	.rodata
 1528              		.align	2
 1529              	.LC10:
 1530 00a0 76697320 		.ascii	"vis b_save,0\000"
 1530      625F7361 
 1530      76652C30 
 1530      00
 1531              		.section	.text.Nextion_HideButtonSaveToUSB,"ax",%progbits
 1532              		.align	2
 1533              		.global	Nextion_HideButtonSaveToUSB
 1534              		.thumb
 1535              		.thumb_func
 1536              		.type	Nextion_HideButtonSaveToUSB, %function
 1537              	Nextion_HideButtonSaveToUSB:
 1538              	.LFB75:
 321:NextionLCD_Communication.h **** 
 322:NextionLCD_Communication.h **** //
 323:NextionLCD_Communication.h **** // Button "Save to USB" auf Export Seite unishctbar machen
 324:NextionLCD_Communication.h **** //
 325:NextionLCD_Communication.h **** void Nextion_HideButtonSaveToUSB(void)
 326:NextionLCD_Communication.h **** {
 1539              		.loc 3 326 0
 1540              		.cfi_startproc
 1541              		@ args = 0, pretend = 0, frame = 0
 1542              		@ frame_needed = 1, uses_anonymous_args = 0
 1543 0000 80B5     		push	{r7, lr}
 1544              		.cfi_def_cfa_offset 8
 1545              		.cfi_offset 7, -8
 1546              		.cfi_offset 14, -4
 1547 0002 00AF     		add	r7, sp, #0
 1548              		.cfi_def_cfa_register 7
 327:NextionLCD_Communication.h ****     UART_TFT_PutString((char*)"vis b_save,0");
 1549              		.loc 3 327 0
 1550 0004 0648     		ldr	r0, .L75
 1551 0006 FFF7FEFF 		bl	UART_TFT_PutString
 328:NextionLCD_Communication.h ****     // Ende der Eingabe markieren
 329:NextionLCD_Communication.h ****     UART_TFT_PutChar(0xff);
 1552              		.loc 3 329 0
 1553 000a FF20     		movs	r0, #255
 1554 000c FFF7FEFF 		bl	UART_TFT_PutChar
 330:NextionLCD_Communication.h ****     UART_TFT_PutChar(0xff);
 1555              		.loc 3 330 0
 1556 0010 FF20     		movs	r0, #255
 1557 0012 FFF7FEFF 		bl	UART_TFT_PutChar
 331:NextionLCD_Communication.h ****     UART_TFT_PutChar(0xff);         
 1558              		.loc 3 331 0
 1559 0016 FF20     		movs	r0, #255
 1560 0018 FFF7FEFF 		bl	UART_TFT_PutChar
 332:NextionLCD_Communication.h **** }
 1561              		.loc 3 332 0
 1562 001c 80BD     		pop	{r7, pc}
 1563              	.L76:
 1564 001e 00BF     		.align	2
 1565              	.L75:
 1566 0020 A0000000 		.word	.LC10
 1567              		.cfi_endproc
ARM GAS  C:\Users\LocalAdmin\AppData\Local\Temp\cchhZa3p.s 			page 40


 1568              	.LFE75:
 1569              		.size	Nextion_HideButtonSaveToUSB, .-Nextion_HideButtonSaveToUSB
 1570              		.section	.rodata
 1571 00ad 000000   		.align	2
 1572              	.LC11:
 1573 00b0 736C6964 		.ascii	"slider_saved.val=\000"
 1573      65725F73 
 1573      61766564 
 1573      2E76616C 
 1573      3D00
 1574              		.section	.text.Nextion_SendSaveProgressbarValue,"ax",%progbits
 1575              		.align	2
 1576              		.global	Nextion_SendSaveProgressbarValue
 1577              		.thumb
 1578              		.thumb_func
 1579              		.type	Nextion_SendSaveProgressbarValue, %function
 1580              	Nextion_SendSaveProgressbarValue:
 1581              	.LFB76:
 333:NextionLCD_Communication.h **** 
 334:NextionLCD_Communication.h **** //
 335:NextionLCD_Communication.h **** // Stellwert des Progessbar setzen; Werte von 0 bis 100
 336:NextionLCD_Communication.h **** //
 337:NextionLCD_Communication.h **** void Nextion_SendSaveProgressbarValue(unsigned int value)
 338:NextionLCD_Communication.h **** {
 1582              		.loc 3 338 0
 1583              		.cfi_startproc
 1584              		@ args = 0, pretend = 0, frame = 32
 1585              		@ frame_needed = 1, uses_anonymous_args = 0
 1586 0000 80B5     		push	{r7, lr}
 1587              		.cfi_def_cfa_offset 8
 1588              		.cfi_offset 7, -8
 1589              		.cfi_offset 14, -4
 1590 0002 88B0     		sub	sp, sp, #32
 1591              		.cfi_def_cfa_offset 40
 1592 0004 00AF     		add	r7, sp, #0
 1593              		.cfi_def_cfa_register 7
 1594 0006 7860     		str	r0, [r7, #4]
 339:NextionLCD_Communication.h ****     // Hilfsvariable mit 20 Zeichen, in der slider-Wert als char gespeichert wird
 340:NextionLCD_Communication.h ****     char num_str[20];
 341:NextionLCD_Communication.h **** 
 342:NextionLCD_Communication.h ****     UART_TFT_PutString((char*)"slider_saved.val=");
 1595              		.loc 3 342 0
 1596 0008 0D48     		ldr	r0, .L78
 1597 000a FFF7FEFF 		bl	UART_TFT_PutString
 343:NextionLCD_Communication.h ****     // Umwandlung Integer -> Array of char ("String") x_str im Decimalsystem
 344:NextionLCD_Communication.h ****     itoa(value, num_str, 10);
 1598              		.loc 3 344 0
 1599 000e 7A68     		ldr	r2, [r7, #4]
 1600 0010 07F10C03 		add	r3, r7, #12
 1601 0014 1046     		mov	r0, r2
 1602 0016 1946     		mov	r1, r3
 1603 0018 0A22     		movs	r2, #10
 1604 001a FFF7FEFF 		bl	itoa
 345:NextionLCD_Communication.h ****     UART_TFT_PutString(num_str);
 1605              		.loc 3 345 0
 1606 001e 07F10C03 		add	r3, r7, #12
 1607 0022 1846     		mov	r0, r3
ARM GAS  C:\Users\LocalAdmin\AppData\Local\Temp\cchhZa3p.s 			page 41


 1608 0024 FFF7FEFF 		bl	UART_TFT_PutString
 346:NextionLCD_Communication.h ****     UART_TFT_PutChar(0xFF);
 1609              		.loc 3 346 0
 1610 0028 FF20     		movs	r0, #255
 1611 002a FFF7FEFF 		bl	UART_TFT_PutChar
 347:NextionLCD_Communication.h ****     UART_TFT_PutChar(0xFF);  
 1612              		.loc 3 347 0
 1613 002e FF20     		movs	r0, #255
 1614 0030 FFF7FEFF 		bl	UART_TFT_PutChar
 348:NextionLCD_Communication.h ****     UART_TFT_PutChar(0xFF);          
 1615              		.loc 3 348 0
 1616 0034 FF20     		movs	r0, #255
 1617 0036 FFF7FEFF 		bl	UART_TFT_PutChar
 349:NextionLCD_Communication.h **** }
 1618              		.loc 3 349 0
 1619 003a 2037     		adds	r7, r7, #32
 1620              		.cfi_def_cfa_offset 8
 1621 003c BD46     		mov	sp, r7
 1622              		.cfi_def_cfa_register 13
 1623              		@ sp needed
 1624 003e 80BD     		pop	{r7, pc}
 1625              	.L79:
 1626              		.align	2
 1627              	.L78:
 1628 0040 B0000000 		.word	.LC11
 1629              		.cfi_endproc
 1630              	.LFE76:
 1631              		.size	Nextion_SendSaveProgressbarValue, .-Nextion_SendSaveProgressbarValue
 1632              		.section	.text.Nextion_NumberOfMeasurementsFromSlider,"ax",%progbits
 1633              		.align	2
 1634              		.global	Nextion_NumberOfMeasurementsFromSlider
 1635              		.thumb
 1636              		.thumb_func
 1637              		.type	Nextion_NumberOfMeasurementsFromSlider, %function
 1638              	Nextion_NumberOfMeasurementsFromSlider:
 1639              	.LFB77:
 350:NextionLCD_Communication.h **** 
 351:NextionLCD_Communication.h **** //
 352:NextionLCD_Communication.h **** // Stellwert des Sliders auslesen und aauf 10 gerundet an die Value Box übergeben;
 353:NextionLCD_Communication.h **** // diese Zahl ist dann die Anzahl der Messungen
 354:NextionLCD_Communication.h **** //
 355:NextionLCD_Communication.h **** int Nextion_NumberOfMeasurementsFromSlider (void)
 356:NextionLCD_Communication.h **** {        
 1640              		.loc 3 356 0
 1641              		.cfi_startproc
 1642              		@ args = 0, pretend = 0, frame = 8
 1643              		@ frame_needed = 1, uses_anonymous_args = 0
 1644 0000 80B5     		push	{r7, lr}
 1645              		.cfi_def_cfa_offset 8
 1646              		.cfi_offset 7, -8
 1647              		.cfi_offset 14, -4
 1648 0002 82B0     		sub	sp, sp, #8
 1649              		.cfi_def_cfa_offset 16
 1650 0004 00AF     		add	r7, sp, #0
 1651              		.cfi_def_cfa_register 7
 357:NextionLCD_Communication.h ****     int slider_value = (RX_Buffer[1]+RX_Buffer[2]*256)*10;      // zehnfachen Wert des Sliders als 
 1652              		.loc 3 357 0
ARM GAS  C:\Users\LocalAdmin\AppData\Local\Temp\cchhZa3p.s 			page 42


 1653 0006 154B     		ldr	r3, .L82
 1654 0008 5B78     		ldrb	r3, [r3, #1]
 1655 000a DBB2     		uxtb	r3, r3
 1656 000c 1A46     		mov	r2, r3
 1657 000e 134B     		ldr	r3, .L82
 1658 0010 9B78     		ldrb	r3, [r3, #2]
 1659 0012 DBB2     		uxtb	r3, r3
 1660 0014 1B02     		lsls	r3, r3, #8
 1661 0016 1A44     		add	r2, r2, r3
 1662 0018 1346     		mov	r3, r2
 1663 001a 9B00     		lsls	r3, r3, #2
 1664 001c 1344     		add	r3, r3, r2
 1665 001e 5B00     		lsls	r3, r3, #1
 1666 0020 7B60     		str	r3, [r7, #4]
 358:NextionLCD_Communication.h ****     
 359:NextionLCD_Communication.h ****     UART_TFT_PutString((char*)"e_no_meas.val=");
 1667              		.loc 3 359 0
 1668 0022 0F48     		ldr	r0, .L82+4
 1669 0024 FFF7FEFF 		bl	UART_TFT_PutString
 360:NextionLCD_Communication.h ****     // Umwandlung Integer -> Array of char ("String") x_str im Decimalsystem
 361:NextionLCD_Communication.h ****     itoa(slider_value, num_str, 10);
 1670              		.loc 3 361 0
 1671 0028 7868     		ldr	r0, [r7, #4]
 1672 002a 0E49     		ldr	r1, .L82+8
 1673 002c 0A22     		movs	r2, #10
 1674 002e FFF7FEFF 		bl	itoa
 362:NextionLCD_Communication.h ****     UART_TFT_PutString(num_str);
 1675              		.loc 3 362 0
 1676 0032 0C48     		ldr	r0, .L82+8
 1677 0034 FFF7FEFF 		bl	UART_TFT_PutString
 363:NextionLCD_Communication.h ****     UART_TFT_PutChar(0xFF);
 1678              		.loc 3 363 0
 1679 0038 FF20     		movs	r0, #255
 1680 003a FFF7FEFF 		bl	UART_TFT_PutChar
 364:NextionLCD_Communication.h ****     UART_TFT_PutChar(0xFF);
 1681              		.loc 3 364 0
 1682 003e FF20     		movs	r0, #255
 1683 0040 FFF7FEFF 		bl	UART_TFT_PutChar
 365:NextionLCD_Communication.h ****     UART_TFT_PutChar(0xFF);  
 1684              		.loc 3 365 0
 1685 0044 FF20     		movs	r0, #255
 1686 0046 FFF7FEFF 		bl	UART_TFT_PutChar
 366:NextionLCD_Communication.h ****     UART_TFT_PutChar(0xFF);   
 1687              		.loc 3 366 0
 1688 004a FF20     		movs	r0, #255
 1689 004c FFF7FEFF 		bl	UART_TFT_PutChar
 367:NextionLCD_Communication.h ****     
 368:NextionLCD_Communication.h ****     return slider_value;
 1690              		.loc 3 368 0
 1691 0050 7B68     		ldr	r3, [r7, #4]
 369:NextionLCD_Communication.h **** }
 1692              		.loc 3 369 0
 1693 0052 1846     		mov	r0, r3
 1694 0054 0837     		adds	r7, r7, #8
 1695              		.cfi_def_cfa_offset 8
 1696 0056 BD46     		mov	sp, r7
 1697              		.cfi_def_cfa_register 13
ARM GAS  C:\Users\LocalAdmin\AppData\Local\Temp\cchhZa3p.s 			page 43


 1698              		@ sp needed
 1699 0058 80BD     		pop	{r7, pc}
 1700              	.L83:
 1701 005a 00BF     		.align	2
 1702              	.L82:
 1703 005c 00000000 		.word	RX_Buffer
 1704 0060 48000000 		.word	.LC3
 1705 0064 00000000 		.word	num_str
 1706              		.cfi_endproc
 1707              	.LFE77:
 1708              		.size	Nextion_NumberOfMeasurementsFromSlider, .-Nextion_NumberOfMeasurementsFromSlider
 1709              		.section	.text.Nextion_ToggleShowButton,"ax",%progbits
 1710              		.align	2
 1711              		.global	Nextion_ToggleShowButton
 1712              		.thumb
 1713              		.thumb_func
 1714              		.type	Nextion_ToggleShowButton, %function
 1715              	Nextion_ToggleShowButton:
 1716              	.LFB78:
 370:NextionLCD_Communication.h **** 
 371:NextionLCD_Communication.h **** //
 372:NextionLCD_Communication.h **** // Show-Button passend anzeigen
 373:NextionLCD_Communication.h **** //
 374:NextionLCD_Communication.h **** void Nextion_ToggleShowButton (void)
 375:NextionLCD_Communication.h **** {
 1717              		.loc 3 375 0
 1718              		.cfi_startproc
 1719              		@ args = 0, pretend = 0, frame = 0
 1720              		@ frame_needed = 1, uses_anonymous_args = 0
 1721 0000 80B5     		push	{r7, lr}
 1722              		.cfi_def_cfa_offset 8
 1723              		.cfi_offset 7, -8
 1724              		.cfi_offset 14, -4
 1725 0002 00AF     		add	r7, sp, #0
 1726              		.cfi_def_cfa_register 7
 376:NextionLCD_Communication.h ****     // Wenn die Messung läuft
 377:NextionLCD_Communication.h ****     if (Measurement_running == 1)
 1727              		.loc 3 377 0
 1728 0004 0F4B     		ldr	r3, .L87
 1729 0006 1B78     		ldrb	r3, [r3]
 1730 0008 DBB2     		uxtb	r3, r3
 1731 000a 012B     		cmp	r3, #1
 1732 000c 0CD1     		bne	.L85
 378:NextionLCD_Communication.h ****     {
 379:NextionLCD_Communication.h ****         // Show Button sichtbar machen
 380:NextionLCD_Communication.h ****         UART_TFT_PutString("vis b_show,1");
 1733              		.loc 3 380 0
 1734 000e 0E48     		ldr	r0, .L87+4
 1735 0010 FFF7FEFF 		bl	UART_TFT_PutString
 381:NextionLCD_Communication.h ****         UART_TFT_PutChar(0xff);
 1736              		.loc 3 381 0
 1737 0014 FF20     		movs	r0, #255
 1738 0016 FFF7FEFF 		bl	UART_TFT_PutChar
 382:NextionLCD_Communication.h ****         UART_TFT_PutChar(0xff);
 1739              		.loc 3 382 0
 1740 001a FF20     		movs	r0, #255
 1741 001c FFF7FEFF 		bl	UART_TFT_PutChar
ARM GAS  C:\Users\LocalAdmin\AppData\Local\Temp\cchhZa3p.s 			page 44


 383:NextionLCD_Communication.h ****         UART_TFT_PutChar(0xff); 
 1742              		.loc 3 383 0
 1743 0020 FF20     		movs	r0, #255
 1744 0022 FFF7FEFF 		bl	UART_TFT_PutChar
 1745 0026 0BE0     		b	.L84
 1746              	.L85:
 384:NextionLCD_Communication.h ****     }
 385:NextionLCD_Communication.h ****     // Wenn die Messung noch nicht gestartet wurde
 386:NextionLCD_Communication.h ****     else
 387:NextionLCD_Communication.h ****     {
 388:NextionLCD_Communication.h ****         // Show Button unsichtbar machen
 389:NextionLCD_Communication.h ****         UART_TFT_PutString("vis b_show,0");
 1747              		.loc 3 389 0
 1748 0028 0848     		ldr	r0, .L87+8
 1749 002a FFF7FEFF 		bl	UART_TFT_PutString
 390:NextionLCD_Communication.h ****         UART_TFT_PutChar(0xff);
 1750              		.loc 3 390 0
 1751 002e FF20     		movs	r0, #255
 1752 0030 FFF7FEFF 		bl	UART_TFT_PutChar
 391:NextionLCD_Communication.h ****         UART_TFT_PutChar(0xff);
 1753              		.loc 3 391 0
 1754 0034 FF20     		movs	r0, #255
 1755 0036 FFF7FEFF 		bl	UART_TFT_PutChar
 392:NextionLCD_Communication.h ****         UART_TFT_PutChar(0xff);
 1756              		.loc 3 392 0
 1757 003a FF20     		movs	r0, #255
 1758 003c FFF7FEFF 		bl	UART_TFT_PutChar
 1759              	.L84:
 393:NextionLCD_Communication.h ****     }   
 394:NextionLCD_Communication.h **** }
 1760              		.loc 3 394 0
 1761 0040 80BD     		pop	{r7, pc}
 1762              	.L88:
 1763 0042 00BF     		.align	2
 1764              	.L87:
 1765 0044 00000000 		.word	Measurement_running
 1766 0048 58000000 		.word	.LC4
 1767 004c 68000000 		.word	.LC5
 1768              		.cfi_endproc
 1769              	.LFE78:
 1770              		.size	Nextion_ToggleShowButton, .-Nextion_ToggleShowButton
 1771              		.global	__aeabi_f2d
 1772              		.global	__aeabi_d2f
 1773              		.global	__aeabi_i2f
 1774              		.global	__aeabi_fdiv
 1775              		.global	__aeabi_fsub
 1776              		.global	__aeabi_fmul
 1777              		.global	__aeabi_fadd
 1778              		.section	.rodata
 1779 00c2 0000     		.align	2
 1780              	.LC12:
 1781 00c4 63697273 		.ascii	"cirs \000"
 1781      2000
 1782              		.global	__aeabi_f2iz
 1783 00ca 0000     		.align	2
 1784              	.LC13:
 1785 00cc 52454400 		.ascii	"RED\000"
ARM GAS  C:\Users\LocalAdmin\AppData\Local\Temp\cchhZa3p.s 			page 45


 1786              		.section	.text.PointToLiveDataAxes,"ax",%progbits
 1787              		.align	2
 1788              		.global	PointToLiveDataAxes
 1789              		.thumb
 1790              		.thumb_func
 1791              		.type	PointToLiveDataAxes, %function
 1792              	PointToLiveDataAxes:
 1793              	.LFB79:
 1794              		.file 4 "NextionLCD_PlotLiveData.h"
   1:NextionLCD_PlotLiveData.h **** /* ========================================
   2:NextionLCD_PlotLiveData.h ****  *
   3:NextionLCD_PlotLiveData.h ****  * Copyright YOUR COMPANY, THE YEAR
   4:NextionLCD_PlotLiveData.h ****  * All Rights Reserved
   5:NextionLCD_PlotLiveData.h ****  * UNPUBLISHED, LICENSED SOFTWARE.
   6:NextionLCD_PlotLiveData.h ****  *
   7:NextionLCD_PlotLiveData.h ****  * CONFIDENTIAL AND PROPRIETARY INFORMATION
   8:NextionLCD_PlotLiveData.h ****  * WHICH IS THE PROPERTY OF your company.
   9:NextionLCD_PlotLiveData.h ****  *
  10:NextionLCD_PlotLiveData.h ****  * ========================================
  11:NextionLCD_PlotLiveData.h **** */
  12:NextionLCD_PlotLiveData.h **** 
  13:NextionLCD_PlotLiveData.h **** #include <project.h>
  14:NextionLCD_PlotLiveData.h **** #include <math.h>
  15:NextionLCD_PlotLiveData.h **** #include <stdlib.h>
  16:NextionLCD_PlotLiveData.h **** 
  17:NextionLCD_PlotLiveData.h **** //
  18:NextionLCD_PlotLiveData.h **** // Achtung!!! #ifndef #define #endif-Konstruktion zur Vermeidung von doppelten Definitione
  19:NextionLCD_PlotLiveData.h **** //
  20:NextionLCD_PlotLiveData.h **** #ifndef NextionLCD_Communication                // Funktionen für Kommunikation mit dem LCD-Displa
  21:NextionLCD_PlotLiveData.h **** #define NextionLCD_Communication                
  22:NextionLCD_PlotLiveData.h **** #endif 
  23:NextionLCD_PlotLiveData.h **** 
  24:NextionLCD_PlotLiveData.h **** //#ifndef Measurement_Setup
  25:NextionLCD_PlotLiveData.h **** //#define Measurement_Setup
  26:NextionLCD_PlotLiveData.h **** //#endif
  27:NextionLCD_PlotLiveData.h **** 
  28:NextionLCD_PlotLiveData.h **** #include "NextionLCD_PlotParameters.h"
  29:NextionLCD_PlotLiveData.h **** 
  30:NextionLCD_PlotLiveData.h **** //
  31:NextionLCD_PlotLiveData.h **** // Messpunkt in DataLive einzeichnen
  32:NextionLCD_PlotLiveData.h **** //
  33:NextionLCD_PlotLiveData.h **** void PointToLiveDataAxes (float x, float y)
  34:NextionLCD_PlotLiveData.h **** {
 1795              		.loc 4 34 0
 1796              		.cfi_startproc
 1797              		@ args = 0, pretend = 0, frame = 32
 1798              		@ frame_needed = 1, uses_anonymous_args = 0
 1799 0000 B0B5     		push	{r4, r5, r7, lr}
 1800              		.cfi_def_cfa_offset 16
 1801              		.cfi_offset 4, -16
 1802              		.cfi_offset 5, -12
 1803              		.cfi_offset 7, -8
 1804              		.cfi_offset 14, -4
 1805 0002 88B0     		sub	sp, sp, #32
 1806              		.cfi_def_cfa_offset 48
 1807 0004 00AF     		add	r7, sp, #0
 1808              		.cfi_def_cfa_register 7
ARM GAS  C:\Users\LocalAdmin\AppData\Local\Temp\cchhZa3p.s 			page 46


 1809 0006 7860     		str	r0, [r7, #4]	@ float
 1810 0008 3960     		str	r1, [r7]	@ float
  35:NextionLCD_PlotLiveData.h ****     // Hilfsvariable mit 20 Zeichen
  36:NextionLCD_PlotLiveData.h ****     char num_str[20];
  37:NextionLCD_PlotLiveData.h ****     
  38:NextionLCD_PlotLiveData.h ****     // Umskalieren des Wertes, sodass er in Zeichenfläche liegt
  39:NextionLCD_PlotLiveData.h ****     //x = Nextion_plot_LiveData_x+Nextion_plot_LiveData_w*((x-1.0)/(1.0*NumberOfMeasurements-1.0));
  40:NextionLCD_PlotLiveData.h ****     x = Nextion_plot_LiveData_x+Nextion_plot_LiveData_w*((x-1.0)/(1.0*NumberOfMeasurements-1.0));  
 1811              		.loc 4 40 0
 1812 000a 7868     		ldr	r0, [r7, #4]	@ float
 1813 000c FFF7FEFF 		bl	__aeabi_f2d
 1814 0010 0246     		mov	r2, r0
 1815 0012 0B46     		mov	r3, r1
 1816 0014 1046     		mov	r0, r2
 1817 0016 1946     		mov	r1, r3
 1818 0018 4FF00002 		mov	r2, #0
 1819 001c 4E4B     		ldr	r3, .L90+8
 1820 001e FFF7FEFF 		bl	__aeabi_dsub
 1821 0022 0246     		mov	r2, r0
 1822 0024 0B46     		mov	r3, r1
 1823 0026 1446     		mov	r4, r2
 1824 0028 1D46     		mov	r5, r3
 1825 002a 4C4B     		ldr	r3, .L90+12
 1826 002c 1B68     		ldr	r3, [r3]
 1827 002e 1846     		mov	r0, r3
 1828 0030 FFF7FEFF 		bl	__aeabi_i2d
 1829 0034 0246     		mov	r2, r0
 1830 0036 0B46     		mov	r3, r1
 1831 0038 1046     		mov	r0, r2
 1832 003a 1946     		mov	r1, r3
 1833 003c 4FF00002 		mov	r2, #0
 1834 0040 454B     		ldr	r3, .L90+8
 1835 0042 FFF7FEFF 		bl	__aeabi_dsub
 1836 0046 0246     		mov	r2, r0
 1837 0048 0B46     		mov	r3, r1
 1838 004a 2046     		mov	r0, r4
 1839 004c 2946     		mov	r1, r5
 1840 004e FFF7FEFF 		bl	__aeabi_ddiv
 1841 0052 0246     		mov	r2, r0
 1842 0054 0B46     		mov	r3, r1
 1843 0056 1046     		mov	r0, r2
 1844 0058 1946     		mov	r1, r3
 1845 005a 3DA3     		adr	r3, .L90
 1846 005c D3E90023 		ldrd	r2, [r3]
 1847 0060 FFF7FEFF 		bl	__aeabi_dmul
 1848 0064 0246     		mov	r2, r0
 1849 0066 0B46     		mov	r3, r1
 1850 0068 1046     		mov	r0, r2
 1851 006a 1946     		mov	r1, r3
 1852 006c 4FF00002 		mov	r2, #0
 1853 0070 3B4B     		ldr	r3, .L90+16
 1854 0072 FFF7FEFF 		bl	__aeabi_dadd
 1855 0076 0246     		mov	r2, r0
 1856 0078 0B46     		mov	r3, r1
 1857 007a 1046     		mov	r0, r2
 1858 007c 1946     		mov	r1, r3
 1859 007e FFF7FEFF 		bl	__aeabi_d2f
ARM GAS  C:\Users\LocalAdmin\AppData\Local\Temp\cchhZa3p.s 			page 47


 1860 0082 0346     		mov	r3, r0
 1861 0084 7B60     		str	r3, [r7, #4]	@ float
  41:NextionLCD_PlotLiveData.h ****     y = Nextion_plot_LiveData_y+Nextion_plot_LiveData_h*(1-y/Lifetime_max);                        
 1862              		.loc 4 41 0
 1863 0086 374B     		ldr	r3, .L90+20
 1864 0088 1B68     		ldr	r3, [r3]
 1865 008a 1846     		mov	r0, r3
 1866 008c FFF7FEFF 		bl	__aeabi_i2f
 1867 0090 0346     		mov	r3, r0
 1868 0092 3868     		ldr	r0, [r7]	@ float
 1869 0094 1946     		mov	r1, r3
 1870 0096 FFF7FEFF 		bl	__aeabi_fdiv
 1871 009a 0346     		mov	r3, r0
 1872 009c 4FF07E50 		mov	r0, #1065353216
 1873 00a0 1946     		mov	r1, r3
 1874 00a2 FFF7FEFF 		bl	__aeabi_fsub
 1875 00a6 0346     		mov	r3, r0
 1876 00a8 1846     		mov	r0, r3
 1877 00aa 2F49     		ldr	r1, .L90+24
 1878 00ac FFF7FEFF 		bl	__aeabi_fmul
 1879 00b0 0346     		mov	r3, r0
 1880 00b2 1846     		mov	r0, r3
 1881 00b4 2D49     		ldr	r1, .L90+28
 1882 00b6 FFF7FEFF 		bl	__aeabi_fadd
 1883 00ba 0346     		mov	r3, r0
 1884 00bc 3B60     		str	r3, [r7]	@ float
  42:NextionLCD_PlotLiveData.h ****     
  43:NextionLCD_PlotLiveData.h ****     // Zielstring "cir x-Koordinate,y-Koordinate,Radius,Farbe"
  44:NextionLCD_PlotLiveData.h ****     UART_TFT_PutString("cirs ");
 1885              		.loc 4 44 0
 1886 00be 2C48     		ldr	r0, .L90+32
 1887 00c0 FFF7FEFF 		bl	UART_TFT_PutString
  45:NextionLCD_PlotLiveData.h ****     // Umwandlung Integer -> Array of char ("String") x_str im Decimalsystem
  46:NextionLCD_PlotLiveData.h ****     itoa(x, num_str, 10);
 1888              		.loc 4 46 0
 1889 00c4 7868     		ldr	r0, [r7, #4]	@ float
 1890 00c6 FFF7FEFF 		bl	__aeabi_f2iz
 1891 00ca 0246     		mov	r2, r0
 1892 00cc 07F10C03 		add	r3, r7, #12
 1893 00d0 1046     		mov	r0, r2
 1894 00d2 1946     		mov	r1, r3
 1895 00d4 0A22     		movs	r2, #10
 1896 00d6 FFF7FEFF 		bl	itoa
  47:NextionLCD_PlotLiveData.h ****     UART_TFT_PutString(num_str);
 1897              		.loc 4 47 0
 1898 00da 07F10C03 		add	r3, r7, #12
 1899 00de 1846     		mov	r0, r3
 1900 00e0 FFF7FEFF 		bl	UART_TFT_PutString
  48:NextionLCD_PlotLiveData.h ****     UART_TFT_PutChar(',');
 1901              		.loc 4 48 0
 1902 00e4 2C20     		movs	r0, #44
 1903 00e6 FFF7FEFF 		bl	UART_TFT_PutChar
  49:NextionLCD_PlotLiveData.h ****     // Umwandlung Integer -> Array of char ("String") x_str im Decimalsystem
  50:NextionLCD_PlotLiveData.h ****     itoa((int)y, num_str, 10);
 1904              		.loc 4 50 0
 1905 00ea 3868     		ldr	r0, [r7]	@ float
 1906 00ec FFF7FEFF 		bl	__aeabi_f2iz
ARM GAS  C:\Users\LocalAdmin\AppData\Local\Temp\cchhZa3p.s 			page 48


 1907 00f0 0246     		mov	r2, r0
 1908 00f2 07F10C03 		add	r3, r7, #12
 1909 00f6 1046     		mov	r0, r2
 1910 00f8 1946     		mov	r1, r3
 1911 00fa 0A22     		movs	r2, #10
 1912 00fc FFF7FEFF 		bl	itoa
  51:NextionLCD_PlotLiveData.h ****     UART_TFT_PutString(num_str);
 1913              		.loc 4 51 0
 1914 0100 07F10C03 		add	r3, r7, #12
 1915 0104 1846     		mov	r0, r3
 1916 0106 FFF7FEFF 		bl	UART_TFT_PutString
  52:NextionLCD_PlotLiveData.h ****     UART_TFT_PutChar(',');
 1917              		.loc 4 52 0
 1918 010a 2C20     		movs	r0, #44
 1919 010c FFF7FEFF 		bl	UART_TFT_PutChar
  53:NextionLCD_PlotLiveData.h ****     // Mark Size übertragen
  54:NextionLCD_PlotLiveData.h ****     itoa(Settings_MarkSize, num_str, 10);
 1920              		.loc 4 54 0
 1921 0110 07F10C03 		add	r3, r7, #12
 1922 0114 0320     		movs	r0, #3
 1923 0116 1946     		mov	r1, r3
 1924 0118 0A22     		movs	r2, #10
 1925 011a FFF7FEFF 		bl	itoa
  55:NextionLCD_PlotLiveData.h ****     UART_TFT_PutString(num_str);
 1926              		.loc 4 55 0
 1927 011e 07F10C03 		add	r3, r7, #12
 1928 0122 1846     		mov	r0, r3
 1929 0124 FFF7FEFF 		bl	UART_TFT_PutString
  56:NextionLCD_PlotLiveData.h ****     UART_TFT_PutChar(',');
 1930              		.loc 4 56 0
 1931 0128 2C20     		movs	r0, #44
 1932 012a FFF7FEFF 		bl	UART_TFT_PutChar
  57:NextionLCD_PlotLiveData.h ****     // Farbe übertragen
  58:NextionLCD_PlotLiveData.h ****     UART_TFT_PutString("RED");
 1933              		.loc 4 58 0
 1934 012e 1148     		ldr	r0, .L90+36
 1935 0130 FFF7FEFF 		bl	UART_TFT_PutString
  59:NextionLCD_PlotLiveData.h ****     // Ende der Eingabe markieren
  60:NextionLCD_PlotLiveData.h ****     UART_TFT_PutChar(0xff);
 1936              		.loc 4 60 0
 1937 0134 FF20     		movs	r0, #255
 1938 0136 FFF7FEFF 		bl	UART_TFT_PutChar
  61:NextionLCD_PlotLiveData.h ****     UART_TFT_PutChar(0xff);
 1939              		.loc 4 61 0
 1940 013a FF20     		movs	r0, #255
 1941 013c FFF7FEFF 		bl	UART_TFT_PutChar
  62:NextionLCD_PlotLiveData.h ****     UART_TFT_PutChar(0xff);     
 1942              		.loc 4 62 0
 1943 0140 FF20     		movs	r0, #255
 1944 0142 FFF7FEFF 		bl	UART_TFT_PutChar
  63:NextionLCD_PlotLiveData.h **** }
 1945              		.loc 4 63 0
 1946 0146 2037     		adds	r7, r7, #32
 1947              		.cfi_def_cfa_offset 16
 1948 0148 BD46     		mov	sp, r7
 1949              		.cfi_def_cfa_register 13
 1950              		@ sp needed
ARM GAS  C:\Users\LocalAdmin\AppData\Local\Temp\cchhZa3p.s 			page 49


 1951 014a B0BD     		pop	{r4, r5, r7, pc}
 1952              	.L91:
 1953 014c AFF30080 		.align	3
 1954              	.L90:
 1955 0150 00000000 		.word	0
 1956 0154 00C07740 		.word	1081589760
 1957 0158 0000F03F 		.word	1072693248
 1958 015c 00000000 		.word	NumberOfMeasurements
 1959 0160 00805140 		.word	1079083008
 1960 0164 00000000 		.word	Lifetime_max
 1961 0168 00003443 		.word	1127481344
 1962 016c 00007042 		.word	1114636288
 1963 0170 C4000000 		.word	.LC12
 1964 0174 CC000000 		.word	.LC13
 1965              		.cfi_endproc
 1966              	.LFE79:
 1967              		.size	PointToLiveDataAxes, .-PointToLiveDataAxes
 1968              		.section	.rodata
 1969              		.align	2
 1970              	.LC14:
 1971 00d0 47524545 		.ascii	"GREEN\000"
 1971      4E00
 1972              		.section	.text.PointToScaledDataAxes,"ax",%progbits
 1973              		.align	2
 1974              		.global	PointToScaledDataAxes
 1975              		.thumb
 1976              		.thumb_func
 1977              		.type	PointToScaledDataAxes, %function
 1978              	PointToScaledDataAxes:
 1979              	.LFB80:
 1980              		.file 5 "NextionLCD_PlotScaledData.h"
   1:NextionLCD_PlotScaledData.h **** /* ========================================
   2:NextionLCD_PlotScaledData.h ****  *
   3:NextionLCD_PlotScaledData.h ****  * Copyright YOUR COMPANY, THE YEAR
   4:NextionLCD_PlotScaledData.h ****  * All Rights Reserved
   5:NextionLCD_PlotScaledData.h ****  * UNPUBLISHED, LICENSED SOFTWARE.
   6:NextionLCD_PlotScaledData.h ****  *
   7:NextionLCD_PlotScaledData.h ****  * CONFIDENTIAL AND PROPRIETARY INFORMATION
   8:NextionLCD_PlotScaledData.h ****  * WHICH IS THE PROPERTY OF your company.
   9:NextionLCD_PlotScaledData.h ****  *
  10:NextionLCD_PlotScaledData.h ****  * ========================================
  11:NextionLCD_PlotScaledData.h **** */
  12:NextionLCD_PlotScaledData.h **** #include <project.h>
  13:NextionLCD_PlotScaledData.h **** #include <math.h>
  14:NextionLCD_PlotScaledData.h **** #include <stdlib.h>
  15:NextionLCD_PlotScaledData.h **** 
  16:NextionLCD_PlotScaledData.h **** //
  17:NextionLCD_PlotScaledData.h **** // Achtung!!! #ifndef #define #endif-Konstruktion zur Vermeidung von doppelten Definitione
  18:NextionLCD_PlotScaledData.h **** //
  19:NextionLCD_PlotScaledData.h **** #ifndef NextionLCD_Communication                // Funktionen für Kommunikation mit dem LCD-Displa
  20:NextionLCD_PlotScaledData.h **** #define NextionLCD_Communication                
  21:NextionLCD_PlotScaledData.h **** #endif 
  22:NextionLCD_PlotScaledData.h **** 
  23:NextionLCD_PlotScaledData.h **** //#ifndef Measurement_Setup
  24:NextionLCD_PlotScaledData.h **** //#define Measurement_Setup
  25:NextionLCD_PlotScaledData.h **** //#endif
  26:NextionLCD_PlotScaledData.h **** 
ARM GAS  C:\Users\LocalAdmin\AppData\Local\Temp\cchhZa3p.s 			page 50


  27:NextionLCD_PlotScaledData.h **** #include "NextionLCD_PlotParameters.h"
  28:NextionLCD_PlotScaledData.h **** 
  29:NextionLCD_PlotScaledData.h **** //
  30:NextionLCD_PlotScaledData.h **** // Messpunkt in DataLive einzeichnen
  31:NextionLCD_PlotScaledData.h **** //
  32:NextionLCD_PlotScaledData.h **** void PointToScaledDataAxes (float x, float y)
  33:NextionLCD_PlotScaledData.h **** {
 1981              		.loc 5 33 0
 1982              		.cfi_startproc
 1983              		@ args = 0, pretend = 0, frame = 32
 1984              		@ frame_needed = 1, uses_anonymous_args = 0
 1985 0000 80B5     		push	{r7, lr}
 1986              		.cfi_def_cfa_offset 8
 1987              		.cfi_offset 7, -8
 1988              		.cfi_offset 14, -4
 1989 0002 88B0     		sub	sp, sp, #32
 1990              		.cfi_def_cfa_offset 40
 1991 0004 00AF     		add	r7, sp, #0
 1992              		.cfi_def_cfa_register 7
 1993 0006 7860     		str	r0, [r7, #4]	@ float
 1994 0008 3960     		str	r1, [r7]	@ float
  34:NextionLCD_PlotScaledData.h ****     // Hilfsvariable mit 20 Zeichen
  35:NextionLCD_PlotScaledData.h ****     char num_str[20];
  36:NextionLCD_PlotScaledData.h ****     
  37:NextionLCD_PlotScaledData.h ****     // Umskalieren des Wertes, sodass er in Zeichenfläche liegt
  38:NextionLCD_PlotScaledData.h ****     x = Nextion_plot_ScaledData_x+Nextion_plot_ScaledData_w*(x/(1.0*NumberOfBins));         // Plot
 1995              		.loc 5 38 0
 1996 000a 7868     		ldr	r0, [r7, #4]	@ float
 1997 000c FFF7FEFF 		bl	__aeabi_f2d
 1998 0010 0246     		mov	r2, r0
 1999 0012 0B46     		mov	r3, r1
 2000 0014 1046     		mov	r0, r2
 2001 0016 1946     		mov	r1, r3
 2002 0018 4FF00002 		mov	r2, #0
 2003 001c 4A4B     		ldr	r3, .L93+8
 2004 001e FFF7FEFF 		bl	__aeabi_ddiv
 2005 0022 0246     		mov	r2, r0
 2006 0024 0B46     		mov	r3, r1
 2007 0026 1046     		mov	r0, r2
 2008 0028 1946     		mov	r1, r3
 2009 002a 45A3     		adr	r3, .L93
 2010 002c D3E90023 		ldrd	r2, [r3]
 2011 0030 FFF7FEFF 		bl	__aeabi_dmul
 2012 0034 0246     		mov	r2, r0
 2013 0036 0B46     		mov	r3, r1
 2014 0038 1046     		mov	r0, r2
 2015 003a 1946     		mov	r1, r3
 2016 003c 4FF00002 		mov	r2, #0
 2017 0040 424B     		ldr	r3, .L93+12
 2018 0042 FFF7FEFF 		bl	__aeabi_dadd
 2019 0046 0246     		mov	r2, r0
 2020 0048 0B46     		mov	r3, r1
 2021 004a 1046     		mov	r0, r2
 2022 004c 1946     		mov	r1, r3
 2023 004e FFF7FEFF 		bl	__aeabi_d2f
 2024 0052 0346     		mov	r3, r0
 2025 0054 7B60     		str	r3, [r7, #4]	@ float
ARM GAS  C:\Users\LocalAdmin\AppData\Local\Temp\cchhZa3p.s 			page 51


  39:NextionLCD_PlotScaledData.h ****     y = Nextion_plot_ScaledData_y+Nextion_plot_ScaledData_h*(1-(1.0*y/100));                // Plot
 2026              		.loc 5 39 0
 2027 0056 3868     		ldr	r0, [r7]	@ float
 2028 0058 FFF7FEFF 		bl	__aeabi_f2d
 2029 005c 0246     		mov	r2, r0
 2030 005e 0B46     		mov	r3, r1
 2031 0060 1046     		mov	r0, r2
 2032 0062 1946     		mov	r1, r3
 2033 0064 4FF00002 		mov	r2, #0
 2034 0068 394B     		ldr	r3, .L93+16
 2035 006a FFF7FEFF 		bl	__aeabi_ddiv
 2036 006e 0246     		mov	r2, r0
 2037 0070 0B46     		mov	r3, r1
 2038 0072 4FF00000 		mov	r0, #0
 2039 0076 3749     		ldr	r1, .L93+20
 2040 0078 FFF7FEFF 		bl	__aeabi_dsub
 2041 007c 0246     		mov	r2, r0
 2042 007e 0B46     		mov	r3, r1
 2043 0080 1046     		mov	r0, r2
 2044 0082 1946     		mov	r1, r3
 2045 0084 4FF00002 		mov	r2, #0
 2046 0088 334B     		ldr	r3, .L93+24
 2047 008a FFF7FEFF 		bl	__aeabi_dmul
 2048 008e 0246     		mov	r2, r0
 2049 0090 0B46     		mov	r3, r1
 2050 0092 1046     		mov	r0, r2
 2051 0094 1946     		mov	r1, r3
 2052 0096 4FF00002 		mov	r2, #0
 2053 009a 304B     		ldr	r3, .L93+28
 2054 009c FFF7FEFF 		bl	__aeabi_dadd
 2055 00a0 0246     		mov	r2, r0
 2056 00a2 0B46     		mov	r3, r1
 2057 00a4 1046     		mov	r0, r2
 2058 00a6 1946     		mov	r1, r3
 2059 00a8 FFF7FEFF 		bl	__aeabi_d2f
 2060 00ac 0346     		mov	r3, r0
 2061 00ae 3B60     		str	r3, [r7]	@ float
  40:NextionLCD_PlotScaledData.h ****     
  41:NextionLCD_PlotScaledData.h ****     // Zielstring "cir x-Koordinate,y-Koordinate,Radius,Farbe"
  42:NextionLCD_PlotScaledData.h ****     UART_TFT_PutString("cirs ");
 2062              		.loc 5 42 0
 2063 00b0 2B48     		ldr	r0, .L93+32
 2064 00b2 FFF7FEFF 		bl	UART_TFT_PutString
  43:NextionLCD_PlotScaledData.h ****     // Umwandlung Integer -> Array of char ("String") x_str im Decimalsystem
  44:NextionLCD_PlotScaledData.h ****     itoa(x, num_str, 10);
 2065              		.loc 5 44 0
 2066 00b6 7868     		ldr	r0, [r7, #4]	@ float
 2067 00b8 FFF7FEFF 		bl	__aeabi_f2iz
 2068 00bc 0246     		mov	r2, r0
 2069 00be 07F10C03 		add	r3, r7, #12
 2070 00c2 1046     		mov	r0, r2
 2071 00c4 1946     		mov	r1, r3
 2072 00c6 0A22     		movs	r2, #10
 2073 00c8 FFF7FEFF 		bl	itoa
  45:NextionLCD_PlotScaledData.h ****     UART_TFT_PutString(num_str);
 2074              		.loc 5 45 0
 2075 00cc 07F10C03 		add	r3, r7, #12
ARM GAS  C:\Users\LocalAdmin\AppData\Local\Temp\cchhZa3p.s 			page 52


 2076 00d0 1846     		mov	r0, r3
 2077 00d2 FFF7FEFF 		bl	UART_TFT_PutString
  46:NextionLCD_PlotScaledData.h ****     UART_TFT_PutChar(',');
 2078              		.loc 5 46 0
 2079 00d6 2C20     		movs	r0, #44
 2080 00d8 FFF7FEFF 		bl	UART_TFT_PutChar
  47:NextionLCD_PlotScaledData.h ****     // Umwandlung Integer -> Array of char ("String") x_str im Decimalsystem
  48:NextionLCD_PlotScaledData.h ****     itoa((int)y, num_str, 10);
 2081              		.loc 5 48 0
 2082 00dc 3868     		ldr	r0, [r7]	@ float
 2083 00de FFF7FEFF 		bl	__aeabi_f2iz
 2084 00e2 0246     		mov	r2, r0
 2085 00e4 07F10C03 		add	r3, r7, #12
 2086 00e8 1046     		mov	r0, r2
 2087 00ea 1946     		mov	r1, r3
 2088 00ec 0A22     		movs	r2, #10
 2089 00ee FFF7FEFF 		bl	itoa
  49:NextionLCD_PlotScaledData.h ****     UART_TFT_PutString(num_str);
 2090              		.loc 5 49 0
 2091 00f2 07F10C03 		add	r3, r7, #12
 2092 00f6 1846     		mov	r0, r3
 2093 00f8 FFF7FEFF 		bl	UART_TFT_PutString
  50:NextionLCD_PlotScaledData.h ****     UART_TFT_PutChar(',');
 2094              		.loc 5 50 0
 2095 00fc 2C20     		movs	r0, #44
 2096 00fe FFF7FEFF 		bl	UART_TFT_PutChar
  51:NextionLCD_PlotScaledData.h ****     // Mark Size übertragen
  52:NextionLCD_PlotScaledData.h ****     itoa(Settings_MarkSize, num_str, 10);
 2097              		.loc 5 52 0
 2098 0102 07F10C03 		add	r3, r7, #12
 2099 0106 0320     		movs	r0, #3
 2100 0108 1946     		mov	r1, r3
 2101 010a 0A22     		movs	r2, #10
 2102 010c FFF7FEFF 		bl	itoa
  53:NextionLCD_PlotScaledData.h ****     UART_TFT_PutString(num_str);
 2103              		.loc 5 53 0
 2104 0110 07F10C03 		add	r3, r7, #12
 2105 0114 1846     		mov	r0, r3
 2106 0116 FFF7FEFF 		bl	UART_TFT_PutString
  54:NextionLCD_PlotScaledData.h ****     UART_TFT_PutChar(',');
 2107              		.loc 5 54 0
 2108 011a 2C20     		movs	r0, #44
 2109 011c FFF7FEFF 		bl	UART_TFT_PutChar
  55:NextionLCD_PlotScaledData.h ****     // Farbe übertragen
  56:NextionLCD_PlotScaledData.h ****     UART_TFT_PutString("GREEN");
 2110              		.loc 5 56 0
 2111 0120 1048     		ldr	r0, .L93+36
 2112 0122 FFF7FEFF 		bl	UART_TFT_PutString
  57:NextionLCD_PlotScaledData.h ****     // Ende der Eingabe markieren
  58:NextionLCD_PlotScaledData.h ****     UART_TFT_PutChar(0xff);
 2113              		.loc 5 58 0
 2114 0126 FF20     		movs	r0, #255
 2115 0128 FFF7FEFF 		bl	UART_TFT_PutChar
  59:NextionLCD_PlotScaledData.h ****     UART_TFT_PutChar(0xff);
 2116              		.loc 5 59 0
 2117 012c FF20     		movs	r0, #255
 2118 012e FFF7FEFF 		bl	UART_TFT_PutChar
ARM GAS  C:\Users\LocalAdmin\AppData\Local\Temp\cchhZa3p.s 			page 53


  60:NextionLCD_PlotScaledData.h ****     UART_TFT_PutChar(0xff);            
 2119              		.loc 5 60 0
 2120 0132 FF20     		movs	r0, #255
 2121 0134 FFF7FEFF 		bl	UART_TFT_PutChar
  61:NextionLCD_PlotScaledData.h **** }
 2122              		.loc 5 61 0
 2123 0138 2037     		adds	r7, r7, #32
 2124              		.cfi_def_cfa_offset 8
 2125 013a BD46     		mov	sp, r7
 2126              		.cfi_def_cfa_register 13
 2127              		@ sp needed
 2128 013c 80BD     		pop	{r7, pc}
 2129              	.L94:
 2130 013e 00BF     		.align	3
 2131              	.L93:
 2132 0140 00000000 		.word	0
 2133 0144 00C07740 		.word	1081589760
 2134 0148 00003E40 		.word	1077805056
 2135 014c 00805140 		.word	1079083008
 2136 0150 00005940 		.word	1079574528
 2137 0154 0000F03F 		.word	1072693248
 2138 0158 00806640 		.word	1080459264
 2139 015c 00004E40 		.word	1078853632
 2140 0160 C4000000 		.word	.LC12
 2141 0164 D0000000 		.word	.LC14
 2142              		.cfi_endproc
 2143              	.LFE80:
 2144              		.size	PointToScaledDataAxes, .-PointToScaledDataAxes
 2145              		.section	.rodata
 2146 00d6 0000     		.align	2
 2147              	.LC15:
 2148 00d8 61646420 		.ascii	"add 2,0,\000"
 2148      322C302C 
 2148      00
 2149 00e1 000000   		.align	2
 2150              	.LC16:
 2151 00e4 61646420 		.ascii	"add 2,1,\000"
 2151      322C312C 
 2151      00
 2152 00ed 000000   		.align	2
 2153              	.LC17:
 2154 00f0 61646420 		.ascii	"add 2,2,\000"
 2154      322C322C 
 2154      00
 2155              		.section	.text.PointsToSettingsAxes,"ax",%progbits
 2156              		.align	2
 2157              		.global	PointsToSettingsAxes
 2158              		.thumb
 2159              		.thumb_func
 2160              		.type	PointsToSettingsAxes, %function
 2161              	PointsToSettingsAxes:
 2162              	.LFB81:
 2163              		.file 6 "NextionLCD_PlotSettings.h"
   1:NextionLCD_PlotSettings.h **** /* ========================================
   2:NextionLCD_PlotSettings.h ****  *
   3:NextionLCD_PlotSettings.h ****  * Copyright YOUR COMPANY, THE YEAR
   4:NextionLCD_PlotSettings.h ****  * All Rights Reserved
ARM GAS  C:\Users\LocalAdmin\AppData\Local\Temp\cchhZa3p.s 			page 54


   5:NextionLCD_PlotSettings.h ****  * UNPUBLISHED, LICENSED SOFTWARE.
   6:NextionLCD_PlotSettings.h ****  *
   7:NextionLCD_PlotSettings.h ****  * CONFIDENTIAL AND PROPRIETARY INFORMATION
   8:NextionLCD_PlotSettings.h ****  * WHICH IS THE PROPERTY OF your company.
   9:NextionLCD_PlotSettings.h ****  *
  10:NextionLCD_PlotSettings.h ****  * ========================================
  11:NextionLCD_PlotSettings.h **** */
  12:NextionLCD_PlotSettings.h **** #include <project.h>
  13:NextionLCD_PlotSettings.h **** #include <math.h>
  14:NextionLCD_PlotSettings.h **** #include <stdlib.h>                             // enthält u.a. itoa
  15:NextionLCD_PlotSettings.h **** 
  16:NextionLCD_PlotSettings.h **** //
  17:NextionLCD_PlotSettings.h **** // Achtung!!! #ifndef #define #endif-Konstruktion zur Vermeidung von doppelten Definitione
  18:NextionLCD_PlotSettings.h **** //
  19:NextionLCD_PlotSettings.h **** #ifndef NextionLCD_Communication                // Funktionen für Kommunikation mit dem LCD-Displa
  20:NextionLCD_PlotSettings.h **** #define NextionLCD_Communication                
  21:NextionLCD_PlotSettings.h **** #endif 
  22:NextionLCD_PlotSettings.h **** 
  23:NextionLCD_PlotSettings.h **** //#ifndef Measurement_Setup
  24:NextionLCD_PlotSettings.h **** //#define Measurement_Setup
  25:NextionLCD_PlotSettings.h **** //#endif
  26:NextionLCD_PlotSettings.h **** 
  27:NextionLCD_PlotSettings.h **** #include "NextionLCD_PlotParameters.h"
  28:NextionLCD_PlotSettings.h **** 
  29:NextionLCD_PlotSettings.h **** 
  30:NextionLCD_PlotSettings.h **** //
  31:NextionLCD_PlotSettings.h **** // Messpunkt in "Settings" einzeichnen
  32:NextionLCD_PlotSettings.h **** //
  33:NextionLCD_PlotSettings.h **** void PointsToSettingsAxes(float presence_ths, float ref_ths, float intensity)
  34:NextionLCD_PlotSettings.h **** {
 2164              		.loc 6 34 0
 2165              		.cfi_startproc
 2166              		@ args = 0, pretend = 0, frame = 40
 2167              		@ frame_needed = 1, uses_anonymous_args = 0
 2168 0000 80B5     		push	{r7, lr}
 2169              		.cfi_def_cfa_offset 8
 2170              		.cfi_offset 7, -8
 2171              		.cfi_offset 14, -4
 2172 0002 8AB0     		sub	sp, sp, #40
 2173              		.cfi_def_cfa_offset 48
 2174 0004 00AF     		add	r7, sp, #0
 2175              		.cfi_def_cfa_register 7
 2176 0006 F860     		str	r0, [r7, #12]	@ float
 2177 0008 B960     		str	r1, [r7, #8]	@ float
 2178 000a 7A60     		str	r2, [r7, #4]	@ float
  35:NextionLCD_PlotSettings.h ****     // Hilfsvariable mit 20 Zeichen
  36:NextionLCD_PlotSettings.h ****     char num_str[20];
  37:NextionLCD_PlotSettings.h ****     
  38:NextionLCD_PlotSettings.h ****     // Umskalieren der Werte, sodass sie in Zeichenfläche liegen, maximaler erlaubter Plotwert = 2
  39:NextionLCD_PlotSettings.h **** //    presence_ths = 255.0*(1.0*presence_ths/Nextion_plot_Settings_ymax);
  40:NextionLCD_PlotSettings.h **** //    ref_ths = 255.0*(1.0*ref_ths/Nextion_plot_Settings_ymax);
  41:NextionLCD_PlotSettings.h **** //    intensity = 255.0*(1.0*intensity/Nextion_plot_Settings_ymax);
  42:NextionLCD_PlotSettings.h **** 
  43:NextionLCD_PlotSettings.h ****     // bescheuerte Skalierung!!!! Höhe im Nextion Editor is massgeblich
  44:NextionLCD_PlotSettings.h ****     presence_ths = 1.0*Nextion_plot_Settings_h*(1.0*presence_ths/Nextion_plot_Settings_ymax);
 2179              		.loc 6 44 0
 2180 000c F868     		ldr	r0, [r7, #12]	@ float
ARM GAS  C:\Users\LocalAdmin\AppData\Local\Temp\cchhZa3p.s 			page 55


 2181 000e FFF7FEFF 		bl	__aeabi_f2d
 2182 0012 0246     		mov	r2, r0
 2183 0014 0B46     		mov	r3, r1
 2184 0016 1046     		mov	r0, r2
 2185 0018 1946     		mov	r1, r3
 2186 001a 53A3     		adr	r3, .L96
 2187 001c D3E90023 		ldrd	r2, [r3]
 2188 0020 FFF7FEFF 		bl	__aeabi_ddiv
 2189 0024 0246     		mov	r2, r0
 2190 0026 0B46     		mov	r3, r1
 2191 0028 1046     		mov	r0, r2
 2192 002a 1946     		mov	r1, r3
 2193 002c 4FF00002 		mov	r2, #0
 2194 0030 4F4B     		ldr	r3, .L96+8
 2195 0032 FFF7FEFF 		bl	__aeabi_dmul
 2196 0036 0246     		mov	r2, r0
 2197 0038 0B46     		mov	r3, r1
 2198 003a 1046     		mov	r0, r2
 2199 003c 1946     		mov	r1, r3
 2200 003e FFF7FEFF 		bl	__aeabi_d2f
 2201 0042 0346     		mov	r3, r0
 2202 0044 FB60     		str	r3, [r7, #12]	@ float
  45:NextionLCD_PlotSettings.h ****     ref_ths = 1.0*Nextion_plot_Settings_h*(1.0*ref_ths/Nextion_plot_Settings_ymax);
 2203              		.loc 6 45 0
 2204 0046 B868     		ldr	r0, [r7, #8]	@ float
 2205 0048 FFF7FEFF 		bl	__aeabi_f2d
 2206 004c 0246     		mov	r2, r0
 2207 004e 0B46     		mov	r3, r1
 2208 0050 1046     		mov	r0, r2
 2209 0052 1946     		mov	r1, r3
 2210 0054 44A3     		adr	r3, .L96
 2211 0056 D3E90023 		ldrd	r2, [r3]
 2212 005a FFF7FEFF 		bl	__aeabi_ddiv
 2213 005e 0246     		mov	r2, r0
 2214 0060 0B46     		mov	r3, r1
 2215 0062 1046     		mov	r0, r2
 2216 0064 1946     		mov	r1, r3
 2217 0066 4FF00002 		mov	r2, #0
 2218 006a 414B     		ldr	r3, .L96+8
 2219 006c FFF7FEFF 		bl	__aeabi_dmul
 2220 0070 0246     		mov	r2, r0
 2221 0072 0B46     		mov	r3, r1
 2222 0074 1046     		mov	r0, r2
 2223 0076 1946     		mov	r1, r3
 2224 0078 FFF7FEFF 		bl	__aeabi_d2f
 2225 007c 0346     		mov	r3, r0
 2226 007e BB60     		str	r3, [r7, #8]	@ float
  46:NextionLCD_PlotSettings.h ****     intensity = 1.0*Nextion_plot_Settings_h*(1.0*intensity/Nextion_plot_Settings_ymax);
 2227              		.loc 6 46 0
 2228 0080 7868     		ldr	r0, [r7, #4]	@ float
 2229 0082 FFF7FEFF 		bl	__aeabi_f2d
 2230 0086 0246     		mov	r2, r0
 2231 0088 0B46     		mov	r3, r1
 2232 008a 1046     		mov	r0, r2
 2233 008c 1946     		mov	r1, r3
 2234 008e 36A3     		adr	r3, .L96
 2235 0090 D3E90023 		ldrd	r2, [r3]
ARM GAS  C:\Users\LocalAdmin\AppData\Local\Temp\cchhZa3p.s 			page 56


 2236 0094 FFF7FEFF 		bl	__aeabi_ddiv
 2237 0098 0246     		mov	r2, r0
 2238 009a 0B46     		mov	r3, r1
 2239 009c 1046     		mov	r0, r2
 2240 009e 1946     		mov	r1, r3
 2241 00a0 4FF00002 		mov	r2, #0
 2242 00a4 324B     		ldr	r3, .L96+8
 2243 00a6 FFF7FEFF 		bl	__aeabi_dmul
 2244 00aa 0246     		mov	r2, r0
 2245 00ac 0B46     		mov	r3, r1
 2246 00ae 1046     		mov	r0, r2
 2247 00b0 1946     		mov	r1, r3
 2248 00b2 FFF7FEFF 		bl	__aeabi_d2f
 2249 00b6 0346     		mov	r3, r0
 2250 00b8 7B60     		str	r3, [r7, #4]	@ float
  47:NextionLCD_PlotSettings.h ****     
  48:NextionLCD_PlotSettings.h ****     // -> setze jeweiligen Wert in Kanäle 0, 1 und 2 der Zeichenfläche mit ID 2
  49:NextionLCD_PlotSettings.h ****     
  50:NextionLCD_PlotSettings.h ****     // Wert für Detektionsgrenze -> darunter wird die Zeitmessung gestoppt
  51:NextionLCD_PlotSettings.h ****     UART_TFT_PutString("add 2,0,");
 2251              		.loc 6 51 0
 2252 00ba 2E48     		ldr	r0, .L96+12
 2253 00bc FFF7FEFF 		bl	UART_TFT_PutString
  52:NextionLCD_PlotSettings.h ****     // Umwandlung Integer -> Array of char ("String") x_str im Decimalsystem
  53:NextionLCD_PlotSettings.h ****     itoa((int)presence_ths, num_str, 10);
 2254              		.loc 6 53 0
 2255 00c0 F868     		ldr	r0, [r7, #12]	@ float
 2256 00c2 FFF7FEFF 		bl	__aeabi_f2iz
 2257 00c6 0246     		mov	r2, r0
 2258 00c8 07F11403 		add	r3, r7, #20
 2259 00cc 1046     		mov	r0, r2
 2260 00ce 1946     		mov	r1, r3
 2261 00d0 0A22     		movs	r2, #10
 2262 00d2 FFF7FEFF 		bl	itoa
  54:NextionLCD_PlotSettings.h ****     UART_TFT_PutString(num_str);
 2263              		.loc 6 54 0
 2264 00d6 07F11403 		add	r3, r7, #20
 2265 00da 1846     		mov	r0, r3
 2266 00dc FFF7FEFF 		bl	UART_TFT_PutString
  55:NextionLCD_PlotSettings.h ****     // Ende der Eingabe markieren
  56:NextionLCD_PlotSettings.h ****     UART_TFT_PutChar(0xff);
 2267              		.loc 6 56 0
 2268 00e0 FF20     		movs	r0, #255
 2269 00e2 FFF7FEFF 		bl	UART_TFT_PutChar
  57:NextionLCD_PlotSettings.h ****     UART_TFT_PutChar(0xff);
 2270              		.loc 6 57 0
 2271 00e6 FF20     		movs	r0, #255
 2272 00e8 FFF7FEFF 		bl	UART_TFT_PutChar
  58:NextionLCD_PlotSettings.h ****     UART_TFT_PutChar(0xff); 
 2273              		.loc 6 58 0
 2274 00ec FF20     		movs	r0, #255
 2275 00ee FFF7FEFF 		bl	UART_TFT_PutChar
  59:NextionLCD_PlotSettings.h ****     
  60:NextionLCD_PlotSettings.h ****     // Wert für Autokalibrierung -> wenn überschritten, ist das die Sampling Position
  61:NextionLCD_PlotSettings.h ****     UART_TFT_PutString("add 2,1,");
 2276              		.loc 6 61 0
 2277 00f2 2148     		ldr	r0, .L96+16
ARM GAS  C:\Users\LocalAdmin\AppData\Local\Temp\cchhZa3p.s 			page 57


 2278 00f4 FFF7FEFF 		bl	UART_TFT_PutString
  62:NextionLCD_PlotSettings.h ****     // Umwandlung Integer -> Array of char ("String") x_str im Decimalsystem
  63:NextionLCD_PlotSettings.h ****     itoa((int)ref_ths, num_str, 10);
 2279              		.loc 6 63 0
 2280 00f8 B868     		ldr	r0, [r7, #8]	@ float
 2281 00fa FFF7FEFF 		bl	__aeabi_f2iz
 2282 00fe 0246     		mov	r2, r0
 2283 0100 07F11403 		add	r3, r7, #20
 2284 0104 1046     		mov	r0, r2
 2285 0106 1946     		mov	r1, r3
 2286 0108 0A22     		movs	r2, #10
 2287 010a FFF7FEFF 		bl	itoa
  64:NextionLCD_PlotSettings.h ****     UART_TFT_PutString(num_str);
 2288              		.loc 6 64 0
 2289 010e 07F11403 		add	r3, r7, #20
 2290 0112 1846     		mov	r0, r3
 2291 0114 FFF7FEFF 		bl	UART_TFT_PutString
  65:NextionLCD_PlotSettings.h ****     // Ende der Eingabe markieren
  66:NextionLCD_PlotSettings.h ****     UART_TFT_PutChar(0xff);
 2292              		.loc 6 66 0
 2293 0118 FF20     		movs	r0, #255
 2294 011a FFF7FEFF 		bl	UART_TFT_PutChar
  67:NextionLCD_PlotSettings.h ****     UART_TFT_PutChar(0xff);
 2295              		.loc 6 67 0
 2296 011e FF20     		movs	r0, #255
 2297 0120 FFF7FEFF 		bl	UART_TFT_PutChar
  68:NextionLCD_PlotSettings.h ****     UART_TFT_PutChar(0xff); 
 2298              		.loc 6 68 0
 2299 0124 FF20     		movs	r0, #255
 2300 0126 FFF7FEFF 		bl	UART_TFT_PutChar
  69:NextionLCD_PlotSettings.h ****     
  70:NextionLCD_PlotSettings.h ****     // Momentaner Wert vom ADC
  71:NextionLCD_PlotSettings.h ****     UART_TFT_PutString("add 2,2,");
 2301              		.loc 6 71 0
 2302 012a 1448     		ldr	r0, .L96+20
 2303 012c FFF7FEFF 		bl	UART_TFT_PutString
  72:NextionLCD_PlotSettings.h ****     // Umwandlung Integer -> Array of char ("String") x_str im Decimalsystem
  73:NextionLCD_PlotSettings.h ****     itoa((int)intensity, num_str, 10);
 2304              		.loc 6 73 0
 2305 0130 7868     		ldr	r0, [r7, #4]	@ float
 2306 0132 FFF7FEFF 		bl	__aeabi_f2iz
 2307 0136 0246     		mov	r2, r0
 2308 0138 07F11403 		add	r3, r7, #20
 2309 013c 1046     		mov	r0, r2
 2310 013e 1946     		mov	r1, r3
 2311 0140 0A22     		movs	r2, #10
 2312 0142 FFF7FEFF 		bl	itoa
  74:NextionLCD_PlotSettings.h ****     UART_TFT_PutString(num_str);
 2313              		.loc 6 74 0
 2314 0146 07F11403 		add	r3, r7, #20
 2315 014a 1846     		mov	r0, r3
 2316 014c FFF7FEFF 		bl	UART_TFT_PutString
  75:NextionLCD_PlotSettings.h ****     // Ende der Eingabe markieren
  76:NextionLCD_PlotSettings.h ****     UART_TFT_PutChar(0xff);
 2317              		.loc 6 76 0
 2318 0150 FF20     		movs	r0, #255
 2319 0152 FFF7FEFF 		bl	UART_TFT_PutChar
ARM GAS  C:\Users\LocalAdmin\AppData\Local\Temp\cchhZa3p.s 			page 58


  77:NextionLCD_PlotSettings.h ****     UART_TFT_PutChar(0xff);
 2320              		.loc 6 77 0
 2321 0156 FF20     		movs	r0, #255
 2322 0158 FFF7FEFF 		bl	UART_TFT_PutChar
  78:NextionLCD_PlotSettings.h ****     UART_TFT_PutChar(0xff); 
 2323              		.loc 6 78 0
 2324 015c FF20     		movs	r0, #255
 2325 015e FFF7FEFF 		bl	UART_TFT_PutChar
  79:NextionLCD_PlotSettings.h ****     
  80:NextionLCD_PlotSettings.h **** //    // Maximal möglicher Wert vom ADC
  81:NextionLCD_PlotSettings.h **** //    UART_TFT_PutString("add 2,3,");
  82:NextionLCD_PlotSettings.h **** //    // Umwandlung Integer -> Array of char ("String") x_str im Decimalsystem
  83:NextionLCD_PlotSettings.h **** //    itoa((int)Nextion_plot_Settings_ymax, num_str, 10);
  84:NextionLCD_PlotSettings.h **** //    UART_TFT_PutString(num_str);
  85:NextionLCD_PlotSettings.h **** //    // Ende der Eingabe markieren
  86:NextionLCD_PlotSettings.h **** //    UART_TFT_PutChar(0xff);
  87:NextionLCD_PlotSettings.h **** //    UART_TFT_PutChar(0xff);
  88:NextionLCD_PlotSettings.h **** //    UART_TFT_PutChar(0xff);     
  89:NextionLCD_PlotSettings.h **** }
 2326              		.loc 6 89 0
 2327 0162 2837     		adds	r7, r7, #40
 2328              		.cfi_def_cfa_offset 8
 2329 0164 BD46     		mov	sp, r7
 2330              		.cfi_def_cfa_register 13
 2331              		@ sp needed
 2332 0166 80BD     		pop	{r7, pc}
 2333              	.L97:
 2334              		.align	3
 2335              	.L96:
 2336 0168 00000000 		.word	0
 2337 016c 00FEAF40 		.word	1085275648
 2338 0170 00806640 		.word	1080459264
 2339 0174 D8000000 		.word	.LC15
 2340 0178 E4000000 		.word	.LC16
 2341 017c F0000000 		.word	.LC17
 2342              		.cfi_endproc
 2343              	.LFE81:
 2344              		.size	PointsToSettingsAxes, .-PointsToSettingsAxes
 2345              		.section	.text.AutoCalibration,"ax",%progbits
 2346              		.align	2
 2347              		.global	AutoCalibration
 2348              		.thumb
 2349              		.thumb_func
 2350              		.type	AutoCalibration, %function
 2351              	AutoCalibration:
 2352              	.LFB82:
 2353              		.file 7 "Photodiode_Data.h"
   1:Photodiode_Data.h **** /* ========================================
   2:Photodiode_Data.h ****  *
   3:Photodiode_Data.h ****  * Copyright YOUR COMPANY, THE YEAR
   4:Photodiode_Data.h ****  * All Rights Reserved
   5:Photodiode_Data.h ****  * UNPUBLISHED, LICENSED SOFTWARE.
   6:Photodiode_Data.h ****  *
   7:Photodiode_Data.h ****  * CONFIDENTIAL AND PROPRIETARY INFORMATION
   8:Photodiode_Data.h ****  * WHICH IS THE PROPERTY OF your company.
   9:Photodiode_Data.h ****  *
  10:Photodiode_Data.h ****  * ========================================
ARM GAS  C:\Users\LocalAdmin\AppData\Local\Temp\cchhZa3p.s 			page 59


  11:Photodiode_Data.h **** */
  12:Photodiode_Data.h **** 
  13:Photodiode_Data.h **** #include <project.h>
  14:Photodiode_Data.h **** #include <math.h>                   // Mathe-Modul -> erlaubt unter anderem "NAN"-Werte
  15:Photodiode_Data.h **** 
  16:Photodiode_Data.h **** //
  17:Photodiode_Data.h **** // Selbstständige Suche der Referenzposition mit Intensittät oberhalb Schwellwert
  18:Photodiode_Data.h **** //
  19:Photodiode_Data.h **** void AutoCalibration (void)
  20:Photodiode_Data.h **** {
 2354              		.loc 7 20 0
 2355              		.cfi_startproc
 2356              		@ args = 0, pretend = 0, frame = 0
 2357              		@ frame_needed = 1, uses_anonymous_args = 0
 2358              		@ link register save eliminated.
 2359 0000 80B4     		push	{r7}
 2360              		.cfi_def_cfa_offset 4
 2361              		.cfi_offset 7, -4
 2362 0002 00AF     		add	r7, sp, #0
 2363              		.cfi_def_cfa_register 7
  21:Photodiode_Data.h **** }
 2364              		.loc 7 21 0
 2365 0004 BD46     		mov	sp, r7
 2366              		.cfi_def_cfa_register 13
 2367              		@ sp needed
 2368 0006 5DF8047B 		ldr	r7, [sp], #4
 2369              		.cfi_restore 7
 2370              		.cfi_def_cfa_offset 0
 2371 000a 7047     		bx	lr
 2372              		.cfi_endproc
 2373              	.LFE82:
 2374              		.size	AutoCalibration, .-AutoCalibration
 2375              		.section	.text.Get_Single_Lamella_Lifetime,"ax",%progbits
 2376              		.align	2
 2377              		.global	Get_Single_Lamella_Lifetime
 2378              		.thumb
 2379              		.thumb_func
 2380              		.type	Get_Single_Lamella_Lifetime, %function
 2381              	Get_Single_Lamella_Lifetime:
 2382              	.LFB83:
  22:Photodiode_Data.h **** 
  23:Photodiode_Data.h **** // 
  24:Photodiode_Data.h **** // Aufnahme eines Messwertes -> Fahren von Home-Position in Sampling Position und
  25:Photodiode_Data.h **** // wieder zurück in Home-Position
  26:Photodiode_Data.h **** //
  27:Photodiode_Data.h **** long Get_Single_Lamella_Lifetime (void)
  28:Photodiode_Data.h **** {
 2383              		.loc 7 28 0
 2384              		.cfi_startproc
 2385              		@ args = 0, pretend = 0, frame = 8
 2386              		@ frame_needed = 1, uses_anonymous_args = 0
 2387 0000 80B5     		push	{r7, lr}
 2388              		.cfi_def_cfa_offset 8
 2389              		.cfi_offset 7, -8
 2390              		.cfi_offset 14, -4
 2391 0002 82B0     		sub	sp, sp, #8
 2392              		.cfi_def_cfa_offset 16
ARM GAS  C:\Users\LocalAdmin\AppData\Local\Temp\cchhZa3p.s 			page 60


 2393 0004 00AF     		add	r7, sp, #0
 2394              		.cfi_def_cfa_register 7
  29:Photodiode_Data.h ****     float LifeTime = NAN;            // Initialisierung des Rückgabewerts als "Not A Number"
 2395              		.loc 7 29 0
 2396 0006 054B     		ldr	r3, .L101
 2397 0008 7B60     		str	r3, [r7, #4]	@ float
  30:Photodiode_Data.h ****     
  31:Photodiode_Data.h ****     return LifeTime;
 2398              		.loc 7 31 0
 2399 000a 7868     		ldr	r0, [r7, #4]	@ float
 2400 000c FFF7FEFF 		bl	__aeabi_f2iz
 2401 0010 0346     		mov	r3, r0
  32:Photodiode_Data.h **** }
 2402              		.loc 7 32 0
 2403 0012 1846     		mov	r0, r3
 2404 0014 0837     		adds	r7, r7, #8
 2405              		.cfi_def_cfa_offset 8
 2406 0016 BD46     		mov	sp, r7
 2407              		.cfi_def_cfa_register 13
 2408              		@ sp needed
 2409 0018 80BD     		pop	{r7, pc}
 2410              	.L102:
 2411 001a 00BF     		.align	2
 2412              	.L101:
 2413 001c 0000C07F 		.word	2143289344
 2414              		.cfi_endproc
 2415              	.LFE83:
 2416              		.size	Get_Single_Lamella_Lifetime, .-Get_Single_Lamella_Lifetime
 2417              		.global	__aeabi_d2iz
 2418              		.section	.text.Measurement_Init_Number,"ax",%progbits
 2419              		.align	2
 2420              		.global	Measurement_Init_Number
 2421              		.thumb
 2422              		.thumb_func
 2423              		.type	Measurement_Init_Number, %function
 2424              	Measurement_Init_Number:
 2425              	.LFB84:
 2426              		.file 8 "Measurement_Setup.h"
   1:Measurement_Setup.h **** /* ========================================
   2:Measurement_Setup.h ****  *
   3:Measurement_Setup.h ****  * Copyright YOUR COMPANY, THE YEAR
   4:Measurement_Setup.h ****  * All Rights Reserved
   5:Measurement_Setup.h ****  * UNPUBLISHED, LICENSED SOFTWARE.
   6:Measurement_Setup.h ****  *
   7:Measurement_Setup.h ****  * CONFIDENTIAL AND PROPRIETARY INFORMATION
   8:Measurement_Setup.h ****  * WHICH IS THE PROPERTY OF your company.
   9:Measurement_Setup.h ****  *
  10:Measurement_Setup.h ****  * ========================================
  11:Measurement_Setup.h **** */
  12:Measurement_Setup.h **** 
  13:Measurement_Setup.h **** #include <project.h>
  14:Measurement_Setup.h **** #include <math.h>
  15:Measurement_Setup.h **** 
  16:Measurement_Setup.h **** #ifndef NextionLCD_Communication
  17:Measurement_Setup.h **** #define NextionLCD_Communication
  18:Measurement_Setup.h **** #endif
  19:Measurement_Setup.h **** 
ARM GAS  C:\Users\LocalAdmin\AppData\Local\Temp\cchhZa3p.s 			page 61


  20:Measurement_Setup.h **** //
  21:Measurement_Setup.h **** // Bestimmung der Zahl der Messungen und Initialisierungen so weit möglich
  22:Measurement_Setup.h **** //
  23:Measurement_Setup.h **** void Measurement_Init_Number(void)
  24:Measurement_Setup.h **** {
 2427              		.loc 8 24 0
 2428              		.cfi_startproc
 2429              		@ args = 0, pretend = 0, frame = 8
 2430              		@ frame_needed = 1, uses_anonymous_args = 0
 2431 0000 80B5     		push	{r7, lr}
 2432              		.cfi_def_cfa_offset 8
 2433              		.cfi_offset 7, -8
 2434              		.cfi_offset 14, -4
 2435 0002 82B0     		sub	sp, sp, #8
 2436              		.cfi_def_cfa_offset 16
 2437 0004 00AF     		add	r7, sp, #0
 2438              		.cfi_def_cfa_register 7
  25:Measurement_Setup.h ****     double slider_val;
  26:Measurement_Setup.h ****     
  27:Measurement_Setup.h ****     // Momentanen Sliderwert abragen
  28:Measurement_Setup.h ****     slider_val = Nextion_GetSliderValue();
 2439              		.loc 8 28 0
 2440 0006 FFF7FEFF 		bl	Nextion_GetSliderValue
 2441 000a 0346     		mov	r3, r0
 2442 000c 1846     		mov	r0, r3
 2443 000e FFF7FEFF 		bl	__aeabi_i2d
 2444 0012 0246     		mov	r2, r0
 2445 0014 0B46     		mov	r3, r1
 2446 0016 C7E90023 		strd	r2, [r7]
  29:Measurement_Setup.h ****     // Slider-Wert auf 10 runden
  30:Measurement_Setup.h ****     slider_val = round(slider_val/10)*10;
 2447              		.loc 8 30 0
 2448 001a D7E90001 		ldrd	r0, [r7]
 2449 001e 4FF00002 		mov	r2, #0
 2450 0022 144B     		ldr	r3, .L104
 2451 0024 FFF7FEFF 		bl	__aeabi_ddiv
 2452 0028 0246     		mov	r2, r0
 2453 002a 0B46     		mov	r3, r1
 2454 002c 1046     		mov	r0, r2
 2455 002e 1946     		mov	r1, r3
 2456 0030 FFF7FEFF 		bl	round
 2457 0034 0246     		mov	r2, r0
 2458 0036 0B46     		mov	r3, r1
 2459 0038 1046     		mov	r0, r2
 2460 003a 1946     		mov	r1, r3
 2461 003c 4FF00002 		mov	r2, #0
 2462 0040 0C4B     		ldr	r3, .L104
 2463 0042 FFF7FEFF 		bl	__aeabi_dmul
 2464 0046 0246     		mov	r2, r0
 2465 0048 0B46     		mov	r3, r1
 2466 004a C7E90023 		strd	r2, [r7]
  31:Measurement_Setup.h ****     // neuen Slider-Wert in slider und Anzeigetext setzen
  32:Measurement_Setup.h ****     Nextion_SendSliderValue((int)slider_val);
 2467              		.loc 8 32 0
 2468 004e D7E90001 		ldrd	r0, [r7]
 2469 0052 FFF7FEFF 		bl	__aeabi_d2iz
 2470 0056 0346     		mov	r3, r0
ARM GAS  C:\Users\LocalAdmin\AppData\Local\Temp\cchhZa3p.s 			page 62


 2471 0058 1846     		mov	r0, r3
 2472 005a FFF7FEFF 		bl	Nextion_SendSliderValue
  33:Measurement_Setup.h ****     Nextion_SendTextNoMeas((int)slider_val);
 2473              		.loc 8 33 0
 2474 005e D7E90001 		ldrd	r0, [r7]
 2475 0062 FFF7FEFF 		bl	__aeabi_d2iz
 2476 0066 0346     		mov	r3, r0
 2477 0068 1846     		mov	r0, r3
 2478 006a FFF7FEFF 		bl	Nextion_SendTextNoMeas
  34:Measurement_Setup.h ****     
  35:Measurement_Setup.h ****     // Dimensionierung des maximalen Wertes der x-Achse in plot "LiveData"
  36:Measurement_Setup.h ****     //#define Nextion_plot_LiveData_xmax 7000  
  37:Measurement_Setup.h ****     //#define Nextion_plot_LiveData_xmax slider_val 
  38:Measurement_Setup.h **** }
 2479              		.loc 8 38 0
 2480 006e 0837     		adds	r7, r7, #8
 2481              		.cfi_def_cfa_offset 8
 2482 0070 BD46     		mov	sp, r7
 2483              		.cfi_def_cfa_register 13
 2484              		@ sp needed
 2485 0072 80BD     		pop	{r7, pc}
 2486              	.L105:
 2487              		.align	2
 2488              	.L104:
 2489 0074 00002440 		.word	1076101120
 2490              		.cfi_endproc
 2491              	.LFE84:
 2492              		.size	Measurement_Init_Number, .-Measurement_Init_Number
 2493              		.section	.text.UART_TFT_InterruptFunction,"ax",%progbits
 2494              		.align	2
 2495              		.global	UART_TFT_InterruptFunction
 2496              		.thumb
 2497              		.thumb_func
 2498              		.type	UART_TFT_InterruptFunction, %function
 2499              	UART_TFT_InterruptFunction:
 2500              	.LFB85:
 2501              		.file 9 "CY_ISR_Interrupt.h"
   1:CY_ISR_Interrupt.h **** /* ========================================
   2:CY_ISR_Interrupt.h ****  *
   3:CY_ISR_Interrupt.h ****  * Copyright YOUR COMPANY, THE YEAR
   4:CY_ISR_Interrupt.h ****  * All Rights Reserved
   5:CY_ISR_Interrupt.h ****  * UNPUBLISHED, LICENSED SOFTWARE.
   6:CY_ISR_Interrupt.h ****  *
   7:CY_ISR_Interrupt.h ****  * CONFIDENTIAL AND PROPRIETARY INFORMATION
   8:CY_ISR_Interrupt.h ****  * WHICH IS THE PROPERTY OF your company.
   9:CY_ISR_Interrupt.h ****  *
  10:CY_ISR_Interrupt.h ****  * ========================================
  11:CY_ISR_Interrupt.h **** */
  12:CY_ISR_Interrupt.h **** 
  13:CY_ISR_Interrupt.h **** #include <project.h>
  14:CY_ISR_Interrupt.h **** #include <math.h>
  15:CY_ISR_Interrupt.h **** #include <stdio.h>
  16:CY_ISR_Interrupt.h **** #include <stdlib.h>                                 // enthält u.a. itoa
  17:CY_ISR_Interrupt.h **** 
  18:CY_ISR_Interrupt.h **** #ifndef NextionLCD_Communication
  19:CY_ISR_Interrupt.h **** #define NextionLCD_Communication
  20:CY_ISR_Interrupt.h **** #endif
ARM GAS  C:\Users\LocalAdmin\AppData\Local\Temp\cchhZa3p.s 			page 63


  21:CY_ISR_Interrupt.h **** 
  22:CY_ISR_Interrupt.h **** #ifndef StepperMotor_Control
  23:CY_ISR_Interrupt.h **** #define StepperMotor_Control
  24:CY_ISR_Interrupt.h **** #endif
  25:CY_ISR_Interrupt.h **** 
  26:CY_ISR_Interrupt.h **** #ifndef DataLogger
  27:CY_ISR_Interrupt.h **** #define DataLogger
  28:CY_ISR_Interrupt.h **** #endif
  29:CY_ISR_Interrupt.h **** 
  30:CY_ISR_Interrupt.h **** CY_ISR(UART_TFT_InterruptFunction)
  31:CY_ISR_Interrupt.h **** {
 2502              		.loc 9 31 0
 2503              		.cfi_startproc
 2504              		@ args = 0, pretend = 0, frame = 8
 2505              		@ frame_needed = 1, uses_anonymous_args = 0
 2506 0000 80B5     		push	{r7, lr}
 2507              		.cfi_def_cfa_offset 8
 2508              		.cfi_offset 7, -8
 2509              		.cfi_offset 14, -4
 2510 0002 82B0     		sub	sp, sp, #8
 2511              		.cfi_def_cfa_offset 16
 2512 0004 00AF     		add	r7, sp, #0
 2513              		.cfi_def_cfa_register 7
  32:CY_ISR_Interrupt.h ****     static uint8 counter = 0;                      // Laufvariable
  33:CY_ISR_Interrupt.h ****     
  34:CY_ISR_Interrupt.h ****     // letztes Byte einlesen
  35:CY_ISR_Interrupt.h ****     uint8 last_byte;
  36:CY_ISR_Interrupt.h ****     last_byte = UART_TFT_GetChar();                
 2514              		.loc 9 36 0
 2515 0006 FFF7FEFF 		bl	UART_TFT_GetChar
 2516 000a 0346     		mov	r3, r0
 2517 000c FB70     		strb	r3, [r7, #3]
  37:CY_ISR_Interrupt.h ****     
  38:CY_ISR_Interrupt.h ****     if (slider_val_sent == 0)
 2518              		.loc 9 38 0
 2519 000e 4E4B     		ldr	r3, .L122
 2520 0010 1B78     		ldrb	r3, [r3]
 2521 0012 DBB2     		uxtb	r3, r3
 2522 0014 002B     		cmp	r3, #0
 2523 0016 77D1     		bne	.L107
  39:CY_ISR_Interrupt.h ****     {        
  40:CY_ISR_Interrupt.h ****         // Fallunterscheidung bzw. Abrage der momentanen Menüseite
  41:CY_ISR_Interrupt.h ****         if (last_byte == 0x48)                              // LCD hat ein "H" gesendet; -> ASCII "
 2524              		.loc 9 41 0
 2525 0018 FB78     		ldrb	r3, [r7, #3]	@ zero_extendqisi2
 2526 001a 482B     		cmp	r3, #72
 2527 001c 02D1     		bne	.L108
  42:CY_ISR_Interrupt.h ****         {
  43:CY_ISR_Interrupt.h ****             menustate = 0;                                  // von Nextion aus: Wechsel auf "Home" 
 2528              		.loc 9 43 0
 2529 001e 4B4B     		ldr	r3, .L122+4
 2530 0020 0022     		movs	r2, #0
 2531 0022 1A70     		strb	r2, [r3]
 2532              	.L108:
  44:CY_ISR_Interrupt.h ****         }
  45:CY_ISR_Interrupt.h ****         
  46:CY_ISR_Interrupt.h ****         if (last_byte == 0x53)                              // LCD hat ein "S" gesendet; -> ASCII "
ARM GAS  C:\Users\LocalAdmin\AppData\Local\Temp\cchhZa3p.s 			page 64


 2533              		.loc 9 46 0
 2534 0024 FB78     		ldrb	r3, [r7, #3]	@ zero_extendqisi2
 2535 0026 532B     		cmp	r3, #83
 2536 0028 02D1     		bne	.L109
  47:CY_ISR_Interrupt.h ****         {
  48:CY_ISR_Interrupt.h ****             menustate = 1;                                  // von Nextion aus: Wechsel auf "Settin
 2537              		.loc 9 48 0
 2538 002a 484B     		ldr	r3, .L122+4
 2539 002c 0122     		movs	r2, #1
 2540 002e 1A70     		strb	r2, [r3]
 2541              	.L109:
  49:CY_ISR_Interrupt.h ****         }
  50:CY_ISR_Interrupt.h ****         
  51:CY_ISR_Interrupt.h ****         if (last_byte == 0x4D)                              // LCD hat ein "M" gesendet -> Messung 
 2542              		.loc 9 51 0
 2543 0030 FB78     		ldrb	r3, [r7, #3]	@ zero_extendqisi2
 2544 0032 4D2B     		cmp	r3, #77
 2545 0034 38D1     		bne	.L110
  52:CY_ISR_Interrupt.h ****         {
  53:CY_ISR_Interrupt.h ****             menustate = 2;                                  // von Nextion aus: Wechsel auf "LiveDa
 2546              		.loc 9 53 0
 2547 0036 454B     		ldr	r3, .L122+4
 2548 0038 0222     		movs	r2, #2
 2549 003a 1A70     		strb	r2, [r3]
  54:CY_ISR_Interrupt.h ****             
  55:CY_ISR_Interrupt.h ****             // Togglen der Variable, die angibt, ob die Messung läuft  
  56:CY_ISR_Interrupt.h ****             if (Measurement_running == 0)
 2550              		.loc 9 56 0
 2551 003c 444B     		ldr	r3, .L122+8
 2552 003e 1B78     		ldrb	r3, [r3]
 2553 0040 DBB2     		uxtb	r3, r3
 2554 0042 002B     		cmp	r3, #0
 2555 0044 28D1     		bne	.L111
 2556              	.LBB2:
  57:CY_ISR_Interrupt.h ****             {   // Zu Beginn Messposition anfahren
  58:CY_ISR_Interrupt.h ****                 MoveToSamplingPosition ();
 2557              		.loc 9 58 0
 2558 0046 FFF7FEFF 		bl	MoveToSamplingPosition
  59:CY_ISR_Interrupt.h ****                 Measurement_running = 1; 
 2559              		.loc 9 59 0
 2560 004a 414B     		ldr	r3, .L122+8
 2561 004c 0122     		movs	r2, #1
 2562 004e 1A70     		strb	r2, [r3]
  60:CY_ISR_Interrupt.h ****                 // Zähler zurücksetzen
  61:CY_ISR_Interrupt.h ****                 counter_Timer1_steps = 0;                   // Zähler für Durchläufe der Timerfu
 2563              		.loc 9 61 0
 2564 0050 404B     		ldr	r3, .L122+12
 2565 0052 0022     		movs	r2, #0
 2566 0054 1A60     		str	r2, [r3]
  62:CY_ISR_Interrupt.h ****                 counter_Lamella_Number = 0;                 // Zähler für die Anzahl der zu betra
 2567              		.loc 9 62 0
 2568 0056 404B     		ldr	r3, .L122+16
 2569 0058 0022     		movs	r2, #0
 2570 005a 1A60     		str	r2, [r3]
  63:CY_ISR_Interrupt.h ****                 // Werte, die neu erhalten werden als nicht gespeichert setzen
  64:CY_ISR_Interrupt.h ****                 STI100_present_results_saved = 0;
 2571              		.loc 9 64 0
ARM GAS  C:\Users\LocalAdmin\AppData\Local\Temp\cchhZa3p.s 			page 65


 2572 005c 3F4B     		ldr	r3, .L122+20
 2573 005e 0022     		movs	r2, #0
 2574 0060 1A60     		str	r2, [r3]
  65:CY_ISR_Interrupt.h ****                 // Maximallebensdauer zurücksetzen
  66:CY_ISR_Interrupt.h ****                 Lifetime_max = 0;
 2575              		.loc 9 66 0
 2576 0062 3F4B     		ldr	r3, .L122+24
 2577 0064 0022     		movs	r2, #0
 2578 0066 1A60     		str	r2, [r3]
  67:CY_ISR_Interrupt.h ****                 // Ergebnisarray reinitialisieren;
  68:CY_ISR_Interrupt.h ****                 int i;
  69:CY_ISR_Interrupt.h ****                 for (i=0;i<1000;i++)
 2579              		.loc 9 69 0
 2580 0068 0023     		movs	r3, #0
 2581 006a 7B60     		str	r3, [r7, #4]
 2582 006c 0CE0     		b	.L112
 2583              	.L113:
  70:CY_ISR_Interrupt.h ****                 {
  71:CY_ISR_Interrupt.h ****                     Number[i] = 0;
 2584              		.loc 9 71 0 discriminator 3
 2585 006e 3D4A     		ldr	r2, .L122+28
 2586 0070 7B68     		ldr	r3, [r7, #4]
 2587 0072 0021     		movs	r1, #0
 2588 0074 42F82310 		str	r1, [r2, r3, lsl #2]
  72:CY_ISR_Interrupt.h ****                     Lifetime[i]= 0;
 2589              		.loc 9 72 0 discriminator 3
 2590 0078 3B4A     		ldr	r2, .L122+32
 2591 007a 7B68     		ldr	r3, [r7, #4]
 2592 007c 0021     		movs	r1, #0
 2593 007e 42F82310 		str	r1, [r2, r3, lsl #2]
  69:CY_ISR_Interrupt.h ****                 {
 2594              		.loc 9 69 0 discriminator 3
 2595 0082 7B68     		ldr	r3, [r7, #4]
 2596 0084 0133     		adds	r3, r3, #1
 2597 0086 7B60     		str	r3, [r7, #4]
 2598              	.L112:
  69:CY_ISR_Interrupt.h ****                 {
 2599              		.loc 9 69 0 is_stmt 0 discriminator 1
 2600 0088 7B68     		ldr	r3, [r7, #4]
 2601 008a B3F57A7F 		cmp	r3, #1000
 2602 008e EEDB     		blt	.L113
  73:CY_ISR_Interrupt.h ****                 }
  74:CY_ISR_Interrupt.h ****                 // erlauben, dass der 100ms Messtimer wieder feuert
  75:CY_ISR_Interrupt.h ****                 new_pickup_initialized = 0;
 2603              		.loc 9 75 0 is_stmt 1
 2604 0090 364B     		ldr	r3, .L122+36
 2605 0092 0022     		movs	r2, #0
 2606 0094 1A70     		strb	r2, [r3]
 2607              	.LBE2:
 2608 0096 07E0     		b	.L110
 2609              	.L111:
  76:CY_ISR_Interrupt.h ****             }
  77:CY_ISR_Interrupt.h ****             else if (Measurement_running == 1)
 2610              		.loc 9 77 0
 2611 0098 2D4B     		ldr	r3, .L122+8
 2612 009a 1B78     		ldrb	r3, [r3]
 2613 009c DBB2     		uxtb	r3, r3
ARM GAS  C:\Users\LocalAdmin\AppData\Local\Temp\cchhZa3p.s 			page 66


 2614 009e 012B     		cmp	r3, #1
 2615 00a0 02D1     		bne	.L110
  78:CY_ISR_Interrupt.h ****             {
  79:CY_ISR_Interrupt.h ****                 // Messung wird abgebrochen
  80:CY_ISR_Interrupt.h ****                 Measurement_running = 0; 
 2616              		.loc 9 80 0
 2617 00a2 2B4B     		ldr	r3, .L122+8
 2618 00a4 0022     		movs	r2, #0
 2619 00a6 1A70     		strb	r2, [r3]
 2620              	.L110:
  81:CY_ISR_Interrupt.h ****                 // Momentanes File des Datenloggers schliessen
  82:CY_ISR_Interrupt.h ****                 // CloseLoggerFile();
  83:CY_ISR_Interrupt.h ****             }
  84:CY_ISR_Interrupt.h ****                       
  85:CY_ISR_Interrupt.h ****         }
  86:CY_ISR_Interrupt.h ****         
  87:CY_ISR_Interrupt.h ****         if (last_byte == 0x41)                              // LCD hat ein "A" gesendet; -> ASCII "
 2621              		.loc 9 87 0
 2622 00a8 FB78     		ldrb	r3, [r7, #3]	@ zero_extendqisi2
 2623 00aa 412B     		cmp	r3, #65
 2624 00ac 02D1     		bne	.L114
  88:CY_ISR_Interrupt.h ****         {
  89:CY_ISR_Interrupt.h ****             menustate = 3;                                  // von Nextion aus: Wechsel auf "Scaled
 2625              		.loc 9 89 0
 2626 00ae 274B     		ldr	r3, .L122+4
 2627 00b0 0322     		movs	r2, #3
 2628 00b2 1A70     		strb	r2, [r3]
 2629              	.L114:
  90:CY_ISR_Interrupt.h ****         }
  91:CY_ISR_Interrupt.h ****         
  92:CY_ISR_Interrupt.h ****         if (last_byte == 0x45)                              // LCD hat ein "E" gesendet; -> ASCII "
 2630              		.loc 9 92 0
 2631 00b4 FB78     		ldrb	r3, [r7, #3]	@ zero_extendqisi2
 2632 00b6 452B     		cmp	r3, #69
 2633 00b8 02D1     		bne	.L115
  93:CY_ISR_Interrupt.h ****         {
  94:CY_ISR_Interrupt.h ****             menustate = 4;                                  // von Nextion aus: Wechsel auf "Export
 2634              		.loc 9 94 0
 2635 00ba 244B     		ldr	r3, .L122+4
 2636 00bc 0422     		movs	r2, #4
 2637 00be 1A70     		strb	r2, [r3]
 2638              	.L115:
  95:CY_ISR_Interrupt.h ****         }
  96:CY_ISR_Interrupt.h ****         
  97:CY_ISR_Interrupt.h ****         if (last_byte == 0x4C)                              // LCD hat ein "L" gesendet; -> ASCII "
 2639              		.loc 9 97 0
 2640 00c0 FB78     		ldrb	r3, [r7, #3]	@ zero_extendqisi2
 2641 00c2 4C2B     		cmp	r3, #76
 2642 00c4 02D1     		bne	.L116
  98:CY_ISR_Interrupt.h ****         {
  99:CY_ISR_Interrupt.h ****             // hier nur auslesen der Bereits gesammelten Werte
 100:CY_ISR_Interrupt.h ****             menustate = 2;                                  // von Nextion aus: Wechsel auf "Export
 2643              		.loc 9 100 0
 2644 00c6 214B     		ldr	r3, .L122+4
 2645 00c8 0222     		movs	r2, #2
 2646 00ca 1A70     		strb	r2, [r3]
 2647              	.L116:
ARM GAS  C:\Users\LocalAdmin\AppData\Local\Temp\cchhZa3p.s 			page 67


 101:CY_ISR_Interrupt.h ****         }
 102:CY_ISR_Interrupt.h ****         
 103:CY_ISR_Interrupt.h ****         if (last_byte == 0x58)                              // LCD hat ein "X" gesendet; -> Touch R
 2648              		.loc 9 103 0
 2649 00cc FB78     		ldrb	r3, [r7, #3]	@ zero_extendqisi2
 2650 00ce 582B     		cmp	r3, #88
 2651 00d0 05D1     		bne	.L117
 104:CY_ISR_Interrupt.h ****         {
 105:CY_ISR_Interrupt.h ****             menustate = 0;
 2652              		.loc 9 105 0
 2653 00d2 1E4B     		ldr	r3, .L122+4
 2654 00d4 0022     		movs	r2, #0
 2655 00d6 1A70     		strb	r2, [r3]
 106:CY_ISR_Interrupt.h ****             slider_val_sent = 1;
 2656              		.loc 9 106 0
 2657 00d8 1B4B     		ldr	r3, .L122
 2658 00da 0122     		movs	r2, #1
 2659 00dc 1A70     		strb	r2, [r3]
 2660              	.L117:
 107:CY_ISR_Interrupt.h ****         }
 108:CY_ISR_Interrupt.h ****         
 109:CY_ISR_Interrupt.h ****         if (last_byte == 0x2B)                              // LCD hat ein "+" gesendet von "Settin
 2661              		.loc 9 109 0
 2662 00de FB78     		ldrb	r3, [r7, #3]	@ zero_extendqisi2
 2663 00e0 2B2B     		cmp	r3, #43
 2664 00e2 01D1     		bne	.L118
 110:CY_ISR_Interrupt.h ****         {
 111:CY_ISR_Interrupt.h ****             // Einen Schritt nach rechts drehen
 112:CY_ISR_Interrupt.h ****             MoveOneStep_CounterClockwise();
 2665              		.loc 9 112 0
 2666 00e4 FFF7FEFF 		bl	MoveOneStep_CounterClockwise
 2667              	.L118:
 113:CY_ISR_Interrupt.h ****         }
 114:CY_ISR_Interrupt.h ****  
 115:CY_ISR_Interrupt.h ****         if (last_byte == 0x2D)                              // LCD hat ein "-" gesendet von "Settin
 2668              		.loc 9 115 0
 2669 00e8 FB78     		ldrb	r3, [r7, #3]	@ zero_extendqisi2
 2670 00ea 2D2B     		cmp	r3, #45
 2671 00ec 01D1     		bne	.L119
 116:CY_ISR_Interrupt.h ****         {
 117:CY_ISR_Interrupt.h ****             // Einen Schritt nach links drehen
 118:CY_ISR_Interrupt.h ****             MoveOneStep_Clockwise();
 2672              		.loc 9 118 0
 2673 00ee FFF7FEFF 		bl	MoveOneStep_Clockwise
 2674              	.L119:
 119:CY_ISR_Interrupt.h ****         }
 120:CY_ISR_Interrupt.h ****         
 121:CY_ISR_Interrupt.h ****         if (last_byte == 0x21)                              // LCD hat ein "!" gesendet von "Settin
 2675              		.loc 9 121 0
 2676 00f2 FB78     		ldrb	r3, [r7, #3]	@ zero_extendqisi2
 2677 00f4 212B     		cmp	r3, #33
 2678 00f6 01D1     		bne	.L120
 122:CY_ISR_Interrupt.h ****         {
 123:CY_ISR_Interrupt.h ****             // Pick-Up-Position anfahren
 124:CY_ISR_Interrupt.h ****             MoveToHomePosition();
 2679              		.loc 9 124 0
 2680 00f8 FFF7FEFF 		bl	MoveToHomePosition
ARM GAS  C:\Users\LocalAdmin\AppData\Local\Temp\cchhZa3p.s 			page 68


 2681              	.L120:
 125:CY_ISR_Interrupt.h ****         }  
 126:CY_ISR_Interrupt.h ****         
 127:CY_ISR_Interrupt.h ****         if (last_byte == 0x55)                              // LCD hat ein "U" gesendet von "Export
 2682              		.loc 9 127 0
 2683 00fc FB78     		ldrb	r3, [r7, #3]	@ zero_extendqisi2
 2684 00fe 552B     		cmp	r3, #85
 2685 0100 02D1     		bne	.L107
 128:CY_ISR_Interrupt.h ****         {
 129:CY_ISR_Interrupt.h ****             // Ergebnisse auf USB-Stick schreiben
 130:CY_ISR_Interrupt.h ****             STI100_write_requested = 1;
 2686              		.loc 9 130 0
 2687 0102 1B4B     		ldr	r3, .L122+40
 2688 0104 0122     		movs	r2, #1
 2689 0106 1A60     		str	r2, [r3]
 2690              	.L107:
 131:CY_ISR_Interrupt.h ****         }  
 132:CY_ISR_Interrupt.h ****     }
 133:CY_ISR_Interrupt.h **** 
 134:CY_ISR_Interrupt.h ****     // wenn der Screen ein "X" gesendet hat -> nächste 4 Bytes einlesen auf Indices 0, 1, 2, 3
 135:CY_ISR_Interrupt.h ****     if (slider_val_sent == 1)
 2691              		.loc 9 135 0
 2692 0108 0F4B     		ldr	r3, .L122
 2693 010a 1B78     		ldrb	r3, [r3]
 2694 010c DBB2     		uxtb	r3, r3
 2695 010e 012B     		cmp	r3, #1
 2696 0110 16D1     		bne	.L106
 136:CY_ISR_Interrupt.h ****     {
 137:CY_ISR_Interrupt.h ****         RX_Buffer[counter++] = last_byte;                   // Post-Inkrement; erst alten Wert nehm
 2697              		.loc 9 137 0
 2698 0112 184B     		ldr	r3, .L122+44
 2699 0114 1B78     		ldrb	r3, [r3]	@ zero_extendqisi2
 2700 0116 5A1C     		adds	r2, r3, #1
 2701 0118 D1B2     		uxtb	r1, r2
 2702 011a 164A     		ldr	r2, .L122+44
 2703 011c 1170     		strb	r1, [r2]
 2704 011e 1946     		mov	r1, r3
 2705 0120 154A     		ldr	r2, .L122+48
 2706 0122 FB78     		ldrb	r3, [r7, #3]
 2707 0124 5354     		strb	r3, [r2, r1]
 138:CY_ISR_Interrupt.h ****         if (counter == 4)
 2708              		.loc 9 138 0
 2709 0126 134B     		ldr	r3, .L122+44
 2710 0128 1B78     		ldrb	r3, [r3]	@ zero_extendqisi2
 2711 012a 042B     		cmp	r3, #4
 2712 012c 08D1     		bne	.L106
 139:CY_ISR_Interrupt.h ****         {
 140:CY_ISR_Interrupt.h ****             counter = 0;            
 2713              		.loc 9 140 0
 2714 012e 114B     		ldr	r3, .L122+44
 2715 0130 0022     		movs	r2, #0
 2716 0132 1A70     		strb	r2, [r3]
 141:CY_ISR_Interrupt.h ****             slider_val_sent = 0;
 2717              		.loc 9 141 0
 2718 0134 044B     		ldr	r3, .L122
 2719 0136 0022     		movs	r2, #0
 2720 0138 1A70     		strb	r2, [r3]
ARM GAS  C:\Users\LocalAdmin\AppData\Local\Temp\cchhZa3p.s 			page 69


 142:CY_ISR_Interrupt.h ****             slider_val_received = 1;
 2721              		.loc 9 142 0
 2722 013a 104B     		ldr	r3, .L122+52
 2723 013c 0122     		movs	r2, #1
 2724 013e 1A70     		strb	r2, [r3]
 2725              	.L106:
 143:CY_ISR_Interrupt.h ****         }        
 144:CY_ISR_Interrupt.h ****     }
 145:CY_ISR_Interrupt.h **** 
 146:CY_ISR_Interrupt.h **** }
 2726              		.loc 9 146 0
 2727 0140 0837     		adds	r7, r7, #8
 2728              		.cfi_def_cfa_offset 8
 2729 0142 BD46     		mov	sp, r7
 2730              		.cfi_def_cfa_register 13
 2731              		@ sp needed
 2732 0144 80BD     		pop	{r7, pc}
 2733              	.L123:
 2734 0146 00BF     		.align	2
 2735              	.L122:
 2736 0148 00000000 		.word	slider_val_sent
 2737 014c 00000000 		.word	menustate
 2738 0150 00000000 		.word	Measurement_running
 2739 0154 00000000 		.word	counter_Timer1_steps
 2740 0158 00000000 		.word	counter_Lamella_Number
 2741 015c 00000000 		.word	STI100_present_results_saved
 2742 0160 00000000 		.word	Lifetime_max
 2743 0164 00000000 		.word	Number
 2744 0168 00000000 		.word	Lifetime
 2745 016c 00000000 		.word	new_pickup_initialized
 2746 0170 00000000 		.word	STI100_write_requested
 2747 0174 58000000 		.word	counter.9086
 2748 0178 00000000 		.word	RX_Buffer
 2749 017c 00000000 		.word	slider_val_received
 2750              		.cfi_endproc
 2751              	.LFE85:
 2752              		.size	UART_TFT_InterruptFunction, .-UART_TFT_InterruptFunction
 2753              		.section	.text.Timer1_Interrupt_Function,"ax",%progbits
 2754              		.align	2
 2755              		.global	Timer1_Interrupt_Function
 2756              		.thumb
 2757              		.thumb_func
 2758              		.type	Timer1_Interrupt_Function, %function
 2759              	Timer1_Interrupt_Function:
 2760              	.LFB86:
 2761              		.file 10 "CYISR_Timer1_Interrupt.h"
   1:CYISR_Timer1_Interrupt.h **** /* ========================================
   2:CYISR_Timer1_Interrupt.h ****  *
   3:CYISR_Timer1_Interrupt.h ****  * Copyright YOUR COMPANY, THE YEAR
   4:CYISR_Timer1_Interrupt.h ****  * All Rights Reserved
   5:CYISR_Timer1_Interrupt.h ****  * UNPUBLISHED, LICENSED SOFTWARE.
   6:CYISR_Timer1_Interrupt.h ****  *
   7:CYISR_Timer1_Interrupt.h ****  * CONFIDENTIAL AND PROPRIETARY INFORMATION
   8:CYISR_Timer1_Interrupt.h ****  * WHICH IS THE PROPERTY OF your company.
   9:CYISR_Timer1_Interrupt.h ****  *
  10:CYISR_Timer1_Interrupt.h ****  * ========================================
  11:CYISR_Timer1_Interrupt.h **** */
ARM GAS  C:\Users\LocalAdmin\AppData\Local\Temp\cchhZa3p.s 			page 70


  12:CYISR_Timer1_Interrupt.h **** 
  13:CYISR_Timer1_Interrupt.h **** #include <project.h>
  14:CYISR_Timer1_Interrupt.h **** #include <stdlib.h>
  15:CYISR_Timer1_Interrupt.h **** 
  16:CYISR_Timer1_Interrupt.h **** #ifndef Measurement_Parameters
  17:CYISR_Timer1_Interrupt.h **** #define Measurement_Parameters
  18:CYISR_Timer1_Interrupt.h **** #endif
  19:CYISR_Timer1_Interrupt.h **** 
  20:CYISR_Timer1_Interrupt.h **** 
  21:CYISR_Timer1_Interrupt.h **** // 
  22:CYISR_Timer1_Interrupt.h **** // Timer mit 1ms Takt -> von ihm kann man mittels Zählvariablen "langsamere" Timer ableiten
  23:CYISR_Timer1_Interrupt.h **** //
  24:CYISR_Timer1_Interrupt.h **** CY_ISR(Timer1_Interrupt_Function)
  25:CYISR_Timer1_Interrupt.h **** {
 2762              		.loc 10 25 0
 2763              		.cfi_startproc
 2764              		@ args = 0, pretend = 0, frame = 0
 2765              		@ frame_needed = 1, uses_anonymous_args = 0
 2766              		@ link register save eliminated.
 2767 0000 80B4     		push	{r7}
 2768              		.cfi_def_cfa_offset 4
 2769              		.cfi_offset 7, -4
 2770 0002 00AF     		add	r7, sp, #0
 2771              		.cfi_def_cfa_register 7
  26:CYISR_Timer1_Interrupt.h ****     // Zähler alle 1ms Inkrementieren
  27:CYISR_Timer1_Interrupt.h ****     cnt_timer100ms++;
 2772              		.loc 10 27 0
 2773 0004 1C4B     		ldr	r3, .L128
 2774 0006 1B68     		ldr	r3, [r3]
 2775 0008 0133     		adds	r3, r3, #1
 2776 000a 1B4A     		ldr	r2, .L128
 2777 000c 1360     		str	r3, [r2]
  28:CYISR_Timer1_Interrupt.h ****     cnt_timer1000ms++;
 2778              		.loc 10 28 0
 2779 000e 1B4B     		ldr	r3, .L128+4
 2780 0010 1B68     		ldr	r3, [r3]
 2781 0012 0133     		adds	r3, r3, #1
 2782 0014 194A     		ldr	r2, .L128+4
 2783 0016 1360     		str	r3, [r2]
  29:CYISR_Timer1_Interrupt.h ****     cnt_timer5000ms++;
 2784              		.loc 10 29 0
 2785 0018 194B     		ldr	r3, .L128+8
 2786 001a 1B68     		ldr	r3, [r3]
 2787 001c 0133     		adds	r3, r3, #1
 2788 001e 184A     		ldr	r2, .L128+8
 2789 0020 1360     		str	r3, [r2]
  30:CYISR_Timer1_Interrupt.h ****     
  31:CYISR_Timer1_Interrupt.h ****     // Timerflag für 100ms Timer setzen
  32:CYISR_Timer1_Interrupt.h ****     if (cnt_timer100ms == 100)
 2790              		.loc 10 32 0
 2791 0022 154B     		ldr	r3, .L128
 2792 0024 1B68     		ldr	r3, [r3]
 2793 0026 642B     		cmp	r3, #100
 2794 0028 0AD1     		bne	.L125
  33:CYISR_Timer1_Interrupt.h ****     {   
  34:CYISR_Timer1_Interrupt.h ****         // Zähler für diesen Counter zurücksetzen
  35:CYISR_Timer1_Interrupt.h ****         cnt_timer100ms = 0;
ARM GAS  C:\Users\LocalAdmin\AppData\Local\Temp\cchhZa3p.s 			page 71


 2795              		.loc 10 35 0
 2796 002a 134B     		ldr	r3, .L128
 2797 002c 0022     		movs	r2, #0
 2798 002e 1A60     		str	r2, [r3]
  36:CYISR_Timer1_Interrupt.h ****         // Variable, dass Timer gelaufen ist nur dann umschalten, wenn nicht gerade eine neue Lamel
  37:CYISR_Timer1_Interrupt.h ****         if (new_pickup_initialized == 0)
 2799              		.loc 10 37 0
 2800 0030 144B     		ldr	r3, .L128+12
 2801 0032 1B78     		ldrb	r3, [r3]
 2802 0034 DBB2     		uxtb	r3, r3
 2803 0036 002B     		cmp	r3, #0
 2804 0038 02D1     		bne	.L125
  38:CYISR_Timer1_Interrupt.h ****         {
  39:CYISR_Timer1_Interrupt.h ****             timerflag100ms = 1;                      // globale Variable, die angibt, dass die Time
 2805              		.loc 10 39 0
 2806 003a 134B     		ldr	r3, .L128+16
 2807 003c 0122     		movs	r2, #1
 2808 003e 1A70     		strb	r2, [r3]
 2809              	.L125:
  40:CYISR_Timer1_Interrupt.h ****         }
  41:CYISR_Timer1_Interrupt.h ****     }
  42:CYISR_Timer1_Interrupt.h ****     
  43:CYISR_Timer1_Interrupt.h ****     // Timerflag für 1000ms Timer setzen
  44:CYISR_Timer1_Interrupt.h ****     if (cnt_timer1000ms == 1000)
 2810              		.loc 10 44 0
 2811 0040 0E4B     		ldr	r3, .L128+4
 2812 0042 1B68     		ldr	r3, [r3]
 2813 0044 B3F57A7F 		cmp	r3, #1000
 2814 0048 05D1     		bne	.L126
  45:CYISR_Timer1_Interrupt.h ****     {   
  46:CYISR_Timer1_Interrupt.h ****         // Zähler für diesen Counter zurücksetzen
  47:CYISR_Timer1_Interrupt.h ****         cnt_timer1000ms = 0;
 2815              		.loc 10 47 0
 2816 004a 0C4B     		ldr	r3, .L128+4
 2817 004c 0022     		movs	r2, #0
 2818 004e 1A60     		str	r2, [r3]
  48:CYISR_Timer1_Interrupt.h ****         timerflag1000ms = 1;                      // globale Variable, die angibt, dass die Timerfu
 2819              		.loc 10 48 0
 2820 0050 0E4B     		ldr	r3, .L128+20
 2821 0052 0122     		movs	r2, #1
 2822 0054 1A70     		strb	r2, [r3]
 2823              	.L126:
  49:CYISR_Timer1_Interrupt.h **** 
  50:CYISR_Timer1_Interrupt.h ****     }   
  51:CYISR_Timer1_Interrupt.h ****     
  52:CYISR_Timer1_Interrupt.h ****     // Timerflag für 5000ms Timer setzen
  53:CYISR_Timer1_Interrupt.h ****     if (cnt_timer5000ms == 5000)
 2824              		.loc 10 53 0
 2825 0056 0A4B     		ldr	r3, .L128+8
 2826 0058 1B68     		ldr	r3, [r3]
 2827 005a 41F28832 		movw	r2, #5000
 2828 005e 9342     		cmp	r3, r2
 2829 0060 05D1     		bne	.L124
  54:CYISR_Timer1_Interrupt.h ****     {   
  55:CYISR_Timer1_Interrupt.h ****         // Zähler für diesen Counter zurücksetzen
  56:CYISR_Timer1_Interrupt.h ****         cnt_timer5000ms = 0;
 2830              		.loc 10 56 0
ARM GAS  C:\Users\LocalAdmin\AppData\Local\Temp\cchhZa3p.s 			page 72


 2831 0062 074B     		ldr	r3, .L128+8
 2832 0064 0022     		movs	r2, #0
 2833 0066 1A60     		str	r2, [r3]
  57:CYISR_Timer1_Interrupt.h ****         timerflag5000ms = 1;                      // globale Variable, die angibt, dass die Timerfu
 2834              		.loc 10 57 0
 2835 0068 094B     		ldr	r3, .L128+24
 2836 006a 0122     		movs	r2, #1
 2837 006c 1A70     		strb	r2, [r3]
 2838              	.L124:
  58:CYISR_Timer1_Interrupt.h **** 
  59:CYISR_Timer1_Interrupt.h ****     }    
  60:CYISR_Timer1_Interrupt.h **** }
 2839              		.loc 10 60 0
 2840 006e BD46     		mov	sp, r7
 2841              		.cfi_def_cfa_register 13
 2842              		@ sp needed
 2843 0070 5DF8047B 		ldr	r7, [sp], #4
 2844              		.cfi_restore 7
 2845              		.cfi_def_cfa_offset 0
 2846 0074 7047     		bx	lr
 2847              	.L129:
 2848 0076 00BF     		.align	2
 2849              	.L128:
 2850 0078 00000000 		.word	cnt_timer100ms
 2851 007c 00000000 		.word	cnt_timer1000ms
 2852 0080 00000000 		.word	cnt_timer5000ms
 2853 0084 00000000 		.word	new_pickup_initialized
 2854 0088 00000000 		.word	timerflag100ms
 2855 008c 00000000 		.word	timerflag1000ms
 2856 0090 00000000 		.word	timerflag5000ms
 2857              		.cfi_endproc
 2858              	.LFE86:
 2859              		.size	Timer1_Interrupt_Function, .-Timer1_Interrupt_Function
 2860              		.comm	FileNameCurrentLamellaFile,30,4
 2861              		.global	bool_NewLamellaFileNameSet
 2862              		.bss
 2863              		.align	2
 2864              		.type	bool_NewLamellaFileNameSet, %object
 2865              		.size	bool_NewLamellaFileNameSet, 4
 2866              	bool_NewLamellaFileNameSet:
 2867 0054 00000000 		.space	4
 2868              		.global	AllDataPointLoggerTimeLimit_s
 2869              		.section	.rodata
 2870 00f9 000000   		.align	2
 2871              		.type	AllDataPointLoggerTimeLimit_s, %object
 2872              		.size	AllDataPointLoggerTimeLimit_s, 4
 2873              	AllDataPointLoggerTimeLimit_s:
 2874 00fc 84030000 		.word	900
 2875              		.comm	FileNameLogger,4,4
 2876              		.align	2
 2877              	.LC18:
 2878 0100 252E3166 		.ascii	"%.1f,%d\012\000"
 2878      2C25640A 
 2878      00
 2879              		.section	.text.IntensityLogger_ONE_Channel,"ax",%progbits
 2880              		.align	2
 2881              		.global	IntensityLogger_ONE_Channel
ARM GAS  C:\Users\LocalAdmin\AppData\Local\Temp\cchhZa3p.s 			page 73


 2882              		.thumb
 2883              		.thumb_func
 2884              		.type	IntensityLogger_ONE_Channel, %function
 2885              	IntensityLogger_ONE_Channel:
 2886              	.LFB87:
 2887              		.file 11 "DataLogger.h"
   1:DataLogger.h  **** /* ========================================
   2:DataLogger.h  ****  *
   3:DataLogger.h  ****  * Copyright YOUR COMPANY, THE YEAR
   4:DataLogger.h  ****  * All Rights Reserved
   5:DataLogger.h  ****  * UNPUBLISHED, LICENSED SOFTWARE.
   6:DataLogger.h  ****  *
   7:DataLogger.h  ****  * CONFIDENTIAL AND PROPRIETARY INFORMATION
   8:DataLogger.h  ****  * WHICH IS THE PROPERTY OF your company.
   9:DataLogger.h  ****  *
  10:DataLogger.h  ****  * ========================================
  11:DataLogger.h  **** */
  12:DataLogger.h  **** 
  13:DataLogger.h  **** #include <project.h>
  14:DataLogger.h  **** #include <stdio.h>      // -> für "sprintf", etc.
  15:DataLogger.h  **** #include <FS.h>         // für Data-Handling über SD-Karte
  16:DataLogger.h  **** 
  17:DataLogger.h  **** char FileNameCurrentLamellaFile[30];    
  18:DataLogger.h  **** int bool_NewLamellaFileNameSet = 0;                 // Boolean, die angibt, ob der Name der Datei, 
  19:DataLogger.h  **** 
  20:DataLogger.h  **** const int AllDataPointLoggerTimeLimit_s = 900;      // Zeit unterhalb der jeder gemessen Datenpunkt
  21:DataLogger.h  **** 
  22:DataLogger.h  **** FS_FILE *FileNameLogger;                            // Pointer auf Datei, die gelogte Daten enthäl
  23:DataLogger.h  **** 
  24:DataLogger.h  **** //
  25:DataLogger.h  **** // Logger für Intensität aus einem Kanal
  26:DataLogger.h  **** //
  27:DataLogger.h  **** void IntensityLogger_ONE_Channel(int NumberOfEntry, int value)
  28:DataLogger.h  **** {
 2888              		.loc 11 28 0
 2889              		.cfi_startproc
 2890              		@ args = 0, pretend = 0, frame = 24
 2891              		@ frame_needed = 1, uses_anonymous_args = 0
 2892 0000 B0B5     		push	{r4, r5, r7, lr}
 2893              		.cfi_def_cfa_offset 16
 2894              		.cfi_offset 4, -16
 2895              		.cfi_offset 5, -12
 2896              		.cfi_offset 7, -8
 2897              		.cfi_offset 14, -4
 2898 0002 88B0     		sub	sp, sp, #32
 2899              		.cfi_def_cfa_offset 48
 2900 0004 02AF     		add	r7, sp, #8
 2901              		.cfi_def_cfa 7, 40
 2902 0006 7860     		str	r0, [r7, #4]
 2903 0008 3960     		str	r1, [r7]
  29:DataLogger.h  ****     char buffer_Lamella_nextline[10];               // Puffer für nächste zu schreibende Zeile
  30:DataLogger.h  ****     
  31:DataLogger.h  ****     //
  32:DataLogger.h  ****     // unterhalb der Grenzzeit wir jede gemessene Reflektivität geloggt
  33:DataLogger.h  ****     //
  34:DataLogger.h  ****     if  (NumberOfEntry <= (int)(AllDataPointLoggerTimeLimit_s*SampligCountsPerSecond))
 2904              		.loc 11 34 0
ARM GAS  C:\Users\LocalAdmin\AppData\Local\Temp\cchhZa3p.s 			page 74


 2905 000a 4FF46173 		mov	r3, #900
 2906 000e 0A22     		movs	r2, #10
 2907 0010 02FB03F2 		mul	r2, r2, r3
 2908 0014 7B68     		ldr	r3, [r7, #4]
 2909 0016 9A42     		cmp	r2, r3
 2910 0018 26DB     		blt	.L131
  35:DataLogger.h  ****     {        
  36:DataLogger.h  ****         // nächste Zeile in "buffer_Lamella_nextline" abspeichern
  37:DataLogger.h  ****         sprintf((char*)buffer_Lamella_nextline, "%.1f,%d\n", ((float)NumberOfEntry)/10, value);
 2911              		.loc 11 37 0
 2912 001a 7868     		ldr	r0, [r7, #4]
 2913 001c FFF7FEFF 		bl	__aeabi_i2f
 2914 0020 0346     		mov	r3, r0
 2915 0022 1846     		mov	r0, r3
 2916 0024 2949     		ldr	r1, .L133
 2917 0026 FFF7FEFF 		bl	__aeabi_fdiv
 2918 002a 0346     		mov	r3, r0
 2919 002c 1846     		mov	r0, r3
 2920 002e FFF7FEFF 		bl	__aeabi_f2d
 2921 0032 0446     		mov	r4, r0
 2922 0034 0D46     		mov	r5, r1
 2923 0036 07F10C02 		add	r2, r7, #12
 2924 003a 3B68     		ldr	r3, [r7]
 2925 003c 0093     		str	r3, [sp]
 2926 003e 1046     		mov	r0, r2
 2927 0040 2349     		ldr	r1, .L133+4
 2928 0042 2246     		mov	r2, r4
 2929 0044 2B46     		mov	r3, r5
 2930 0046 FFF7FEFF 		bl	sprintf
  38:DataLogger.h  ****         // gepufferte Zeile in Ergebnisdatei schreiben
  39:DataLogger.h  ****         if (0 != FS_Write(FileNameLogger, buffer_Lamella_nextline, strlen(buffer_Lamella_nextline))
 2931              		.loc 11 39 0
 2932 004a 224B     		ldr	r3, .L133+8
 2933 004c 1C68     		ldr	r4, [r3]
 2934 004e 07F10C03 		add	r3, r7, #12
 2935 0052 1846     		mov	r0, r3
 2936 0054 FFF7FEFF 		bl	strlen
 2937 0058 0246     		mov	r2, r0
 2938 005a 07F10C03 		add	r3, r7, #12
 2939 005e 2046     		mov	r0, r4
 2940 0060 1946     		mov	r1, r3
 2941 0062 FFF7FEFF 		bl	FS_Write
 2942 0066 2EE0     		b	.L130
 2943              	.L131:
  40:DataLogger.h  ****         {
  41:DataLogger.h  ****             // kein Fehler
  42:DataLogger.h  ****         } 
  43:DataLogger.h  ****         else
  44:DataLogger.h  ****         {
  45:DataLogger.h  ****             // Fehlerbehandlung
  46:DataLogger.h  ****         }
  47:DataLogger.h  ****     }
  48:DataLogger.h  ****     //
  49:DataLogger.h  ****     // --> hier alle "counter_Lamella_Logger_steps" = 1[s] mit Hilfe des Modulo-Operators (%) 
  50:DataLogger.h  ****     // Nach mehr als 900 [s] (= 15 Minuten) Lebenszeit Reflektivität nut noch jede Sekunde loggen 
  51:DataLogger.h  ****     //
  52:DataLogger.h  ****     else
ARM GAS  C:\Users\LocalAdmin\AppData\Local\Temp\cchhZa3p.s 			page 75


  53:DataLogger.h  ****     {
  54:DataLogger.h  ****         if (NumberOfEntry%SampligCountsPerSecond == 0)
 2944              		.loc 11 54 0
 2945 0068 0A22     		movs	r2, #10
 2946 006a 7B68     		ldr	r3, [r7, #4]
 2947 006c 93FBF2F1 		sdiv	r1, r3, r2
 2948 0070 02FB01F2 		mul	r2, r2, r1
 2949 0074 9B1A     		subs	r3, r3, r2
 2950 0076 002B     		cmp	r3, #0
 2951 0078 25D1     		bne	.L130
  55:DataLogger.h  ****         {
  56:DataLogger.h  ****             // nächste Zeile in "buffer_Lamella_nextline" abspeichern
  57:DataLogger.h  ****             sprintf((char*)buffer_Lamella_nextline, "%.1f,%d\n", ((float)NumberOfEntry)/10, value);
 2952              		.loc 11 57 0
 2953 007a 7868     		ldr	r0, [r7, #4]
 2954 007c FFF7FEFF 		bl	__aeabi_i2f
 2955 0080 0346     		mov	r3, r0
 2956 0082 1846     		mov	r0, r3
 2957 0084 1149     		ldr	r1, .L133
 2958 0086 FFF7FEFF 		bl	__aeabi_fdiv
 2959 008a 0346     		mov	r3, r0
 2960 008c 1846     		mov	r0, r3
 2961 008e FFF7FEFF 		bl	__aeabi_f2d
 2962 0092 0446     		mov	r4, r0
 2963 0094 0D46     		mov	r5, r1
 2964 0096 07F10C02 		add	r2, r7, #12
 2965 009a 3B68     		ldr	r3, [r7]
 2966 009c 0093     		str	r3, [sp]
 2967 009e 1046     		mov	r0, r2
 2968 00a0 0B49     		ldr	r1, .L133+4
 2969 00a2 2246     		mov	r2, r4
 2970 00a4 2B46     		mov	r3, r5
 2971 00a6 FFF7FEFF 		bl	sprintf
  58:DataLogger.h  ****             // gepufferte Zeile in Ergebnisdatei schreiben
  59:DataLogger.h  ****             if (0 != FS_Write(FileNameLogger, buffer_Lamella_nextline, strlen(buffer_Lamella_nextli
 2972              		.loc 11 59 0
 2973 00aa 0A4B     		ldr	r3, .L133+8
 2974 00ac 1C68     		ldr	r4, [r3]
 2975 00ae 07F10C03 		add	r3, r7, #12
 2976 00b2 1846     		mov	r0, r3
 2977 00b4 FFF7FEFF 		bl	strlen
 2978 00b8 0246     		mov	r2, r0
 2979 00ba 07F10C03 		add	r3, r7, #12
 2980 00be 2046     		mov	r0, r4
 2981 00c0 1946     		mov	r1, r3
 2982 00c2 FFF7FEFF 		bl	FS_Write
 2983              	.L130:
  60:DataLogger.h  ****             {
  61:DataLogger.h  ****                 // kein Fehler
  62:DataLogger.h  ****             } 
  63:DataLogger.h  ****             else
  64:DataLogger.h  ****             {
  65:DataLogger.h  ****                 // Fehlerbehandlung
  66:DataLogger.h  ****             }
  67:DataLogger.h  ****         }        
  68:DataLogger.h  ****     }
  69:DataLogger.h  **** }
ARM GAS  C:\Users\LocalAdmin\AppData\Local\Temp\cchhZa3p.s 			page 76


 2984              		.loc 11 69 0
 2985 00c6 1837     		adds	r7, r7, #24
 2986              		.cfi_def_cfa_offset 16
 2987 00c8 BD46     		mov	sp, r7
 2988              		.cfi_def_cfa_register 13
 2989              		@ sp needed
 2990 00ca B0BD     		pop	{r4, r5, r7, pc}
 2991              	.L134:
 2992              		.align	2
 2993              	.L133:
 2994 00cc 00002041 		.word	1092616192
 2995 00d0 00010000 		.word	.LC18
 2996 00d4 00000000 		.word	FileNameLogger
 2997              		.cfi_endproc
 2998              	.LFE87:
 2999              		.size	IntensityLogger_ONE_Channel, .-IntensityLogger_ONE_Channel
 3000              		.section	.text.CloseLoggerFile,"ax",%progbits
 3001              		.align	2
 3002              		.global	CloseLoggerFile
 3003              		.thumb
 3004              		.thumb_func
 3005              		.type	CloseLoggerFile, %function
 3006              	CloseLoggerFile:
 3007              	.LFB88:
  70:DataLogger.h  **** 
  71:DataLogger.h  **** 
  72:DataLogger.h  **** //
  73:DataLogger.h  **** // Logger-Datei schliessen
  74:DataLogger.h  **** //
  75:DataLogger.h  **** void CloseLoggerFile (void)
  76:DataLogger.h  **** {
 3008              		.loc 11 76 0
 3009              		.cfi_startproc
 3010              		@ args = 0, pretend = 0, frame = 0
 3011              		@ frame_needed = 1, uses_anonymous_args = 0
 3012 0000 80B5     		push	{r7, lr}
 3013              		.cfi_def_cfa_offset 8
 3014              		.cfi_offset 7, -8
 3015              		.cfi_offset 14, -4
 3016 0002 00AF     		add	r7, sp, #0
 3017              		.cfi_def_cfa_register 7
  77:DataLogger.h  ****     // Schliessen der Datei, in die geschrieben wurde
  78:DataLogger.h  ****     if(0 == FS_FClose(FileNameLogger))
 3018              		.loc 11 78 0
 3019 0004 054B     		ldr	r3, .L137
 3020 0006 1B68     		ldr	r3, [r3]
 3021 0008 1846     		mov	r0, r3
 3022 000a FFF7FEFF 		bl	FS_FClose
 3023 000e 0346     		mov	r3, r0
 3024 0010 002B     		cmp	r3, #0
 3025 0012 02D1     		bne	.L135
  79:DataLogger.h  ****     {
  80:DataLogger.h  ****         // alles ok
  81:DataLogger.h  ****         CyDelay(200);
 3026              		.loc 11 81 0
 3027 0014 C820     		movs	r0, #200
 3028 0016 FFF7FEFF 		bl	CyDelay
ARM GAS  C:\Users\LocalAdmin\AppData\Local\Temp\cchhZa3p.s 			page 77


 3029              	.L135:
  82:DataLogger.h  ****     }
  83:DataLogger.h  ****     else
  84:DataLogger.h  ****     {
  85:DataLogger.h  ****         // Fehler -> "Fehler beim Schliessen"
  86:DataLogger.h  **** //        UART_TFT_PutString((char*)"t_line.txt=ERR on C.");
  87:DataLogger.h  **** //        // Ende der Eingabe markieren
  88:DataLogger.h  **** //        UART_TFT_PutChar(0xff);
  89:DataLogger.h  **** //        UART_TFT_PutChar(0xff);
  90:DataLogger.h  **** //        UART_TFT_PutChar(0xff);
  91:DataLogger.h  ****     } 
  92:DataLogger.h  **** }
 3030              		.loc 11 92 0
 3031 001a 80BD     		pop	{r7, pc}
 3032              	.L138:
 3033              		.align	2
 3034              	.L137:
 3035 001c 00000000 		.word	FileNameLogger
 3036              		.cfi_endproc
 3037              	.LFE88:
 3038              		.size	CloseLoggerFile, .-CloseLoggerFile
 3039              		.comm	Bin_Number,120,4
 3040              		.comm	Bin_Lifetime_Probability,120,4
 3041              		.section	.text.VFDClearDisplay,"ax",%progbits
 3042              		.align	2
 3043              		.global	VFDClearDisplay
 3044              		.thumb
 3045              		.thumb_func
 3046              		.type	VFDClearDisplay, %function
 3047              	VFDClearDisplay:
 3048              	.LFB89:
 3049              		.file 12 "main.c"
   1:main.c        **** /* ========================================
   2:main.c        ****  *
   3:main.c        ****  * Copyright YOUR COMPANY, THE YEAR
   4:main.c        ****  * All Rights Reserved
   5:main.c        ****  * UNPUBLISHED, LICENSED SOFTWARE.
   6:main.c        ****  *
   7:main.c        ****  * CONFIDENTIAL AND PROPRIETARY INFORMATION
   8:main.c        ****  * WHICH IS THE PROPERTY OF your company.
   9:main.c        ****  *
  10:main.c        **** https://www.segger.com/downloads/emfile/UM02001_emFile.pdf
  11:main.c        **** 
  12:main.c        **** */
  13:main.c        **** #include <project.h>
  14:main.c        **** #include <float.h>
  15:main.c        **** #include <stdio.h>
  16:main.c        **** #include <stdlib.h>
  17:main.c        **** #include <math.h>
  18:main.c        **** #include <FS.h>
  19:main.c        **** #include <string.h>
  20:main.c        **** 
  21:main.c        **** #define InitLED_ON Pin_LED_Write(1)
  22:main.c        **** #define InitLED_OFF Pin_LED_Write(0)
  23:main.c        **** 
  24:main.c        **** volatile int NumberOfMeasurements = 0;          // Anzahl durchzuführender Messungen als globale V
  25:main.c        **** 
ARM GAS  C:\Users\LocalAdmin\AppData\Local\Temp\cchhZa3p.s 			page 78


  26:main.c        **** int ADC_value;                                  // letzter Messwert des ADC
  27:main.c        **** volatile int Number[1000];                      // Ergebnisarray für Nummer der Messung
  28:main.c        **** volatile int Lifetime[1000];                    // Ergebnisarray für Lebenszeit der jewiligen Lame
  29:main.c        **** 
  30:main.c        **** volatile int Lifetime_max = 0;                  // Maximale Lebenszeit
  31:main.c        **** 
  32:main.c        **** volatile char menustate = 0;                    // Momentaner Menüstand als globale Variable defin
  33:main.c        **** 
  34:main.c        **** volatile char RX_Buffer[4];                     // Array aus 4 Bytes, das den Wert des Sliders enth
  35:main.c        **** 
  36:main.c        **** volatile int counter_Timer1_steps = 0;          // Zähler für Durchläufe der Timerfuktion 
  37:main.c        **** volatile int counter_Lamella_Number = 0;        // Zähler für die Anzahl der zu betrachtenden Lam
  38:main.c        **** 
  39:main.c        **** //const int Lamella_Relaxation_Time_s = 1;        // Zeit, die der Lamelle gegeben wird, bis sich k
  40:main.c        **** int counter_Lamella_Relaxation_steps;           // "Gnadenfrist" in timer Steps 
  41:main.c        **** //const int Maximum_Lamella_Time_h = 1;           // Maximal "erlaubte" Lebenszeit einer Lamelle in
  42:main.c        **** int counter_Maximum_Lamella_Time_steps;         // Maximal "erlaubte" Lebenszeit in steps
  43:main.c        **** //const int Rupture_Confirmation_Time_s = 1;      // Zeit, die das Signal, den Grenzwert unterschre
  44:main.c        **** int counter_Rupture_Confirmation_Target;        // Target-Counts, die Signal unter dem Grenzwert bl
  45:main.c        **** int counter_Rupture_Confirmation = 0;           // Momentaner Zählerstand der Unterschreitungen de
  46:main.c        **** int bool_Rupture_Confirmed = 0;                 // Bool, die angibt, ob die aktuelle Lamelle als ge
  47:main.c        **** 
  48:main.c        **** int WidthOfBin;                                 // Breite einer "Bin" für Darstellung auf Seite "S
  49:main.c        **** 
  50:main.c        **** volatile char timerflag100ms = 0;               // Flag für 100ms Timer
  51:main.c        **** volatile char timerflag1000ms = 0;              // Falg für 1000ms Timer
  52:main.c        **** volatile char timerflag5000ms = 0;              // Falg für 1000ms Timer
  53:main.c        **** 
  54:main.c        **** volatile int cnt_timer100ms =0;                 // Counter für 100ms Takt
  55:main.c        **** volatile int cnt_timer1000ms =0;                // Counter für 1000ms Takt
  56:main.c        **** volatile int cnt_timer5000ms =0;                // Counter für 5000ms Takt
  57:main.c        **** 
  58:main.c        **** volatile char slider_ready = 0;                         // Boolean, die angibt, ob Slider bereit is
  59:main.c        **** volatile char Measurement_running = 0;                  // Boolean, die angibt, ob bereits eine Mes
  60:main.c        **** int present_Result_saved = 0;                           // Boolean, die angibt, ob zuletzt gemessen
  61:main.c        **** volatile char new_pickup_initialized = 0;               // Boolean, die angibt, dass gerade eine ne
  62:main.c        **** volatile char slider_val_sent = 0;                      // Boolean für Abfrage, ob Slider-Wert ang
  63:main.c        **** volatile char slider_val_received = 0;                  // Boolean für Abfrage, ob Slider-Wert aus
  64:main.c        **** volatile int present_LiveData_plot_refreshed = 0;       // Boolean, die angibt, ob in der momentane
  65:main.c        **** volatile int current_RescaledData_plot_refreshed = 0;   // Boolean, die angibt, ob in der momentane
  66:main.c        **** volatile int STI100_writing = 0;                        // Boolean, die angibt, ob gerade Daten auf
  67:main.c        **** volatile int STI100_write_requested = 0;                // Boolean, die angibt, ob Anfrage auf Schr
  68:main.c        **** volatile int STI100_present_results_saved = 0;          // Boolean, die angibt, dass die zuletzt ge
  69:main.c        **** 
  70:main.c        **** char num_str[20];                               // Hilfvariable, die transformierte Zahl als String
  71:main.c        **** unsigned char *NameOfValuebox;                  // Name der Valuebox für Übertragung neuer Werte
  72:main.c        **** 
  73:main.c        **** int i=0;                                        // Laufvariable
  74:main.c        **** int j=0;                                        // Laufvariable
  75:main.c        **** 
  76:main.c        **** volatile int plot_every_nth = 1;                // gibt an, wie viele Punkt beim Plotten ausgelasse
  77:main.c        **** 
  78:main.c        **** const int Lamella_Logger_Time_s = 1;            // gibt an, in welchen Abständen der Wert des refl
  79:main.c        **** int counter_Lamella_Logger_steps;               // Steps, nach denen Zahlenwert in die .lam Datei g
  80:main.c        **** 
  81:main.c        **** #include "Measurement_Parameters.h"
  82:main.c        **** #include "Laser_Control.h"                      // Funktionen zum Ansteuern des Lasers
ARM GAS  C:\Users\LocalAdmin\AppData\Local\Temp\cchhZa3p.s 			page 79


  83:main.c        **** #include "StepperMotor_Control.h"               // Funktionen zum Ansteuern des Schrittmotors
  84:main.c        **** #include "NextionLCD_PlotParameters.h"          // Parameter für Plots
  85:main.c        **** #include "NextionLCD_Communication.h"           // Funktionen für Kommunikation mit dem LCD-Displa
  86:main.c        **** #include "NextionLCD_PlotLiveData.h"            // Funktionen für Plots im Fenster "LiveData"
  87:main.c        **** #include "NextionLCD_PlotScaledData.h"          // Funktionen für Plots im Fenster "ScaledData"
  88:main.c        **** #include "NextionLCD_PlotSettings.h"            // Funktionen für Plots im Fenster "Settings"
  89:main.c        **** #include "Photodiode_Data.h"                    // Funktionen zum Auslesen der Werte der Photodiode
  90:main.c        **** #include "Measurement_Setup.h"                  // Setup der Messung
  91:main.c        **** #include "CY_ISR_Interrupt.h"                   // Interrupt-Funktion zum Einlesen der Slider-Werte
  92:main.c        **** #include "CYISR_Timer1_Interrupt.h"             // Timerfunktion von Timer1
  93:main.c        **** #include "DataLogger.h"                         // Loggen der ADC-Werte
  94:main.c        ****     
  95:main.c        **** float Bin_Number[NumberOfBins];                 // Arrays für Wahrscheinlichkeiten definieren; Dar
  96:main.c        **** float Bin_Lifetime_Probability[NumberOfBins];   // Arrays für Wahrscheinlichkeiten definieren; Dar
  97:main.c        **** 
  98:main.c        **** 
  99:main.c        **** // Soft UART Display Routinen
 100:main.c        **** // Display löschen
 101:main.c        **** void VFDClearDisplay()
 102:main.c        **** {
 3050              		.loc 12 102 0
 3051              		.cfi_startproc
 3052              		@ args = 0, pretend = 0, frame = 0
 3053              		@ frame_needed = 1, uses_anonymous_args = 0
 3054 0000 80B5     		push	{r7, lr}
 3055              		.cfi_def_cfa_offset 8
 3056              		.cfi_offset 7, -8
 3057              		.cfi_offset 14, -4
 3058 0002 00AF     		add	r7, sp, #0
 3059              		.cfi_def_cfa_register 7
 103:main.c        ****             SW_Tx_UART_1_PutChar(0x0E);
 3060              		.loc 12 103 0
 3061 0004 0E20     		movs	r0, #14
 3062 0006 FFF7FEFF 		bl	SW_Tx_UART_1_PutChar
 104:main.c        ****             CyDelay(2);
 3063              		.loc 12 104 0
 3064 000a 0220     		movs	r0, #2
 3065 000c FFF7FEFF 		bl	CyDelay
 105:main.c        ****             SW_Tx_UART_1_PutChar(0x0C);
 3066              		.loc 12 105 0
 3067 0010 0C20     		movs	r0, #12
 3068 0012 FFF7FEFF 		bl	SW_Tx_UART_1_PutChar
 106:main.c        **** }
 3069              		.loc 12 106 0
 3070 0016 80BD     		pop	{r7, pc}
 3071              		.cfi_endproc
 3072              	.LFE89:
 3073              		.size	VFDClearDisplay, .-VFDClearDisplay
 3074              		.section	.text.VFDHome,"ax",%progbits
 3075              		.align	2
 3076              		.global	VFDHome
 3077              		.thumb
 3078              		.thumb_func
 3079              		.type	VFDHome, %function
 3080              	VFDHome:
 3081              	.LFB90:
 107:main.c        **** 
ARM GAS  C:\Users\LocalAdmin\AppData\Local\Temp\cchhZa3p.s 			page 80


 108:main.c        **** // Cursor in Home Position
 109:main.c        **** void VFDHome()
 110:main.c        **** {
 3082              		.loc 12 110 0
 3083              		.cfi_startproc
 3084              		@ args = 0, pretend = 0, frame = 0
 3085              		@ frame_needed = 1, uses_anonymous_args = 0
 3086 0000 80B5     		push	{r7, lr}
 3087              		.cfi_def_cfa_offset 8
 3088              		.cfi_offset 7, -8
 3089              		.cfi_offset 14, -4
 3090 0002 00AF     		add	r7, sp, #0
 3091              		.cfi_def_cfa_register 7
 111:main.c        ****             SW_Tx_UART_1_PutChar(0x0C);
 3092              		.loc 12 111 0
 3093 0004 0C20     		movs	r0, #12
 3094 0006 FFF7FEFF 		bl	SW_Tx_UART_1_PutChar
 112:main.c        **** }
 3095              		.loc 12 112 0
 3096 000a 80BD     		pop	{r7, pc}
 3097              		.cfi_endproc
 3098              	.LFE90:
 3099              		.size	VFDHome, .-VFDHome
 3100              		.section	.text.VFDCursorOff,"ax",%progbits
 3101              		.align	2
 3102              		.global	VFDCursorOff
 3103              		.thumb
 3104              		.thumb_func
 3105              		.type	VFDCursorOff, %function
 3106              	VFDCursorOff:
 3107              	.LFB91:
 113:main.c        **** 
 114:main.c        **** // Cursor in Home Position
 115:main.c        **** void VFDCursorOff()
 116:main.c        **** {
 3108              		.loc 12 116 0
 3109              		.cfi_startproc
 3110              		@ args = 0, pretend = 0, frame = 0
 3111              		@ frame_needed = 1, uses_anonymous_args = 0
 3112 0000 80B5     		push	{r7, lr}
 3113              		.cfi_def_cfa_offset 8
 3114              		.cfi_offset 7, -8
 3115              		.cfi_offset 14, -4
 3116 0002 00AF     		add	r7, sp, #0
 3117              		.cfi_def_cfa_register 7
 117:main.c        ****             SW_Tx_UART_1_PutChar(0x16);
 3118              		.loc 12 117 0
 3119 0004 1620     		movs	r0, #22
 3120 0006 FFF7FEFF 		bl	SW_Tx_UART_1_PutChar
 118:main.c        **** }
 3121              		.loc 12 118 0
 3122 000a 80BD     		pop	{r7, pc}
 3123              		.cfi_endproc
 3124              	.LFE91:
 3125              		.size	VFDCursorOff, .-VFDCursorOff
 3126              		.section	.rodata
 3127 0109 000000   		.align	2
ARM GAS  C:\Users\LocalAdmin\AppData\Local\Temp\cchhZa3p.s 			page 81


 3128              	.LC19:
 3129 010c 53746172 		.ascii	"Start ....\000"
 3129      74202E2E 
 3129      2E2E00
 3130 0117 00       		.align	2
 3131              	.LC20:
 3132 0118 25642D25 		.ascii	"%d-%d.lam\000"
 3132      642E6C61 
 3132      6D00
 3133 0122 0000     		.align	2
 3134              	.LC21:
 3135 0124 74302E74 		.ascii	"t0.txt=\"\000"
 3135      78743D22 
 3135      00
 3136 012d 000000   		.align	2
 3137              	.LC22:
 3138 0130 7700     		.ascii	"w\000"
 3139 0132 0000     		.align	2
 3140              	.LC23:
 3141 0134 72656620 		.ascii	"ref LiveData\000"
 3141      4C697665 
 3141      44617461 
 3141      00
 3142 0141 000000   		.align	2
 3143              	.LC24:
 3144 0144 72656620 		.ascii	"ref ScaledData\000"
 3144      5363616C 
 3144      65644461 
 3144      746100
 3145 0153 00       		.align	2
 3146              	.LC25:
 3147 0154 625F6D65 		.ascii	"b_measure.txt=\"Start Measurement\"\000"
 3147      61737572 
 3147      652E7478 
 3147      743D2253 
 3147      74617274 
 3148 0176 0000     		.align	2
 3149              	.LC26:
 3150 0178 625F6D65 		.ascii	"b_measure.bco=1024\000"
 3150      61737572 
 3150      652E6263 
 3150      6F3D3130 
 3150      323400
 3151 018b 00       		.align	2
 3152              	.LC27:
 3153 018c 72656620 		.ascii	"ref Home\000"
 3153      486F6D65 
 3153      00
 3154 0195 000000   		.align	2
 3155              	.LC28:
 3156 0198 76697320 		.ascii	"vis slider,1\000"
 3156      736C6964 
 3156      65722C31 
 3156      00
 3157 01a5 000000   		.align	2
 3158              	.LC29:
 3159 01a8 70616765 		.ascii	"page Export\000"
ARM GAS  C:\Users\LocalAdmin\AppData\Local\Temp\cchhZa3p.s 			page 82


 3159      20457870 
 3159      6F727400 
 3160              		.align	2
 3161              	.LC30:
 3162 01b4 796D6178 		.ascii	"ymax_LiveData.val=\000"
 3162      5F4C6976 
 3162      65446174 
 3162      612E7661 
 3162      6C3D00
 3163 01c7 00       		.align	2
 3164              	.LC31:
 3165 01c8 786D6178 		.ascii	"xmax_LiveData.val=\000"
 3165      5F4C6976 
 3165      65446174 
 3165      612E7661 
 3165      6C3D00
 3166 01db 00       		.align	2
 3167              	.LC32:
 3168 01dc 786D6178 		.ascii	"xmax_Scaled.val=\000"
 3168      5F536361 
 3168      6C65642E 
 3168      76616C3D 
 3168      00
 3169              		.global	__aeabi_dcmple
 3170 01ed 000000   		.align	2
 3171              	.LC33:
 3172 01f0 4E722D25 		.ascii	"Nr-%04d.txt\000"
 3172      3034642E 
 3172      74787400 
 3173              		.align	2
 3174              	.LC35:
 3175 01fc 25303464 		.ascii	"%04d,%0.1f\012\000"
 3175      2C25302E 
 3175      31660A00 
 3176              		.align	2
 3177              	.LC36:
 3178 0208 6E6F5F73 		.ascii	"no_save.val=\000"
 3178      6176652E 
 3178      76616C3D 
 3178      00
 3179 0215 000000   		.align	2
 3180              	.LC34:
 3181 0218 4E6F4D65 		.ascii	"NoMeasurement_au,LifeTime_s\012\000"
 3181      61737572 
 3181      656D656E 
 3181      745F6175 
 3181      2C4C6966 
 3182              		.section	.text.main,"ax",%progbits
 3183              		.align	2
 3184              		.global	main
 3185              		.thumb
 3186              		.thumb_func
 3187              		.type	main, %function
 3188              	main:
 3189              	.LFB92:
 119:main.c        **** 
 120:main.c        **** 
ARM GAS  C:\Users\LocalAdmin\AppData\Local\Temp\cchhZa3p.s 			page 83


 121:main.c        **** int main()
 122:main.c        **** {
 3190              		.loc 12 122 0
 3191              		.cfi_startproc
 3192              		@ args = 0, pretend = 0, frame = 128
 3193              		@ frame_needed = 1, uses_anonymous_args = 0
 3194 0000 2DE9B043 		push	{r4, r5, r7, r8, r9, lr}
 3195              		.cfi_def_cfa_offset 24
 3196              		.cfi_offset 4, -24
 3197              		.cfi_offset 5, -20
 3198              		.cfi_offset 7, -16
 3199              		.cfi_offset 8, -12
 3200              		.cfi_offset 9, -8
 3201              		.cfi_offset 14, -4
 3202 0004 A2B0     		sub	sp, sp, #136
 3203              		.cfi_def_cfa_offset 160
 3204 0006 02AF     		add	r7, sp, #8
 3205              		.cfi_def_cfa 7, 152
 123:main.c        ****     // INITIALISLISIERUNG 
 124:main.c        ****     
 125:main.c        ****     // char str[80];
 126:main.c        **** 
 127:main.c        ****     // sprintf(str, "Value of Pi = %f", M_PI);
 128:main.c        ****     // puts(str);
 129:main.c        ****     
 130:main.c        ****     // Enable global interrupts -> wichtig: sonst keine Interaktion Touchscreen <-> PSOC
 131:main.c        ****     CyGlobalIntEnable; 
 3206              		.loc 12 131 0
 3207              	@ 131 "main.c" 1
 3208 0008 62B6     		CPSIE   i
 3209              	@ 0 "" 2
 132:main.c        **** 
 133:main.c        ****     // Status-LED an Pin 2.1 an -> zeigt, dass Initialisierung gestartet
 134:main.c        ****     InitLED_ON;
 3210              		.loc 12 134 0
 3211              		.thumb
 3212 000a 0120     		movs	r0, #1
 3213 000c FFF7FEFF 		bl	Pin_LED_Write
 135:main.c        ****     
 136:main.c        ****     // Stewpper und Laser Test
 137:main.c        ****     // TestRotationMove(900);
 138:main.c        ****     
 139:main.c        ****         /* Start the TIA component */
 140:main.c        ****     TIA_1_Start();
 3214              		.loc 12 140 0
 3215 0010 FFF7FEFF 		bl	TIA_1_Start
 141:main.c        ****     /* Set the Resistive feedback to 40k ohms */
 142:main.c        ****     // TIA_1_SetResFB(TIA_1_RES_FEEDBACK_40K);
 143:main.c        ****     /* Set the capacitive feedback to 3.3pF */
 144:main.c        ****     // TIA_1_SetCapFB(TIA_1_CAP_FEEDBACK_3_3PF);
 145:main.c        ****     // Ergebnisarray initialisieren;
 146:main.c        ****     
 147:main.c        ****     PGA_Photo_Start();
 3216              		.loc 12 147 0
 3217 0014 FFF7FEFF 		bl	PGA_Photo_Start
 148:main.c        ****     
 149:main.c        ****     SW_Tx_UART_1_Start();
ARM GAS  C:\Users\LocalAdmin\AppData\Local\Temp\cchhZa3p.s 			page 84


 3218              		.loc 12 149 0
 3219 0018 FFF7FEFF 		bl	SW_Tx_UART_1_Start
 150:main.c        ****     
 151:main.c        ****     VFDClearDisplay();
 3220              		.loc 12 151 0
 3221 001c FFF7FEFF 		bl	VFDClearDisplay
 152:main.c        ****     VFDCursorOff();
 3222              		.loc 12 152 0
 3223 0020 FFF7FEFF 		bl	VFDCursorOff
 153:main.c        ****     VFDHome();
 3224              		.loc 12 153 0
 3225 0024 FFF7FEFF 		bl	VFDHome
 154:main.c        ****     
 155:main.c        ****     SW_Tx_UART_1_PutString("Start ....");
 3226              		.loc 12 155 0
 3227 0028 AB48     		ldr	r0, .L196
 3228 002a FFF7FEFF 		bl	SW_Tx_UART_1_PutString
 156:main.c        ****     
 157:main.c        ****     for (i=0;i<1000;i++)
 3229              		.loc 12 157 0
 3230 002e AB4B     		ldr	r3, .L196+4
 3231 0030 0022     		movs	r2, #0
 3232 0032 1A60     		str	r2, [r3]
 3233 0034 10E0     		b	.L143
 3234              	.L144:
 158:main.c        ****     {
 159:main.c        ****         Number[i] = 0;
 3235              		.loc 12 159 0 discriminator 3
 3236 0036 A94B     		ldr	r3, .L196+4
 3237 0038 1B68     		ldr	r3, [r3]
 3238 003a A94A     		ldr	r2, .L196+8
 3239 003c 0021     		movs	r1, #0
 3240 003e 42F82310 		str	r1, [r2, r3, lsl #2]
 160:main.c        ****         Lifetime[i]= 0;
 3241              		.loc 12 160 0 discriminator 3
 3242 0042 A64B     		ldr	r3, .L196+4
 3243 0044 1B68     		ldr	r3, [r3]
 3244 0046 A74A     		ldr	r2, .L196+12
 3245 0048 0021     		movs	r1, #0
 3246 004a 42F82310 		str	r1, [r2, r3, lsl #2]
 157:main.c        ****     {
 3247              		.loc 12 157 0 discriminator 3
 3248 004e A34B     		ldr	r3, .L196+4
 3249 0050 1B68     		ldr	r3, [r3]
 3250 0052 0133     		adds	r3, r3, #1
 3251 0054 A14A     		ldr	r2, .L196+4
 3252 0056 1360     		str	r3, [r2]
 3253              	.L143:
 157:main.c        ****     {
 3254              		.loc 12 157 0 is_stmt 0 discriminator 1
 3255 0058 A04B     		ldr	r3, .L196+4
 3256 005a 1B68     		ldr	r3, [r3]
 3257 005c B3F57A7F 		cmp	r3, #1000
 3258 0060 E9DB     		blt	.L144
 161:main.c        ****     }
 162:main.c        ****     
 163:main.c        ****     // Wahrscheinlichkeitsarray initialisieren
ARM GAS  C:\Users\LocalAdmin\AppData\Local\Temp\cchhZa3p.s 			page 85


 164:main.c        ****     for (i=0;i<NumberOfBins;i++)
 3259              		.loc 12 164 0 is_stmt 1
 3260 0062 9E4B     		ldr	r3, .L196+4
 3261 0064 0022     		movs	r2, #0
 3262 0066 1A60     		str	r2, [r3]
 3263 0068 17E0     		b	.L145
 3264              	.L146:
 165:main.c        ****     {
 166:main.c        ****         Bin_Number[i] = i+1;
 3265              		.loc 12 166 0 discriminator 3
 3266 006a 9C4B     		ldr	r3, .L196+4
 3267 006c 1C68     		ldr	r4, [r3]
 3268 006e 9B4B     		ldr	r3, .L196+4
 3269 0070 1B68     		ldr	r3, [r3]
 3270 0072 0133     		adds	r3, r3, #1
 3271 0074 1846     		mov	r0, r3
 3272 0076 FFF7FEFF 		bl	__aeabi_i2f
 3273 007a 0246     		mov	r2, r0
 3274 007c 9A4B     		ldr	r3, .L196+16
 3275 007e 43F82420 		str	r2, [r3, r4, lsl #2]	@ float
 167:main.c        ****         Bin_Lifetime_Probability[i]= 0;
 3276              		.loc 12 167 0 discriminator 3
 3277 0082 964B     		ldr	r3, .L196+4
 3278 0084 1B68     		ldr	r3, [r3]
 3279 0086 994A     		ldr	r2, .L196+20
 3280 0088 4FF00001 		mov	r1, #0
 3281 008c 42F82310 		str	r1, [r2, r3, lsl #2]	@ float
 164:main.c        ****     {
 3282              		.loc 12 164 0 discriminator 3
 3283 0090 924B     		ldr	r3, .L196+4
 3284 0092 1B68     		ldr	r3, [r3]
 3285 0094 0133     		adds	r3, r3, #1
 3286 0096 914A     		ldr	r2, .L196+4
 3287 0098 1360     		str	r3, [r2]
 3288              	.L145:
 164:main.c        ****     {
 3289              		.loc 12 164 0 is_stmt 0 discriminator 1
 3290 009a 904B     		ldr	r3, .L196+4
 3291 009c 1B68     		ldr	r3, [r3]
 3292 009e 1D2B     		cmp	r3, #29
 3293 00a0 E3DD     		ble	.L146
 168:main.c        ****     }
 169:main.c        ****     
 170:main.c        ****     //// Counter für Experiment-Nummer nach neuer Programmierung bei "1" starten lassen
 171:main.c        ****     //static const uint8 CYCODE eepromArray[]= { 0x00, 0x00, 0x00, 0x01 };
 172:main.c        ****     // Counter für Experiment-Nummer nach neuer Programmierung bei "0" starten lassen
 173:main.c        ****     static const uint8 CYCODE eepromArray[]= { 0x00, 0x00, 0x00, 0x00 };
 174:main.c        **** 
 175:main.c        ****     // Counter für EEMPROM als uint8 definieren
 176:main.c        ****     uint8 eeprom_cnt;
 177:main.c        ****     // status als Vauriable der Klasse cystatus definieren = Rückgabewert von EEPROM_Write()
 178:main.c        ****     cystatus status;
 179:main.c        ****     // pointer "ptr" definieren
 180:main.c        ****     volatile const uint8 *ptr;
 181:main.c        ****     
 182:main.c        ****     // EEPROM starten
 183:main.c        ****     Emul_EEPROM_Start();
ARM GAS  C:\Users\LocalAdmin\AppData\Local\Temp\cchhZa3p.s 			page 86


 3294              		.loc 12 183 0 is_stmt 1
 3295 00a2 FFF7FEFF 		bl	Emul_EEPROM_Start
 184:main.c        **** 
 185:main.c        ****    
 186:main.c        ****     /* Initialize file system */
 187:main.c        ****     FS_Init();
 3296              		.loc 12 187 0
 3297 00a6 FFF7FEFF 		bl	FS_Init
 188:main.c        ****     
 189:main.c        ****     // Nextion TFT Initialisieren und "Home" als Startseite anzeigen
 190:main.c        ****     Init_NextionTFT();
 3298              		.loc 12 190 0
 3299 00aa FFF7FEFF 		bl	Init_NextionTFT
 191:main.c        **** 
 192:main.c        ****     // Interrupt-Funktion für UART_TFT starten bzw. dem Interrupt eine Funktion zuweisen
 193:main.c        ****     Interr_TFT_StartEx(UART_TFT_InterruptFunction);
 3300              		.loc 12 193 0
 3301 00ae 9048     		ldr	r0, .L196+24
 3302 00b0 FFF7FEFF 		bl	Interr_TFT_StartEx
 194:main.c        ****     // Interrupt von Timer1, also "Timer1_Function" mit "seiner" mit Funktion,"Timer1_Interrupt_Fun
 195:main.c        ****     Timer1_Function_StartEx(Timer1_Interrupt_Function);
 3303              		.loc 12 195 0
 3304 00b4 8F48     		ldr	r0, .L196+28
 3305 00b6 FFF7FEFF 		bl	Timer1_Function_StartEx
 196:main.c        **** 
 197:main.c        ****     // Timer starten
 198:main.c        ****     Timer1_Start();
 3306              		.loc 12 198 0
 3307 00ba FFF7FEFF 		bl	Timer1_Start
 199:main.c        ****     
 200:main.c        ****     // ADC bzw. Analog-Digital-Konverter Initialisieren
 201:main.c        ****     Analog_Digital_Converter_Start();
 3308              		.loc 12 201 0
 3309 00be FFF7FEFF 		bl	Analog_Digital_Converter_Start
 202:main.c        ****     Analog_Digital_Converter_StartConvert();
 3310              		.loc 12 202 0
 3311 00c2 FFF7FEFF 		bl	Analog_Digital_Converter_StartConvert
 203:main.c        ****    
 204:main.c        **** //    // Starten des USB-Interface
 205:main.c        **** //    USBUART_PC_Start(0,USBUART_PC_5V_OPERATION);    
 206:main.c        **** //    // Konfiguration vom PC lesen
 207:main.c        **** //    while(USBUART_PC_GetConfiguration() == 0);    
 208:main.c        **** //    // Initialisierung des CDC-Kommunkations-Interface
 209:main.c        **** //    USBUART_PC_CDC_Init();
 210:main.c        ****     // Initialisierung des UART für Memory-Stick
 211:main.c        ****     //UART_Memory_Start();
 212:main.c        ****     
 213:main.c        ****     // Test-LEDs
 214:main.c        ****     LED_slider_val_sent_Write(slider_val_sent);
 3312              		.loc 12 214 0
 3313 00c6 8C4B     		ldr	r3, .L196+32
 3314 00c8 1B78     		ldrb	r3, [r3]
 3315 00ca DBB2     		uxtb	r3, r3
 3316 00cc 1846     		mov	r0, r3
 3317 00ce FFF7FEFF 		bl	LED_slider_val_sent_Write
 215:main.c        ****     LED_slider_val_received_Write(slider_val_received);
 3318              		.loc 12 215 0
ARM GAS  C:\Users\LocalAdmin\AppData\Local\Temp\cchhZa3p.s 			page 87


 3319 00d2 8A4B     		ldr	r3, .L196+36
 3320 00d4 1B78     		ldrb	r3, [r3]
 3321 00d6 DBB2     		uxtb	r3, r3
 3322 00d8 1846     		mov	r0, r3
 3323 00da FFF7FEFF 		bl	LED_slider_val_received_Write
 216:main.c        ****     LED_Measurement_running_Write(1);    
 3324              		.loc 12 216 0
 3325 00de 0120     		movs	r0, #1
 3326 00e0 FFF7FEFF 		bl	LED_Measurement_running_Write
 217:main.c        ****     
 218:main.c        ****     UART_TFT_PutString((char*)"page Home");
 3327              		.loc 12 218 0
 3328 00e4 8648     		ldr	r0, .L196+40
 3329 00e6 FFF7FEFF 		bl	UART_TFT_PutString
 219:main.c        ****     
 220:main.c        ****     CyDelay(300);
 3330              		.loc 12 220 0
 3331 00ea 4FF49670 		mov	r0, #300
 3332 00ee FFF7FEFF 		bl	CyDelay
 221:main.c        ****         
 222:main.c        ****     // Status-LED an Pin 2.1 aus -> zeigt, dass Initialisierung beendet
 223:main.c        ****     InitLED_OFF; 
 3333              		.loc 12 223 0
 3334 00f2 0020     		movs	r0, #0
 3335 00f4 FFF7FEFF 		bl	Pin_LED_Write
 224:main.c        ****     // MoveToHomePosition(); 
 225:main.c        **** 
 226:main.c        ****     // Dummy-Messergenisse für Testphase (Schreiben auf SD-Karte)
 227:main.c        ****     // volatile int Number[] =  { 1, 2, 3, 4, 5, 6, 7, 8};
 228:main.c        ****     // volatile int Lifetime[] = { 42, 534, 244, 213, 422, 33, 767, 13123};
 229:main.c        ****     // NumberOfMeasurements = 8;
 230:main.c        ****     
 231:main.c        ****     //
 232:main.c        ****     // !!! für die folgenden 3 größen:
 233:main.c        ****     //     der Faktor "10" stammt von der Umrechnung des 100ms Counters, der für die Messung 
 234:main.c        ****     //     verantwortlich auf Sekunden
 235:main.c        ****     //
 236:main.c        ****     // "Gnadenfrist" für Lamelle; unterhalb dieser Zeit wird Lamelle als anwesend angenommen,
 237:main.c        ****     // auch wenn das Signal unterhalb des festgelegten Grenzwerts ist.
 238:main.c        ****     counter_Lamella_Relaxation_steps = (int)Lamella_Relaxation_Time_s*SampligCountsPerSecond;
 3336              		.loc 12 238 0
 3337 00f8 0123     		movs	r3, #1
 3338 00fa 0A22     		movs	r2, #10
 3339 00fc 02FB03F3 		mul	r3, r2, r3
 3340 0100 804A     		ldr	r2, .L196+44
 3341 0102 1360     		str	r3, [r2]
 239:main.c        ****     // Maximal erlaubte Lebenszeit definieren
 240:main.c        ****     counter_Maximum_Lamella_Time_steps = (int)(Maximum_Lamella_Time_h*3600*SampligCountsPerSecond);
 3342              		.loc 12 240 0
 3343 0104 4FF07D53 		mov	r3, #1061158912
 3344 0108 1846     		mov	r0, r3
 3345 010a 7F49     		ldr	r1, .L196+48
 3346 010c FFF7FEFF 		bl	__aeabi_fmul
 3347 0110 0346     		mov	r3, r0
 3348 0112 1C46     		mov	r4, r3
 3349 0114 0A23     		movs	r3, #10
 3350 0116 1846     		mov	r0, r3
ARM GAS  C:\Users\LocalAdmin\AppData\Local\Temp\cchhZa3p.s 			page 88


 3351 0118 FFF7FEFF 		bl	__aeabi_i2f
 3352 011c 0346     		mov	r3, r0
 3353 011e 2046     		mov	r0, r4
 3354 0120 1946     		mov	r1, r3
 3355 0122 FFF7FEFF 		bl	__aeabi_fmul
 3356 0126 0346     		mov	r3, r0
 3357 0128 1846     		mov	r0, r3
 3358 012a FFF7FEFF 		bl	__aeabi_f2iz
 3359 012e 0246     		mov	r2, r0
 3360 0130 764B     		ldr	r3, .L196+52
 3361 0132 1A60     		str	r2, [r3]
 241:main.c        ****     // Anzahl der Schritte, die das Signal den Schwellwert unterschreiten muss
 242:main.c        ****     counter_Rupture_Confirmation_Target = Rupture_Confirmation_Time_s*SampligCountsPerSecond;
 3362              		.loc 12 242 0
 3363 0134 0A23     		movs	r3, #10
 3364 0136 1846     		mov	r0, r3
 3365 0138 FFF7FEFF 		bl	__aeabi_i2f
 3366 013c 0246     		mov	r2, r0
 3367 013e 4FF07C53 		mov	r3, #1056964608
 3368 0142 1046     		mov	r0, r2
 3369 0144 1946     		mov	r1, r3
 3370 0146 FFF7FEFF 		bl	__aeabi_fmul
 3371 014a 0346     		mov	r3, r0
 3372 014c 1846     		mov	r0, r3
 3373 014e FFF7FEFF 		bl	__aeabi_f2iz
 3374 0152 0246     		mov	r2, r0
 3375 0154 6E4B     		ldr	r3, .L196+56
 3376 0156 1A60     		str	r2, [r3]
 243:main.c        ****     // Counts festlegen, nach denen oberhalb einer gewissen Grenzzeit in das log-File geschrieben w
 244:main.c        ****     counter_Lamella_Logger_steps = Lamella_Logger_Time_s*SampligCountsPerSecond;
 3377              		.loc 12 244 0
 3378 0158 0123     		movs	r3, #1
 3379 015a 0A22     		movs	r2, #10
 3380 015c 02FB03F3 		mul	r3, r2, r3
 3381 0160 6C4A     		ldr	r2, .L196+60
 3382 0162 1360     		str	r3, [r2]
 245:main.c        ****     
 246:main.c        ****     // Motor initialisieren
 247:main.c        ****     Init_Stepper();
 3383              		.loc 12 247 0
 3384 0164 FFF7FEFF 		bl	Init_Stepper
 248:main.c        ****     
 249:main.c        ****   
 250:main.c        ****     // ##################################################
 251:main.c        ****     // Testzwecke
 252:main.c        ****     int k;
 253:main.c        ****     for (k=0; k <10; k++)
 3385              		.loc 12 253 0
 3386 0168 0023     		movs	r3, #0
 3387 016a FB67     		str	r3, [r7, #124]
 3388 016c 1EE0     		b	.L147
 3389              	.L148:
 254:main.c        ****     {
 255:main.c        ****         // LED togglen, zum Test, ob der Timer läuft
 256:main.c        ****         Pin_LED_Write(!Pin_LED_Read()); 
 3390              		.loc 12 256 0 discriminator 3
 3391 016e FFF7FEFF 		bl	Pin_LED_Read
ARM GAS  C:\Users\LocalAdmin\AppData\Local\Temp\cchhZa3p.s 			page 89


 3392 0172 0346     		mov	r3, r0
 3393 0174 002B     		cmp	r3, #0
 3394 0176 0CBF     		ite	eq
 3395 0178 0123     		moveq	r3, #1
 3396 017a 0023     		movne	r3, #0
 3397 017c DBB2     		uxtb	r3, r3
 3398 017e 1846     		mov	r0, r3
 3399 0180 FFF7FEFF 		bl	Pin_LED_Write
 257:main.c        ****         // LED togglen, zum Test, ob der Timer läuft
 258:main.c        ****         CyDelay(50);
 3400              		.loc 12 258 0 discriminator 3
 3401 0184 3220     		movs	r0, #50
 3402 0186 FFF7FEFF 		bl	CyDelay
 259:main.c        ****         Pin_LED_Write(!Pin_LED_Read()); 
 3403              		.loc 12 259 0 discriminator 3
 3404 018a FFF7FEFF 		bl	Pin_LED_Read
 3405 018e 0346     		mov	r3, r0
 3406 0190 002B     		cmp	r3, #0
 3407 0192 0CBF     		ite	eq
 3408 0194 0123     		moveq	r3, #1
 3409 0196 0023     		movne	r3, #0
 3410 0198 DBB2     		uxtb	r3, r3
 3411 019a 1846     		mov	r0, r3
 3412 019c FFF7FEFF 		bl	Pin_LED_Write
 260:main.c        ****         // LED togglen, zum Test, ob der Timer läuft
 261:main.c        ****         CyDelay(50);
 3413              		.loc 12 261 0 discriminator 3
 3414 01a0 3220     		movs	r0, #50
 3415 01a2 FFF7FEFF 		bl	CyDelay
 253:main.c        ****     {
 3416              		.loc 12 253 0 discriminator 3
 3417 01a6 FB6F     		ldr	r3, [r7, #124]
 3418 01a8 0133     		adds	r3, r3, #1
 3419 01aa FB67     		str	r3, [r7, #124]
 3420              	.L147:
 253:main.c        ****     {
 3421              		.loc 12 253 0 is_stmt 0 discriminator 1
 3422 01ac FB6F     		ldr	r3, [r7, #124]
 3423 01ae 092B     		cmp	r3, #9
 3424 01b0 DDDD     		ble	.L148
 3425              	.L193:
 262:main.c        ****     }
 263:main.c        **** 
 264:main.c        **** //    while (1)
 265:main.c        **** //    {
 266:main.c        **** //        MoveTo(3200, RIGHT);  // = volle Umdrehung im 16tel-Schritt Betrieb
 267:main.c        **** //        CyDelay(1000);
 268:main.c        **** //        MoveTo(3200, LEFT);  // = volle Umdrehung im 16tel-Schritt Betrieb
 269:main.c        **** //        CyDelay(1000);
 270:main.c        **** //    }
 271:main.c        ****     // so startet eine "Messung" unmittelbar nach dem Programmieren --> schneller Test mit wenig Wi
 272:main.c        ****     //Measurement_running = 1;
 273:main.c        ****     //NumberOfMeasurements = 2;
 274:main.c        ****     // ##################################################
 275:main.c        **** 
 276:main.c        ****     // MAINLOOP
 277:main.c        ****     for(;;)
ARM GAS  C:\Users\LocalAdmin\AppData\Local\Temp\cchhZa3p.s 			page 90


 278:main.c        ****     {       
 279:main.c        ****     // ***  
 280:main.c        ****     Analog_Digital_Converter_IsEndConversion(Analog_Digital_Converter_WAIT_FOR_RESULT);
 3426              		.loc 12 280 0 is_stmt 1
 3427 01b2 0020     		movs	r0, #0
 3428 01b4 FFF7FEFF 		bl	Analog_Digital_Converter_IsEndConversion
 281:main.c        ****     ADC_value = Analog_Digital_Converter_GetResult16();    
 3429              		.loc 12 281 0
 3430 01b8 FFF7FEFF 		bl	Analog_Digital_Converter_GetResult16
 3431 01bc 0346     		mov	r3, r0
 3432 01be 1A46     		mov	r2, r3
 3433 01c0 554B     		ldr	r3, .L196+64
 3434 01c2 1A60     		str	r2, [r3]
 282:main.c        ****         
 283:main.c        ****     LED_slider_val_sent_Write(slider_val_sent);
 3435              		.loc 12 283 0
 3436 01c4 4C4B     		ldr	r3, .L196+32
 3437 01c6 1B78     		ldrb	r3, [r3]
 3438 01c8 DBB2     		uxtb	r3, r3
 3439 01ca 1846     		mov	r0, r3
 3440 01cc FFF7FEFF 		bl	LED_slider_val_sent_Write
 284:main.c        ****     LED_slider_val_received_Write(slider_val_received);
 3441              		.loc 12 284 0
 3442 01d0 4A4B     		ldr	r3, .L196+36
 3443 01d2 1B78     		ldrb	r3, [r3]
 3444 01d4 DBB2     		uxtb	r3, r3
 3445 01d6 1846     		mov	r0, r3
 3446 01d8 FFF7FEFF 		bl	LED_slider_val_received_Write
 285:main.c        ****     LED_Measurement_running_Write(Measurement_running);
 3447              		.loc 12 285 0
 3448 01dc 4F4B     		ldr	r3, .L196+68
 3449 01de 1B78     		ldrb	r3, [r3]
 3450 01e0 DBB2     		uxtb	r3, r3
 3451 01e2 1846     		mov	r0, r3
 3452 01e4 FFF7FEFF 		bl	LED_Measurement_running_Write
 286:main.c        **** 
 287:main.c        ****     if (timerflag100ms)
 3453              		.loc 12 287 0
 3454 01e8 4D4B     		ldr	r3, .L196+72
 3455 01ea 1B78     		ldrb	r3, [r3]
 3456 01ec DBB2     		uxtb	r3, r3
 3457 01ee 002B     		cmp	r3, #0
 3458 01f0 00F04982 		beq	.L149
 288:main.c        ****     {
 289:main.c        ****         timerflag100ms = 0;
 3459              		.loc 12 289 0
 3460 01f4 4A4B     		ldr	r3, .L196+72
 3461 01f6 0022     		movs	r2, #0
 3462 01f8 1A70     		strb	r2, [r3]
 290:main.c        ****         // Wenn Messung noch nicht gestartet wurde
 291:main.c        ****         if (Measurement_running == 1)
 3463              		.loc 12 291 0
 3464 01fa 484B     		ldr	r3, .L196+68
 3465 01fc 1B78     		ldrb	r3, [r3]
 3466 01fe DBB2     		uxtb	r3, r3
 3467 0200 012B     		cmp	r3, #1
 3468 0202 40F04082 		bne	.L149
ARM GAS  C:\Users\LocalAdmin\AppData\Local\Temp\cchhZa3p.s 			page 91


 292:main.c        ****         {
 293:main.c        ****             
 294:main.c        ****             // LED togglen, zum Test, ob der Timer läuft
 295:main.c        ****             Pin_LED_Write(!Pin_LED_Read()); 
 3469              		.loc 12 295 0
 3470 0206 FFF7FEFF 		bl	Pin_LED_Read
 3471 020a 0346     		mov	r3, r0
 3472 020c 002B     		cmp	r3, #0
 3473 020e 0CBF     		ite	eq
 3474 0210 0123     		moveq	r3, #1
 3475 0212 0023     		movne	r3, #0
 3476 0214 DBB2     		uxtb	r3, r3
 3477 0216 1846     		mov	r0, r3
 3478 0218 FFF7FEFF 		bl	Pin_LED_Write
 296:main.c        ****             
 297:main.c        ****             // ADC einlesen
 298:main.c        ****             // Warten bis der AD-Wandler fertig ist
 299:main.c        ****             Analog_Digital_Converter_IsEndConversion(Analog_Digital_Converter_WAIT_FOR_RESULT);
 3479              		.loc 12 299 0
 3480 021c 0020     		movs	r0, #0
 3481 021e FFF7FEFF 		bl	Analog_Digital_Converter_IsEndConversion
 300:main.c        ****             // Ergebnis einlesen und als ADC_value abspeichern
 301:main.c        ****             // 4095 entsprechen 2.048V
 302:main.c        ****             ADC_value = Analog_Digital_Converter_GetResult16();    
 3482              		.loc 12 302 0
 3483 0222 FFF7FEFF 		bl	Analog_Digital_Converter_GetResult16
 3484 0226 0346     		mov	r3, r0
 3485 0228 1A46     		mov	r2, r3
 3486 022a 3B4B     		ldr	r3, .L196+64
 3487 022c 1A60     		str	r2, [r3]
 303:main.c        ****             
 304:main.c        ****             // ##################################################
 305:main.c        ****             // ##################################################
 306:main.c        ****             // ##################################################
 307:main.c        ****             // !!!! NEUER LOGGER !!!!!!!!
 308:main.c        ****             //
 309:main.c        ****             // Daten für jede einzelne Lamelle loggen loggen
 310:main.c        ****             // 
 311:main.c        ****             // Testwert des ADC
 312:main.c        **** //            ADC_value = 1000;
 313:main.c        **** ////            // Test, damit Abbruch der Messung nach 3s
 314:main.c        **** //            if (counter_Timer1_steps > 1800*10)
 315:main.c        **** //            {
 316:main.c        **** //                ADC_value = 0;
 317:main.c        **** //            } 
 318:main.c        ****             // ##################################################
 319:main.c        ****             // ##################################################
 320:main.c        ****             // ##################################################
 321:main.c        ****             
 322:main.c        ****             //
 323:main.c        ****             // Name der Logger-Datei setzen und sie öffnen
 324:main.c        ****             //
 325:main.c        ****             if (bool_NewLamellaFileNameSet == 0)
 3488              		.loc 12 325 0
 3489 022e 3D4B     		ldr	r3, .L196+76
 3490 0230 1B68     		ldr	r3, [r3]
 3491 0232 002B     		cmp	r3, #0
ARM GAS  C:\Users\LocalAdmin\AppData\Local\Temp\cchhZa3p.s 			page 92


 3492 0234 2FD1     		bne	.L150
 326:main.c        ****             {
 327:main.c        ****                 // Pointer auf die Adresse des letzten (= 4.) Eintrag des EEPROM-Arrays setzen
 328:main.c        ****                 ptr = &eepromArray[3];
 3493              		.loc 12 328 0
 3494 0236 3C4B     		ldr	r3, .L196+80
 3495 0238 3B67     		str	r3, [r7, #112]
 329:main.c        ****                 // Dereferenzieren des Pointers -> Wert, auf den "ptr" zeigt in "eeprom_cnt" abspei
 330:main.c        ****                 eeprom_cnt = *ptr;
 3496              		.loc 12 330 0
 3497 023a 3B6F     		ldr	r3, [r7, #112]
 3498 023c 1B78     		ldrb	r3, [r3]
 3499 023e DBB2     		uxtb	r3, r3
 3500 0240 87F85F30 		strb	r3, [r7, #95]
 331:main.c        ****                 // Name der Datei festlegen, in die Reflektivitäten der aktuellen Lamelle geschrie
 332:main.c        ****                 sprintf((char*)FileNameCurrentLamellaFile, "%d-%d.lam", eeprom_cnt, (int)(counter_L
 3501              		.loc 12 332 0
 3502 0244 97F85F30 		ldrb	r3, [r7, #95]	@ zero_extendqisi2
 3503 0248 1A46     		mov	r2, r3
 3504 024a 384B     		ldr	r3, .L196+84
 3505 024c 1B68     		ldr	r3, [r3]
 3506 024e 0133     		adds	r3, r3, #1
 3507 0250 3748     		ldr	r0, .L196+88
 3508 0252 3849     		ldr	r1, .L196+92
 3509 0254 FFF7FEFF 		bl	sprintf
 333:main.c        ****                 UART_TFT_PutString("t0.txt=\""); 
 3510              		.loc 12 333 0
 3511 0258 3748     		ldr	r0, .L196+96
 3512 025a FFF7FEFF 		bl	UART_TFT_PutString
 334:main.c        ****                 UART_TFT_PutString((char*)FileNameCurrentLamellaFile);
 3513              		.loc 12 334 0
 3514 025e 3448     		ldr	r0, .L196+88
 3515 0260 FFF7FEFF 		bl	UART_TFT_PutString
 335:main.c        ****                 UART_TFT_PutString((char*)"\"");
 3516              		.loc 12 335 0
 3517 0264 3548     		ldr	r0, .L196+100
 3518 0266 FFF7FEFF 		bl	UART_TFT_PutString
 336:main.c        ****                 UART_TFT_PutChar(0xFF);
 3519              		.loc 12 336 0
 3520 026a FF20     		movs	r0, #255
 3521 026c FFF7FEFF 		bl	UART_TFT_PutChar
 337:main.c        ****                 UART_TFT_PutChar(0xFF);  
 3522              		.loc 12 337 0
 3523 0270 FF20     		movs	r0, #255
 3524 0272 FFF7FEFF 		bl	UART_TFT_PutChar
 338:main.c        ****                 UART_TFT_PutChar(0xFF);
 3525              		.loc 12 338 0
 3526 0276 FF20     		movs	r0, #255
 3527 0278 FFF7FEFF 		bl	UART_TFT_PutChar
 339:main.c        ****                 // Logger-File zum Schreiben öffnen
 340:main.c        ****                 FileNameLogger = FS_FOpen(FileNameCurrentLamellaFile, "w");  
 3528              		.loc 12 340 0
 3529 027c 2C48     		ldr	r0, .L196+88
 3530 027e 3049     		ldr	r1, .L196+104
 3531 0280 FFF7FEFF 		bl	FS_FOpen
 3532 0284 0246     		mov	r2, r0
 3533 0286 2F4B     		ldr	r3, .L196+108
ARM GAS  C:\Users\LocalAdmin\AppData\Local\Temp\cchhZa3p.s 			page 93


 3534 0288 1A60     		str	r2, [r3]
 341:main.c        ****                 CyDelay(20);
 3535              		.loc 12 341 0
 3536 028a 1420     		movs	r0, #20
 3537 028c FFF7FEFF 		bl	CyDelay
 342:main.c        **** 
 343:main.c        ****                 // Sicherstellen, dass der Dateiname nur einmal geschrieben wird
 344:main.c        ****                 bool_NewLamellaFileNameSet = 1;
 3538              		.loc 12 344 0
 3539 0290 244B     		ldr	r3, .L196+76
 3540 0292 0122     		movs	r2, #1
 3541 0294 1A60     		str	r2, [r3]
 3542              	.L150:
 345:main.c        ****             }
 346:main.c        ****             //
 347:main.c        ****             // Abspeichern von Zeit und Reflektivität im geöffneteb ".lam"-File mit passendem Nam
 348:main.c        ****             // wird nur einmal geöffnet, wenn der Dateiname gesetzt wird; geschlossen, wenn nächs
 349:main.c        ****             // Lamelle oder Messung gestoppt
 350:main.c        ****             //
 351:main.c        ****             IntensityLogger_ONE_Channel(counter_Timer1_steps, ADC_value);        
 3543              		.loc 12 351 0
 3544 0296 2C4B     		ldr	r3, .L196+112
 3545 0298 1A68     		ldr	r2, [r3]
 3546 029a 1F4B     		ldr	r3, .L196+64
 3547 029c 1B68     		ldr	r3, [r3]
 3548 029e 1046     		mov	r0, r2
 3549 02a0 1946     		mov	r1, r3
 3550 02a2 FFF7FEFF 		bl	IntensityLogger_ONE_Channel
 352:main.c        ****             
 353:main.c        ****             
 354:main.c        ****             // Wenn maximal erlaubte Lebensdauer überschritten ist, so tun als ob Lamelle gerissen
 355:main.c        ****             // den Wert des ADC auf "0" setzen
 356:main.c        ****             if (counter_Timer1_steps >= counter_Maximum_Lamella_Time_steps)
 3551              		.loc 12 356 0
 3552 02a6 284B     		ldr	r3, .L196+112
 3553 02a8 1A68     		ldr	r2, [r3]
 3554 02aa 184B     		ldr	r3, .L196+52
 3555 02ac 1B68     		ldr	r3, [r3]
 3556 02ae 9A42     		cmp	r2, r3
 3557 02b0 02DB     		blt	.L151
 357:main.c        ****             {
 358:main.c        ****                 ADC_value = 0;
 3558              		.loc 12 358 0
 3559 02b2 194B     		ldr	r3, .L196+64
 3560 02b4 0022     		movs	r2, #0
 3561 02b6 1A60     		str	r2, [r3]
 3562              	.L151:
 359:main.c        ****                 // Abriss der Lamelle bestätigt
 360:main.c        ****                 // bool_Rupture_Confirmed = 1;
 361:main.c        ****             }
 362:main.c        **** 
 363:main.c        ****             // Wenn ADC-Wert oberhalb des benötigten Grenzwertes ist -> Lamelle noch da
 364:main.c        ****             if (ADC_value > PresenceThreshold)
 3563              		.loc 12 364 0
 3564 02b8 174B     		ldr	r3, .L196+64
 3565 02ba 1B68     		ldr	r3, [r3]
 3566 02bc 5A2B     		cmp	r3, #90
ARM GAS  C:\Users\LocalAdmin\AppData\Local\Temp\cchhZa3p.s 			page 94


 3567 02be 49DD     		ble	.L152
 365:main.c        ****             {
 366:main.c        ****                 // Counter für Anwesenheit der Lamelle inkrementieren
 367:main.c        ****                 counter_Timer1_steps = counter_Timer1_steps + 1;
 3568              		.loc 12 367 0
 3569 02c0 214B     		ldr	r3, .L196+112
 3570 02c2 1B68     		ldr	r3, [r3]
 3571 02c4 0133     		adds	r3, r3, #1
 3572 02c6 204A     		ldr	r2, .L196+112
 3573 02c8 1360     		str	r3, [r2]
 368:main.c        ****                 
 369:main.c        ****                 // Lamelle ist nicht(!) abgerissen, sobald wieder einmal Wert oberhalb des Grenzwer
 370:main.c        ****                 bool_Rupture_Confirmed = 0;
 3574              		.loc 12 370 0
 3575 02ca 204B     		ldr	r3, .L196+116
 3576 02cc 0022     		movs	r2, #0
 3577 02ce 1A60     		str	r2, [r3]
 371:main.c        ****                 // Zähler für Lamellenabriss zurücksetzen
 372:main.c        ****                 counter_Rupture_Confirmation = 0;
 3578              		.loc 12 372 0
 3579 02d0 1F4B     		ldr	r3, .L196+120
 3580 02d2 0022     		movs	r2, #0
 3581 02d4 1A60     		str	r2, [r3]
 3582 02d6 C0E1     		b	.L153
 3583              	.L197:
 3584              		.align	2
 3585              	.L196:
 3586 02d8 0C010000 		.word	.LC19
 3587 02dc 00000000 		.word	i
 3588 02e0 00000000 		.word	Number
 3589 02e4 00000000 		.word	Lifetime
 3590 02e8 00000000 		.word	Bin_Number
 3591 02ec 00000000 		.word	Bin_Lifetime_Probability
 3592 02f0 00000000 		.word	UART_TFT_InterruptFunction
 3593 02f4 00000000 		.word	Timer1_Interrupt_Function
 3594 02f8 00000000 		.word	slider_val_sent
 3595 02fc 00000000 		.word	slider_val_received
 3596 0300 20000000 		.word	.LC0
 3597 0304 00000000 		.word	counter_Lamella_Relaxation_steps
 3598 0308 00006145 		.word	1163984896
 3599 030c 00000000 		.word	counter_Maximum_Lamella_Time_steps
 3600 0310 00000000 		.word	counter_Rupture_Confirmation_Target
