ARM GAS  C:\Users\LocalAdmin\AppData\Local\Temp\ccpapi3q.s 			page 1


   1              		.syntax unified
   2              		.cpu cortex-m3
   3              		.fpu softvfp
   4              		.eabi_attribute 20, 1
   5              		.eabi_attribute 21, 1
   6              		.eabi_attribute 23, 3
   7              		.eabi_attribute 24, 1
   8              		.eabi_attribute 25, 1
   9              		.eabi_attribute 26, 1
  10              		.eabi_attribute 30, 6
  11              		.eabi_attribute 34, 1
  12              		.eabi_attribute 18, 4
  13              		.thumb
  14              		.file	"Nextion_Communication.c"
  15              		.text
  16              	.Ltext0:
  17              		.cfi_sections	.debug_frame
  18              		.global	__aeabi_fcmpge
  19              		.global	__aeabi_f2iz
  20              		.section	.text.ifloor,"ax",%progbits
  21              		.align	2
  22              		.global	ifloor
  23              		.thumb
  24              		.thumb_func
  25              		.type	ifloor, %function
  26              	ifloor:
  27              	.LFB56:
  28              		.file 1 ".\\Nextion_Communication.c"
   1:.\Nextion_Communication.c **** /* ========================================
   2:.\Nextion_Communication.c ****  *
   3:.\Nextion_Communication.c ****  * Copyright YOUR COMPANY, THE YEAR
   4:.\Nextion_Communication.c ****  * All Rights Reserved
   5:.\Nextion_Communication.c ****  * UNPUBLISHED, LICENSED SOFTWARE.
   6:.\Nextion_Communication.c ****  *
   7:.\Nextion_Communication.c ****  * CONFIDENTIAL AND PROPRIETARY INFORMATION
   8:.\Nextion_Communication.c ****  * WHICH IS THE PROPERTY OF your company.
   9:.\Nextion_Communication.c ****  *
  10:.\Nextion_Communication.c ****  * ========================================
  11:.\Nextion_Communication.c **** */
  12:.\Nextion_Communication.c **** 
  13:.\Nextion_Communication.c **** #include <project.h>
  14:.\Nextion_Communication.c **** 
  15:.\Nextion_Communication.c **** // Ersatz für floor der math.lib
  16:.\Nextion_Communication.c **** int ifloor(float x)
  17:.\Nextion_Communication.c **** {
  29              		.loc 1 17 0
  30              		.cfi_startproc
  31              		@ args = 0, pretend = 0, frame = 8
  32              		@ frame_needed = 1, uses_anonymous_args = 0
  33 0000 80B5     		push	{r7, lr}
  34              		.cfi_def_cfa_offset 8
  35              		.cfi_offset 7, -8
  36              		.cfi_offset 14, -4
  37 0002 82B0     		sub	sp, sp, #8
  38              		.cfi_def_cfa_offset 16
  39 0004 00AF     		add	r7, sp, #0
  40              		.cfi_def_cfa_register 7
ARM GAS  C:\Users\LocalAdmin\AppData\Local\Temp\ccpapi3q.s 			page 2


  41 0006 7860     		str	r0, [r7, #4]	@ float
  18:.\Nextion_Communication.c **** 	if (x >= 0.0f)
  42              		.loc 1 18 0
  43 0008 7868     		ldr	r0, [r7, #4]	@ float
  44 000a 4FF00001 		mov	r1, #0
  45 000e FFF7FEFF 		bl	__aeabi_fcmpge
  46 0012 0346     		mov	r3, r0
  47 0014 002B     		cmp	r3, #0
  48 0016 04D0     		beq	.L6
  19:.\Nextion_Communication.c **** 	{
  20:.\Nextion_Communication.c **** 		return ((int)x);
  49              		.loc 1 20 0
  50 0018 7868     		ldr	r0, [r7, #4]	@ float
  51 001a FFF7FEFF 		bl	__aeabi_f2iz
  52 001e 0346     		mov	r3, r0
  53 0020 04E0     		b	.L4
  54              	.L6:
  21:.\Nextion_Communication.c **** 	}
  22:.\Nextion_Communication.c **** 	else
  23:.\Nextion_Communication.c **** 	{
  24:.\Nextion_Communication.c **** 		return ((int)x - 1);
  55              		.loc 1 24 0
  56 0022 7868     		ldr	r0, [r7, #4]	@ float
  57 0024 FFF7FEFF 		bl	__aeabi_f2iz
  58 0028 0346     		mov	r3, r0
  59 002a 013B     		subs	r3, r3, #1
  60              	.L4:
  25:.\Nextion_Communication.c **** 	}
  26:.\Nextion_Communication.c **** }
  61              		.loc 1 26 0
  62 002c 1846     		mov	r0, r3
  63 002e 0837     		adds	r7, r7, #8
  64              		.cfi_def_cfa_offset 8
  65 0030 BD46     		mov	sp, r7
  66              		.cfi_def_cfa_register 13
  67              		@ sp needed
  68 0032 80BD     		pop	{r7, pc}
  69              		.cfi_endproc
  70              	.LFE56:
  71              		.size	ifloor, .-ifloor
  72              		.global	__aeabi_fcmplt
  73              		.global	__aeabi_fmul
  74              		.global	__aeabi_f2d
  75              		.global	__aeabi_ddiv
  76              		.global	__aeabi_dadd
  77              		.global	__aeabi_d2f
  78              		.global	__aeabi_dmul
  79              		.global	__aeabi_i2f
  80              		.global	__aeabi_fdiv
  81              		.global	__aeabi_fsub
  82              		.section	.text.ftoa,"ax",%progbits
  83              		.align	2
  84              		.global	ftoa
  85              		.thumb
  86              		.thumb_func
  87              		.type	ftoa, %function
  88              	ftoa:
ARM GAS  C:\Users\LocalAdmin\AppData\Local\Temp\ccpapi3q.s 			page 3


  89              	.LFB57:
  27:.\Nextion_Communication.c **** 
  28:.\Nextion_Communication.c **** // ---------------------------------------
  29:.\Nextion_Communication.c **** // Float to ASCII Routine
  30:.\Nextion_Communication.c **** // x Float Wert zum Umwandeln
  31:.\Nextion_Communication.c **** // f anzahl der Stellen zB 3
  32:.\Nextion_Communication.c **** // str Ergebnisstring
  33:.\Nextion_Communication.c **** // Laufzeit: 144 us
  34:.\Nextion_Communication.c **** void ftoa (float x,int f,char *str)
  35:.\Nextion_Communication.c **** {
  90              		.loc 1 35 0
  91              		.cfi_startproc
  92              		@ args = 0, pretend = 0, frame = 32
  93              		@ frame_needed = 1, uses_anonymous_args = 0
  94 0000 B0B5     		push	{r4, r5, r7, lr}
  95              		.cfi_def_cfa_offset 16
  96              		.cfi_offset 4, -16
  97              		.cfi_offset 5, -12
  98              		.cfi_offset 7, -8
  99              		.cfi_offset 14, -4
 100 0002 88B0     		sub	sp, sp, #32
 101              		.cfi_def_cfa_offset 48
 102 0004 00AF     		add	r7, sp, #0
 103              		.cfi_def_cfa_register 7
 104 0006 F860     		str	r0, [r7, #12]	@ float
 105 0008 B960     		str	r1, [r7, #8]
 106 000a 7A60     		str	r2, [r7, #4]
  36:.\Nextion_Communication.c **** 	float scale; /* scale factor */
  37:.\Nextion_Communication.c **** 	int i,d; /* copy of f, and # digits before decimal point */
  38:.\Nextion_Communication.c **** 	/* a digit */
  39:.\Nextion_Communication.c **** 	if( x < 0.0 )
 107              		.loc 1 39 0
 108 000c F868     		ldr	r0, [r7, #12]	@ float
 109 000e 4FF00001 		mov	r1, #0
 110 0012 FFF7FEFF 		bl	__aeabi_fcmplt
 111 0016 0346     		mov	r3, r0
 112 0018 002B     		cmp	r3, #0
 113 001a 09D0     		beq	.L23
  40:.\Nextion_Communication.c **** 	{
  41:.\Nextion_Communication.c **** 		*str++ = '-' ;
 114              		.loc 1 41 0
 115 001c 7B68     		ldr	r3, [r7, #4]
 116 001e 5A1C     		adds	r2, r3, #1
 117 0020 7A60     		str	r2, [r7, #4]
 118 0022 2D22     		movs	r2, #45
 119 0024 1A70     		strb	r2, [r3]
  42:.\Nextion_Communication.c **** 		x = -x ;
 120              		.loc 1 42 0
 121 0026 FB68     		ldr	r3, [r7, #12]
 122 0028 83F00043 		eor	r3, r3, #-2147483648
 123 002c FB60     		str	r3, [r7, #12]	@ float
 124 002e 04E0     		b	.L10
 125              	.L23:
  43:.\Nextion_Communication.c **** 	}
  44:.\Nextion_Communication.c ****     else
  45:.\Nextion_Communication.c ****     {
  46:.\Nextion_Communication.c ****         *str++ = '+' ;
ARM GAS  C:\Users\LocalAdmin\AppData\Local\Temp\ccpapi3q.s 			page 4


 126              		.loc 1 46 0
 127 0030 7B68     		ldr	r3, [r7, #4]
 128 0032 5A1C     		adds	r2, r3, #1
 129 0034 7A60     		str	r2, [r7, #4]
 130 0036 2B22     		movs	r2, #43
 131 0038 1A70     		strb	r2, [r3]
 132              	.L10:
  47:.\Nextion_Communication.c ****     }
  48:.\Nextion_Communication.c **** 	i = f ;
 133              		.loc 1 48 0
 134 003a BB68     		ldr	r3, [r7, #8]
 135 003c BB61     		str	r3, [r7, #24]
  49:.\Nextion_Communication.c **** 	scale = 2.0 ;
 136              		.loc 1 49 0
 137 003e 4FF08043 		mov	r3, #1073741824
 138 0042 FB61     		str	r3, [r7, #28]	@ float
  50:.\Nextion_Communication.c **** 	while ( i-- ) scale *= 10.0 ;
 139              		.loc 1 50 0
 140 0044 05E0     		b	.L11
 141              	.L12:
 142              		.loc 1 50 0 is_stmt 0 discriminator 2
 143 0046 F869     		ldr	r0, [r7, #28]	@ float
 144 0048 6549     		ldr	r1, .L24+8
 145 004a FFF7FEFF 		bl	__aeabi_fmul
 146 004e 0346     		mov	r3, r0
 147 0050 FB61     		str	r3, [r7, #28]	@ float
 148              	.L11:
 149              		.loc 1 50 0 discriminator 1
 150 0052 BB69     		ldr	r3, [r7, #24]
 151 0054 5A1E     		subs	r2, r3, #1
 152 0056 BA61     		str	r2, [r7, #24]
 153 0058 002B     		cmp	r3, #0
 154 005a F4D1     		bne	.L12
  51:.\Nextion_Communication.c **** 	x += 1.0 / scale ;
 155              		.loc 1 51 0 is_stmt 1
 156 005c F868     		ldr	r0, [r7, #12]	@ float
 157 005e FFF7FEFF 		bl	__aeabi_f2d
 158 0062 0446     		mov	r4, r0
 159 0064 0D46     		mov	r5, r1
 160 0066 F869     		ldr	r0, [r7, #28]	@ float
 161 0068 FFF7FEFF 		bl	__aeabi_f2d
 162 006c 0246     		mov	r2, r0
 163 006e 0B46     		mov	r3, r1
 164 0070 4FF00000 		mov	r0, #0
 165 0074 5B49     		ldr	r1, .L24+12
 166 0076 FFF7FEFF 		bl	__aeabi_ddiv
 167 007a 0246     		mov	r2, r0
 168 007c 0B46     		mov	r3, r1
 169 007e 2046     		mov	r0, r4
 170 0080 2946     		mov	r1, r5
 171 0082 FFF7FEFF 		bl	__aeabi_dadd
 172 0086 0246     		mov	r2, r0
 173 0088 0B46     		mov	r3, r1
 174 008a 1046     		mov	r0, r2
 175 008c 1946     		mov	r1, r3
 176 008e FFF7FEFF 		bl	__aeabi_d2f
 177 0092 0346     		mov	r3, r0
ARM GAS  C:\Users\LocalAdmin\AppData\Local\Temp\ccpapi3q.s 			page 5


 178 0094 FB60     		str	r3, [r7, #12]	@ float
  52:.\Nextion_Communication.c **** 	/* count places before decimal & scale the number */
  53:.\Nextion_Communication.c **** 	i = 0 ;
 179              		.loc 1 53 0
 180 0096 0023     		movs	r3, #0
 181 0098 BB61     		str	r3, [r7, #24]
  54:.\Nextion_Communication.c **** 	scale = 1.0 ;
 182              		.loc 1 54 0
 183 009a 4FF07E53 		mov	r3, #1065353216
 184 009e FB61     		str	r3, [r7, #28]	@ float
  55:.\Nextion_Communication.c **** 	while ( x >= scale )
 185              		.loc 1 55 0
 186 00a0 08E0     		b	.L13
 187              	.L14:
  56:.\Nextion_Communication.c **** 	{
  57:.\Nextion_Communication.c **** 		scale *= 10.0 ;
 188              		.loc 1 57 0
 189 00a2 F869     		ldr	r0, [r7, #28]	@ float
 190 00a4 4E49     		ldr	r1, .L24+8
 191 00a6 FFF7FEFF 		bl	__aeabi_fmul
 192 00aa 0346     		mov	r3, r0
 193 00ac FB61     		str	r3, [r7, #28]	@ float
  58:.\Nextion_Communication.c **** 		i++ ;
 194              		.loc 1 58 0
 195 00ae BB69     		ldr	r3, [r7, #24]
 196 00b0 0133     		adds	r3, r3, #1
 197 00b2 BB61     		str	r3, [r7, #24]
 198              	.L13:
  55:.\Nextion_Communication.c **** 	while ( x >= scale )
 199              		.loc 1 55 0
 200 00b4 F868     		ldr	r0, [r7, #12]	@ float
 201 00b6 F969     		ldr	r1, [r7, #28]	@ float
 202 00b8 FFF7FEFF 		bl	__aeabi_fcmpge
 203 00bc 0346     		mov	r3, r0
 204 00be 002B     		cmp	r3, #0
 205 00c0 EFD1     		bne	.L14
  59:.\Nextion_Communication.c **** 	}
  60:.\Nextion_Communication.c **** 	if ( i == 0 ) *str++ = '0';
 206              		.loc 1 60 0
 207 00c2 BB69     		ldr	r3, [r7, #24]
 208 00c4 002B     		cmp	r3, #0
 209 00c6 04D1     		bne	.L15
 210              		.loc 1 60 0 is_stmt 0 discriminator 1
 211 00c8 7B68     		ldr	r3, [r7, #4]
 212 00ca 5A1C     		adds	r2, r3, #1
 213 00cc 7A60     		str	r2, [r7, #4]
 214 00ce 3022     		movs	r2, #48
 215 00d0 1A70     		strb	r2, [r3]
 216              	.L15:
  61:.\Nextion_Communication.c **** 	while ( i-- )
 217              		.loc 1 61 0 is_stmt 1
 218 00d2 45E0     		b	.L16
 219              	.L17:
  62:.\Nextion_Communication.c **** 	{
  63:.\Nextion_Communication.c **** 		/* output digits before decimal */
  64:.\Nextion_Communication.c **** 		// returns the value of parameter x rounded down to the nearest integer
  65:.\Nextion_Communication.c ****         // floor find the nearest integer less than or equal to x. 
ARM GAS  C:\Users\LocalAdmin\AppData\Local\Temp\ccpapi3q.s 			page 6


  66:.\Nextion_Communication.c ****         scale = ifloor(0.5 + scale * 0.1 ) ;
 220              		.loc 1 66 0
 221 00d4 F869     		ldr	r0, [r7, #28]	@ float
 222 00d6 FFF7FEFF 		bl	__aeabi_f2d
 223 00da 0246     		mov	r2, r0
 224 00dc 0B46     		mov	r3, r1
 225 00de 1046     		mov	r0, r2
 226 00e0 1946     		mov	r1, r3
 227 00e2 3DA3     		adr	r3, .L24
 228 00e4 D3E90023 		ldrd	r2, [r3]
 229 00e8 FFF7FEFF 		bl	__aeabi_dmul
 230 00ec 0246     		mov	r2, r0
 231 00ee 0B46     		mov	r3, r1
 232 00f0 1046     		mov	r0, r2
 233 00f2 1946     		mov	r1, r3
 234 00f4 4FF00002 		mov	r2, #0
 235 00f8 3B4B     		ldr	r3, .L24+16
 236 00fa FFF7FEFF 		bl	__aeabi_dadd
 237 00fe 0246     		mov	r2, r0
 238 0100 0B46     		mov	r3, r1
 239 0102 1046     		mov	r0, r2
 240 0104 1946     		mov	r1, r3
 241 0106 FFF7FEFF 		bl	__aeabi_d2f
 242 010a 0346     		mov	r3, r0
 243 010c 1846     		mov	r0, r3
 244 010e FFF7FEFF 		bl	ifloor
 245 0112 0346     		mov	r3, r0
 246 0114 1846     		mov	r0, r3
 247 0116 FFF7FEFF 		bl	__aeabi_i2f
 248 011a 0346     		mov	r3, r0
 249 011c FB61     		str	r3, [r7, #28]	@ float
  67:.\Nextion_Communication.c **** 		// scale = (int)(0.5 + scale * 0.1) ;
  68:.\Nextion_Communication.c **** 		d = ( x / scale ) ;
 250              		.loc 1 68 0
 251 011e F868     		ldr	r0, [r7, #12]	@ float
 252 0120 F969     		ldr	r1, [r7, #28]	@ float
 253 0122 FFF7FEFF 		bl	__aeabi_fdiv
 254 0126 0346     		mov	r3, r0
 255 0128 1846     		mov	r0, r3
 256 012a FFF7FEFF 		bl	__aeabi_f2iz
 257 012e 0346     		mov	r3, r0
 258 0130 7B61     		str	r3, [r7, #20]
  69:.\Nextion_Communication.c **** 		*str++ = d + '0' ;
 259              		.loc 1 69 0
 260 0132 7B68     		ldr	r3, [r7, #4]
 261 0134 5A1C     		adds	r2, r3, #1
 262 0136 7A60     		str	r2, [r7, #4]
 263 0138 7A69     		ldr	r2, [r7, #20]
 264 013a D2B2     		uxtb	r2, r2
 265 013c 3032     		adds	r2, r2, #48
 266 013e D2B2     		uxtb	r2, r2
 267 0140 1A70     		strb	r2, [r3]
  70:.\Nextion_Communication.c **** 		x -= (float)d * scale ;
 268              		.loc 1 70 0
 269 0142 7869     		ldr	r0, [r7, #20]
 270 0144 FFF7FEFF 		bl	__aeabi_i2f
 271 0148 0346     		mov	r3, r0
ARM GAS  C:\Users\LocalAdmin\AppData\Local\Temp\ccpapi3q.s 			page 7


 272 014a 1846     		mov	r0, r3
 273 014c F969     		ldr	r1, [r7, #28]	@ float
 274 014e FFF7FEFF 		bl	__aeabi_fmul
 275 0152 0346     		mov	r3, r0
 276 0154 F868     		ldr	r0, [r7, #12]	@ float
 277 0156 1946     		mov	r1, r3
 278 0158 FFF7FEFF 		bl	__aeabi_fsub
 279 015c 0346     		mov	r3, r0
 280 015e FB60     		str	r3, [r7, #12]	@ float
 281              	.L16:
  61:.\Nextion_Communication.c **** 	{
 282              		.loc 1 61 0
 283 0160 BB69     		ldr	r3, [r7, #24]
 284 0162 5A1E     		subs	r2, r3, #1
 285 0164 BA61     		str	r2, [r7, #24]
 286 0166 002B     		cmp	r3, #0
 287 0168 B4D1     		bne	.L17
  71:.\Nextion_Communication.c **** 	}
  72:.\Nextion_Communication.c **** 	if ( f <= 0 )
 288              		.loc 1 72 0
 289 016a BB68     		ldr	r3, [r7, #8]
 290 016c 002B     		cmp	r3, #0
 291 016e 03DC     		bgt	.L18
  73:.\Nextion_Communication.c **** 	{
  74:.\Nextion_Communication.c **** 		*str = 0;
 292              		.loc 1 74 0
 293 0170 7B68     		ldr	r3, [r7, #4]
 294 0172 0022     		movs	r2, #0
 295 0174 1A70     		strb	r2, [r3]
  75:.\Nextion_Communication.c **** 		return ;
 296              		.loc 1 75 0
 297 0176 2AE0     		b	.L7
 298              	.L18:
  76:.\Nextion_Communication.c **** 	}
  77:.\Nextion_Communication.c **** 	*str++ = ',' ;  // Komma oder Punkt
 299              		.loc 1 77 0
 300 0178 7B68     		ldr	r3, [r7, #4]
 301 017a 5A1C     		adds	r2, r3, #1
 302 017c 7A60     		str	r2, [r7, #4]
 303 017e 2C22     		movs	r2, #44
 304 0180 1A70     		strb	r2, [r3]
  78:.\Nextion_Communication.c **** 	while ( f-- )
 305              		.loc 1 78 0
 306 0182 1CE0     		b	.L20
 307              	.L21:
  79:.\Nextion_Communication.c **** 	{
  80:.\Nextion_Communication.c **** 		/* output digits after decimal */
  81:.\Nextion_Communication.c **** 		x *= 10.0 ;
 308              		.loc 1 81 0
 309 0184 F868     		ldr	r0, [r7, #12]	@ float
 310 0186 1649     		ldr	r1, .L24+8
 311 0188 FFF7FEFF 		bl	__aeabi_fmul
 312 018c 0346     		mov	r3, r0
 313 018e FB60     		str	r3, [r7, #12]	@ float
  82:.\Nextion_Communication.c **** 		d = x;
 314              		.loc 1 82 0
 315 0190 F868     		ldr	r0, [r7, #12]	@ float
ARM GAS  C:\Users\LocalAdmin\AppData\Local\Temp\ccpapi3q.s 			page 8


 316 0192 FFF7FEFF 		bl	__aeabi_f2iz
 317 0196 0346     		mov	r3, r0
 318 0198 7B61     		str	r3, [r7, #20]
  83:.\Nextion_Communication.c **** 		*str++ = d + '0' ;
 319              		.loc 1 83 0
 320 019a 7B68     		ldr	r3, [r7, #4]
 321 019c 5A1C     		adds	r2, r3, #1
 322 019e 7A60     		str	r2, [r7, #4]
 323 01a0 7A69     		ldr	r2, [r7, #20]
 324 01a2 D2B2     		uxtb	r2, r2
 325 01a4 3032     		adds	r2, r2, #48
 326 01a6 D2B2     		uxtb	r2, r2
 327 01a8 1A70     		strb	r2, [r3]
  84:.\Nextion_Communication.c **** 		x -= d ;
 328              		.loc 1 84 0
 329 01aa 7869     		ldr	r0, [r7, #20]
 330 01ac FFF7FEFF 		bl	__aeabi_i2f
 331 01b0 0346     		mov	r3, r0
 332 01b2 F868     		ldr	r0, [r7, #12]	@ float
 333 01b4 1946     		mov	r1, r3
 334 01b6 FFF7FEFF 		bl	__aeabi_fsub
 335 01ba 0346     		mov	r3, r0
 336 01bc FB60     		str	r3, [r7, #12]	@ float
 337              	.L20:
  78:.\Nextion_Communication.c **** 	{
 338              		.loc 1 78 0
 339 01be BB68     		ldr	r3, [r7, #8]
 340 01c0 5A1E     		subs	r2, r3, #1
 341 01c2 BA60     		str	r2, [r7, #8]
 342 01c4 002B     		cmp	r3, #0
 343 01c6 DDD1     		bne	.L21
  85:.\Nextion_Communication.c **** 	}
  86:.\Nextion_Communication.c **** 	*str = 0;
 344              		.loc 1 86 0
 345 01c8 7B68     		ldr	r3, [r7, #4]
 346 01ca 0022     		movs	r2, #0
 347 01cc 1A70     		strb	r2, [r3]
 348              	.L7:
  87:.\Nextion_Communication.c **** }
 349              		.loc 1 87 0
 350 01ce 2037     		adds	r7, r7, #32
 351              		.cfi_def_cfa_offset 16
 352 01d0 BD46     		mov	sp, r7
 353              		.cfi_def_cfa_register 13
 354              		@ sp needed
 355 01d2 B0BD     		pop	{r4, r5, r7, pc}
 356              	.L25:
 357 01d4 AFF30080 		.align	3
 358              	.L24:
 359 01d8 9A999999 		.word	-1717986918
 360 01dc 9999B93F 		.word	1069128089
 361 01e0 00002041 		.word	1092616192
 362 01e4 0000F03F 		.word	1072693248
 363 01e8 0000E03F 		.word	1071644672
 364              		.cfi_endproc
 365              	.LFE57:
 366              		.size	ftoa, .-ftoa
ARM GAS  C:\Users\LocalAdmin\AppData\Local\Temp\ccpapi3q.s 			page 9


 367 01ec AFF30080 		.section	.text.myitoa,"ax",%progbits
 368              		.align	2
 369              		.global	myitoa
 370              		.thumb
 371              		.thumb_func
 372              		.type	myitoa, %function
 373              	myitoa:
 374              	.LFB58:
  88:.\Nextion_Communication.c **** 
  89:.\Nextion_Communication.c **** //**************************************************
  90:.\Nextion_Communication.c **** // Schreibt eine 16-Bit-Zahl in die LCD-Anzeige
  91:.\Nextion_Communication.c **** //**************************************************
  92:.\Nextion_Communication.c **** void myitoa(int a, char *str, unsigned char vkstellen, char nullflag)
  93:.\Nextion_Communication.c **** { unsigned char idx; 		/*Schleifenzähler*/
 375              		.loc 1 93 0
 376              		.cfi_startproc
 377              		@ args = 0, pretend = 0, frame = 40
 378              		@ frame_needed = 1, uses_anonymous_args = 0
 379              		@ link register save eliminated.
 380 0000 80B4     		push	{r7}
 381              		.cfi_def_cfa_offset 4
 382              		.cfi_offset 7, -4
 383 0002 8BB0     		sub	sp, sp, #44
 384              		.cfi_def_cfa_offset 48
 385 0004 00AF     		add	r7, sp, #0
 386              		.cfi_def_cfa_register 7
 387 0006 F860     		str	r0, [r7, #12]
 388 0008 B960     		str	r1, [r7, #8]
 389 000a 1146     		mov	r1, r2
 390 000c 1A46     		mov	r2, r3
 391 000e 0B46     		mov	r3, r1
 392 0010 FB71     		strb	r3, [r7, #7]
 393 0012 1346     		mov	r3, r2
 394 0014 BB71     		strb	r3, [r7, #6]
  94:.\Nextion_Communication.c ****   unsigned int div = 10000; /*Teilen bei int max 10000*/
 395              		.loc 1 94 0
 396 0016 42F21073 		movw	r3, #10000
 397 001a 3B62     		str	r3, [r7, #32]
  95:.\Nextion_Communication.c ****   unsigned int buff; 		/*Temp*/ 
  96:.\Nextion_Communication.c ****   unsigned char flag = 1; 	/*Flag wird für Nullunterdrückung benötigt*/
 398              		.loc 1 96 0
 399 001c 0123     		movs	r3, #1
 400 001e FB77     		strb	r3, [r7, #31]
  97:.\Nextion_Communication.c ****   unsigned char Ausgabe; 	/*Ausgabe Wert für String*/
  98:.\Nextion_Communication.c ****   flag=0;
 401              		.loc 1 98 0
 402 0020 0023     		movs	r3, #0
 403 0022 FB77     		strb	r3, [r7, #31]
  99:.\Nextion_Communication.c ****   for(idx=5;idx>0;idx--) 	/*Schleife 5* für 10000er Stelle*/
 404              		.loc 1 99 0
 405 0024 0523     		movs	r3, #5
 406 0026 87F82730 		strb	r3, [r7, #39]
 407 002a 4AE0     		b	.L27
 408              	.L35:
 100:.\Nextion_Communication.c ****   { buff = a;
 409              		.loc 1 100 0
 410 002c FB68     		ldr	r3, [r7, #12]
ARM GAS  C:\Users\LocalAdmin\AppData\Local\Temp\ccpapi3q.s 			page 10


 411 002e BB61     		str	r3, [r7, #24]
 101:.\Nextion_Communication.c ****     buff = buff / div;
 412              		.loc 1 101 0
 413 0030 BA69     		ldr	r2, [r7, #24]
 414 0032 3B6A     		ldr	r3, [r7, #32]
 415 0034 B2FBF3F3 		udiv	r3, r2, r3
 416 0038 BB61     		str	r3, [r7, #24]
 102:.\Nextion_Communication.c ****     if(flag == 0)
 417              		.loc 1 102 0
 418 003a FB7F     		ldrb	r3, [r7, #31]	@ zero_extendqisi2
 419 003c 002B     		cmp	r3, #0
 420 003e 04D1     		bne	.L28
 103:.\Nextion_Communication.c ****     { if(buff >0)
 421              		.loc 1 103 0
 422 0040 BB69     		ldr	r3, [r7, #24]
 423 0042 002B     		cmp	r3, #0
 424 0044 01D0     		beq	.L28
 104:.\Nextion_Communication.c ****       { flag = 1;
 425              		.loc 1 104 0
 426 0046 0123     		movs	r3, #1
 427 0048 FB77     		strb	r3, [r7, #31]
 428              	.L28:
 105:.\Nextion_Communication.c ****       }
 106:.\Nextion_Communication.c ****     }
 107:.\Nextion_Communication.c ****     Ausgabe = buff + 48; /*Umrechnung für Ergebnis String*/
 429              		.loc 1 107 0
 430 004a BB69     		ldr	r3, [r7, #24]
 431 004c DBB2     		uxtb	r3, r3
 432 004e 3033     		adds	r3, r3, #48
 433 0050 FB75     		strb	r3, [r7, #23]
 108:.\Nextion_Communication.c ****     // ggf. Leerstellenunterdrückung 
 109:.\Nextion_Communication.c **** 	if(flag == 0)
 434              		.loc 1 109 0
 435 0052 FB7F     		ldrb	r3, [r7, #31]	@ zero_extendqisi2
 436 0054 002B     		cmp	r3, #0
 437 0056 1DD1     		bne	.L29
 110:.\Nextion_Communication.c ****     { if(idx<=vkstellen)
 438              		.loc 1 110 0
 439 0058 97F82720 		ldrb	r2, [r7, #39]	@ zero_extendqisi2
 440 005c FB79     		ldrb	r3, [r7, #7]	@ zero_extendqisi2
 441 005e 9A42     		cmp	r2, r3
 442 0060 1DD8     		bhi	.L34
 111:.\Nextion_Communication.c **** 	  { if(nullflag==0) 
 443              		.loc 1 111 0
 444 0062 BB79     		ldrb	r3, [r7, #6]	@ zero_extendqisi2
 445 0064 002B     		cmp	r3, #0
 446 0066 0FD1     		bne	.L31
 112:.\Nextion_Communication.c **** 	    // { if (idx>1) *str++=254;
 113:.\Nextion_Communication.c **** 	    { if (idx>1) *str++=' ';        
 447              		.loc 1 113 0
 448 0068 97F82730 		ldrb	r3, [r7, #39]	@ zero_extendqisi2
 449 006c 012B     		cmp	r3, #1
 450 006e 05D9     		bls	.L32
 451              		.loc 1 113 0 is_stmt 0 discriminator 1
 452 0070 BB68     		ldr	r3, [r7, #8]
 453 0072 5A1C     		adds	r2, r3, #1
 454 0074 BA60     		str	r2, [r7, #8]
ARM GAS  C:\Users\LocalAdmin\AppData\Local\Temp\ccpapi3q.s 			page 11


 455 0076 2022     		movs	r2, #32
 456 0078 1A70     		strb	r2, [r3]
 457 007a 10E0     		b	.L34
 458              	.L32:
 114:.\Nextion_Communication.c **** 		  else       *str++=48;  // Sonderfall a=0 !
 459              		.loc 1 114 0 is_stmt 1
 460 007c BB68     		ldr	r3, [r7, #8]
 461 007e 5A1C     		adds	r2, r3, #1
 462 0080 BA60     		str	r2, [r7, #8]
 463 0082 3022     		movs	r2, #48
 464 0084 1A70     		strb	r2, [r3]
 465 0086 0AE0     		b	.L34
 466              	.L31:
 115:.\Nextion_Communication.c **** 	    }
 116:.\Nextion_Communication.c **** 		else         *str++=48; 
 467              		.loc 1 116 0
 468 0088 BB68     		ldr	r3, [r7, #8]
 469 008a 5A1C     		adds	r2, r3, #1
 470 008c BA60     		str	r2, [r7, #8]
 471 008e 3022     		movs	r2, #48
 472 0090 1A70     		strb	r2, [r3]
 473 0092 04E0     		b	.L34
 474              	.L29:
 117:.\Nextion_Communication.c **** 	  } /*Nullunterdrückung durch Leerzeichen*/
 118:.\Nextion_Communication.c ****     }
 119:.\Nextion_Communication.c **** 	else
 120:.\Nextion_Communication.c **** 	{ *str++=Ausgabe; }
 475              		.loc 1 120 0
 476 0094 BB68     		ldr	r3, [r7, #8]
 477 0096 5A1C     		adds	r2, r3, #1
 478 0098 BA60     		str	r2, [r7, #8]
 479 009a FA7D     		ldrb	r2, [r7, #23]
 480 009c 1A70     		strb	r2, [r3]
 481              	.L34:
 121:.\Nextion_Communication.c **** 	a = a - (buff * div);
 482              		.loc 1 121 0 discriminator 2
 483 009e FA68     		ldr	r2, [r7, #12]
 484 00a0 BB69     		ldr	r3, [r7, #24]
 485 00a2 396A     		ldr	r1, [r7, #32]
 486 00a4 01FB03F3 		mul	r3, r1, r3
 487 00a8 D31A     		subs	r3, r2, r3
 488 00aa FB60     		str	r3, [r7, #12]
 122:.\Nextion_Communication.c ****     div = div/10;
 489              		.loc 1 122 0 discriminator 2
 490 00ac 3B6A     		ldr	r3, [r7, #32]
 491 00ae 0C4A     		ldr	r2, .L36
 492 00b0 A2FB0323 		umull	r2, r3, r2, r3
 493 00b4 DB08     		lsrs	r3, r3, #3
 494 00b6 3B62     		str	r3, [r7, #32]
  99:.\Nextion_Communication.c ****   { buff = a;
 495              		.loc 1 99 0 discriminator 2
 496 00b8 97F82730 		ldrb	r3, [r7, #39]	@ zero_extendqisi2
 497 00bc 013B     		subs	r3, r3, #1
 498 00be 87F82730 		strb	r3, [r7, #39]
 499              	.L27:
  99:.\Nextion_Communication.c ****   { buff = a;
 500              		.loc 1 99 0 is_stmt 0 discriminator 1
ARM GAS  C:\Users\LocalAdmin\AppData\Local\Temp\ccpapi3q.s 			page 12


 501 00c2 97F82730 		ldrb	r3, [r7, #39]	@ zero_extendqisi2
 502 00c6 002B     		cmp	r3, #0
 503 00c8 B0D1     		bne	.L35
 123:.\Nextion_Communication.c ****   }
 124:.\Nextion_Communication.c ****   *str++=0;
 504              		.loc 1 124 0 is_stmt 1
 505 00ca BB68     		ldr	r3, [r7, #8]
 506 00cc 5A1C     		adds	r2, r3, #1
 507 00ce BA60     		str	r2, [r7, #8]
 508 00d0 0022     		movs	r2, #0
 509 00d2 1A70     		strb	r2, [r3]
 125:.\Nextion_Communication.c **** }
 510              		.loc 1 125 0
 511 00d4 2C37     		adds	r7, r7, #44
 512              		.cfi_def_cfa_offset 4
 513 00d6 BD46     		mov	sp, r7
 514              		.cfi_def_cfa_register 13
 515              		@ sp needed
 516 00d8 5DF8047B 		ldr	r7, [sp], #4
 517              		.cfi_restore 7
 518              		.cfi_def_cfa_offset 0
 519 00dc 7047     		bx	lr
 520              	.L37:
 521 00de 00BF     		.align	2
 522              	.L36:
 523 00e0 CDCCCCCC 		.word	-858993459
 524              		.cfi_endproc
 525              	.LFE58:
 526              		.size	myitoa, .-myitoa
 527              		.section	.text.Nextion_Send_String,"ax",%progbits
 528              		.align	2
 529              		.global	Nextion_Send_String
 530              		.thumb
 531              		.thumb_func
 532              		.type	Nextion_Send_String, %function
 533              	Nextion_Send_String:
 534              	.LFB59:
 126:.\Nextion_Communication.c **** 
 127:.\Nextion_Communication.c **** 
 128:.\Nextion_Communication.c **** void Nextion_Send_String(unsigned char *sfloat)
 129:.\Nextion_Communication.c **** {
 535              		.loc 1 129 0
 536              		.cfi_startproc
 537              		@ args = 0, pretend = 0, frame = 8
 538              		@ frame_needed = 1, uses_anonymous_args = 0
 539 0000 80B5     		push	{r7, lr}
 540              		.cfi_def_cfa_offset 8
 541              		.cfi_offset 7, -8
 542              		.cfi_offset 14, -4
 543 0002 82B0     		sub	sp, sp, #8
 544              		.cfi_def_cfa_offset 16
 545 0004 00AF     		add	r7, sp, #0
 546              		.cfi_def_cfa_register 7
 547 0006 7860     		str	r0, [r7, #4]
 130:.\Nextion_Communication.c ****         UART_TFT_PutString((char*)sfloat);
 548              		.loc 1 130 0
 549 0008 7868     		ldr	r0, [r7, #4]
ARM GAS  C:\Users\LocalAdmin\AppData\Local\Temp\ccpapi3q.s 			page 13


 550 000a FFF7FEFF 		bl	UART_TFT_PutString
 131:.\Nextion_Communication.c ****         UART_TFT_PutChar(0xFF);
 551              		.loc 1 131 0
 552 000e FF20     		movs	r0, #255
 553 0010 FFF7FEFF 		bl	UART_TFT_PutChar
 132:.\Nextion_Communication.c ****         UART_TFT_PutChar(0xFF);  
 554              		.loc 1 132 0
 555 0014 FF20     		movs	r0, #255
 556 0016 FFF7FEFF 		bl	UART_TFT_PutChar
 133:.\Nextion_Communication.c ****         UART_TFT_PutChar(0xFF);          
 557              		.loc 1 133 0
 558 001a FF20     		movs	r0, #255
 559 001c FFF7FEFF 		bl	UART_TFT_PutChar
 134:.\Nextion_Communication.c **** }
 560              		.loc 1 134 0
 561 0020 0837     		adds	r7, r7, #8
 562              		.cfi_def_cfa_offset 8
 563 0022 BD46     		mov	sp, r7
 564              		.cfi_def_cfa_register 13
 565              		@ sp needed
 566 0024 80BD     		pop	{r7, pc}
 567              		.cfi_endproc
 568              	.LFE59:
 569              		.size	Nextion_Send_String, .-Nextion_Send_String
 570 0026 00BF     		.section	.rodata
 571              		.align	2
 572              	.LC0:
 573 0000 74362E74 		.ascii	"t6.txt=\"\000"
 573      78743D22 
 573      00
 574 0009 000000   		.align	2
 575              	.LC1:
 576 000c 2200     		.ascii	"\"\000"
 577              		.section	.text.Nextion_Send_Sollwert,"ax",%progbits
 578              		.align	2
 579              		.global	Nextion_Send_Sollwert
 580              		.thumb
 581              		.thumb_func
 582              		.type	Nextion_Send_Sollwert, %function
 583              	Nextion_Send_Sollwert:
 584              	.LFB60:
 135:.\Nextion_Communication.c **** 
 136:.\Nextion_Communication.c **** void Nextion_Send_Sollwert(unsigned char *sfloat)
 137:.\Nextion_Communication.c **** {
 585              		.loc 1 137 0
 586              		.cfi_startproc
 587              		@ args = 0, pretend = 0, frame = 8
 588              		@ frame_needed = 1, uses_anonymous_args = 0
 589 0000 80B5     		push	{r7, lr}
 590              		.cfi_def_cfa_offset 8
 591              		.cfi_offset 7, -8
 592              		.cfi_offset 14, -4
 593 0002 82B0     		sub	sp, sp, #8
 594              		.cfi_def_cfa_offset 16
 595 0004 00AF     		add	r7, sp, #0
 596              		.cfi_def_cfa_register 7
 597 0006 7860     		str	r0, [r7, #4]
ARM GAS  C:\Users\LocalAdmin\AppData\Local\Temp\ccpapi3q.s 			page 14


 138:.\Nextion_Communication.c ****         UART_TFT_PutString((char*)"t6.txt=\"");
 598              		.loc 1 138 0
 599 0008 0D48     		ldr	r0, .L40
 600 000a FFF7FEFF 		bl	UART_TFT_PutString
 139:.\Nextion_Communication.c ****         UART_TFT_PutString((char*)sfloat);
 601              		.loc 1 139 0
 602 000e 7868     		ldr	r0, [r7, #4]
 603 0010 FFF7FEFF 		bl	UART_TFT_PutString
 140:.\Nextion_Communication.c ****         UART_TFT_PutChar(0xB0); // °
 604              		.loc 1 140 0
 605 0014 B020     		movs	r0, #176
 606 0016 FFF7FEFF 		bl	UART_TFT_PutChar
 141:.\Nextion_Communication.c ****         UART_TFT_PutChar('C');  // C            
 607              		.loc 1 141 0
 608 001a 4320     		movs	r0, #67
 609 001c FFF7FEFF 		bl	UART_TFT_PutChar
 142:.\Nextion_Communication.c ****         UART_TFT_PutString((char*)"\"");
 610              		.loc 1 142 0
 611 0020 0848     		ldr	r0, .L40+4
 612 0022 FFF7FEFF 		bl	UART_TFT_PutString
 143:.\Nextion_Communication.c ****         UART_TFT_PutChar(0xFF);
 613              		.loc 1 143 0
 614 0026 FF20     		movs	r0, #255
 615 0028 FFF7FEFF 		bl	UART_TFT_PutChar
 144:.\Nextion_Communication.c ****         UART_TFT_PutChar(0xFF);  
 616              		.loc 1 144 0
 617 002c FF20     		movs	r0, #255
 618 002e FFF7FEFF 		bl	UART_TFT_PutChar
 145:.\Nextion_Communication.c ****         UART_TFT_PutChar(0xFF);          
 619              		.loc 1 145 0
 620 0032 FF20     		movs	r0, #255
 621 0034 FFF7FEFF 		bl	UART_TFT_PutChar
 146:.\Nextion_Communication.c **** }
 622              		.loc 1 146 0
 623 0038 0837     		adds	r7, r7, #8
 624              		.cfi_def_cfa_offset 8
 625 003a BD46     		mov	sp, r7
 626              		.cfi_def_cfa_register 13
 627              		@ sp needed
 628 003c 80BD     		pop	{r7, pc}
 629              	.L41:
 630 003e 00BF     		.align	2
 631              	.L40:
 632 0040 00000000 		.word	.LC0
 633 0044 0C000000 		.word	.LC1
 634              		.cfi_endproc
 635              	.LFE60:
 636              		.size	Nextion_Send_Sollwert, .-Nextion_Send_Sollwert
 637              		.section	.rodata
 638 000e 0000     		.align	2
 639              	.LC2:
 640 0010 74312E74 		.ascii	"t1.txt=\"\000"
 640      78743D22 
 640      00
 641              		.section	.text.Nextion_Send_Sollwert_Wave,"ax",%progbits
 642              		.align	2
 643              		.global	Nextion_Send_Sollwert_Wave
ARM GAS  C:\Users\LocalAdmin\AppData\Local\Temp\ccpapi3q.s 			page 15


 644              		.thumb
 645              		.thumb_func
 646              		.type	Nextion_Send_Sollwert_Wave, %function
 647              	Nextion_Send_Sollwert_Wave:
 648              	.LFB61:
 147:.\Nextion_Communication.c **** 
 148:.\Nextion_Communication.c **** void Nextion_Send_Sollwert_Wave(unsigned char *sfloat)
 149:.\Nextion_Communication.c **** {
 649              		.loc 1 149 0
 650              		.cfi_startproc
 651              		@ args = 0, pretend = 0, frame = 8
 652              		@ frame_needed = 1, uses_anonymous_args = 0
 653 0000 80B5     		push	{r7, lr}
 654              		.cfi_def_cfa_offset 8
 655              		.cfi_offset 7, -8
 656              		.cfi_offset 14, -4
 657 0002 82B0     		sub	sp, sp, #8
 658              		.cfi_def_cfa_offset 16
 659 0004 00AF     		add	r7, sp, #0
 660              		.cfi_def_cfa_register 7
 661 0006 7860     		str	r0, [r7, #4]
 150:.\Nextion_Communication.c ****         UART_TFT_PutString((char*)"t1.txt=\"");
 662              		.loc 1 150 0
 663 0008 0A48     		ldr	r0, .L43
 664 000a FFF7FEFF 		bl	UART_TFT_PutString
 151:.\Nextion_Communication.c ****         UART_TFT_PutString((char*)sfloat);
 665              		.loc 1 151 0
 666 000e 7868     		ldr	r0, [r7, #4]
 667 0010 FFF7FEFF 		bl	UART_TFT_PutString
 152:.\Nextion_Communication.c ****         UART_TFT_PutString((char*)"\"");
 668              		.loc 1 152 0
 669 0014 0848     		ldr	r0, .L43+4
 670 0016 FFF7FEFF 		bl	UART_TFT_PutString
 153:.\Nextion_Communication.c ****         UART_TFT_PutChar(0xFF);
 671              		.loc 1 153 0
 672 001a FF20     		movs	r0, #255
 673 001c FFF7FEFF 		bl	UART_TFT_PutChar
 154:.\Nextion_Communication.c ****         UART_TFT_PutChar(0xFF);  
 674              		.loc 1 154 0
 675 0020 FF20     		movs	r0, #255
 676 0022 FFF7FEFF 		bl	UART_TFT_PutChar
 155:.\Nextion_Communication.c ****         UART_TFT_PutChar(0xFF);          
 677              		.loc 1 155 0
 678 0026 FF20     		movs	r0, #255
 679 0028 FFF7FEFF 		bl	UART_TFT_PutChar
 156:.\Nextion_Communication.c **** }
 680              		.loc 1 156 0
 681 002c 0837     		adds	r7, r7, #8
 682              		.cfi_def_cfa_offset 8
 683 002e BD46     		mov	sp, r7
 684              		.cfi_def_cfa_register 13
 685              		@ sp needed
 686 0030 80BD     		pop	{r7, pc}
 687              	.L44:
 688 0032 00BF     		.align	2
 689              	.L43:
 690 0034 10000000 		.word	.LC2
ARM GAS  C:\Users\LocalAdmin\AppData\Local\Temp\ccpapi3q.s 			page 16


 691 0038 0C000000 		.word	.LC1
 692              		.cfi_endproc
 693              	.LFE61:
 694              		.size	Nextion_Send_Sollwert_Wave, .-Nextion_Send_Sollwert_Wave
 695              		.section	.rodata
 696 0019 000000   		.align	2
 697              	.LC3:
 698 001c 74352E74 		.ascii	"t5.txt=\"\000"
 698      78743D22 
 698      00
 699              		.section	.text.Nextion_Send_Istwert,"ax",%progbits
 700              		.align	2
 701              		.global	Nextion_Send_Istwert
 702              		.thumb
 703              		.thumb_func
 704              		.type	Nextion_Send_Istwert, %function
 705              	Nextion_Send_Istwert:
 706              	.LFB62:
 157:.\Nextion_Communication.c **** 
 158:.\Nextion_Communication.c **** void Nextion_Send_Istwert(unsigned char *sfloat)
 159:.\Nextion_Communication.c **** {
 707              		.loc 1 159 0
 708              		.cfi_startproc
 709              		@ args = 0, pretend = 0, frame = 8
 710              		@ frame_needed = 1, uses_anonymous_args = 0
 711 0000 80B5     		push	{r7, lr}
 712              		.cfi_def_cfa_offset 8
 713              		.cfi_offset 7, -8
 714              		.cfi_offset 14, -4
 715 0002 82B0     		sub	sp, sp, #8
 716              		.cfi_def_cfa_offset 16
 717 0004 00AF     		add	r7, sp, #0
 718              		.cfi_def_cfa_register 7
 719 0006 7860     		str	r0, [r7, #4]
 160:.\Nextion_Communication.c ****         UART_TFT_PutString((char*)"t5.txt=\"");
 720              		.loc 1 160 0
 721 0008 0D48     		ldr	r0, .L46
 722 000a FFF7FEFF 		bl	UART_TFT_PutString
 161:.\Nextion_Communication.c ****         UART_TFT_PutString((char*)sfloat);
 723              		.loc 1 161 0
 724 000e 7868     		ldr	r0, [r7, #4]
 725 0010 FFF7FEFF 		bl	UART_TFT_PutString
 162:.\Nextion_Communication.c ****         UART_TFT_PutChar(0xB0); // °
 726              		.loc 1 162 0
 727 0014 B020     		movs	r0, #176
 728 0016 FFF7FEFF 		bl	UART_TFT_PutChar
 163:.\Nextion_Communication.c ****         UART_TFT_PutChar('C');  // C       
 729              		.loc 1 163 0
 730 001a 4320     		movs	r0, #67
 731 001c FFF7FEFF 		bl	UART_TFT_PutChar
 164:.\Nextion_Communication.c ****         UART_TFT_PutString((char*)"\"");
 732              		.loc 1 164 0
 733 0020 0848     		ldr	r0, .L46+4
 734 0022 FFF7FEFF 		bl	UART_TFT_PutString
 165:.\Nextion_Communication.c ****         UART_TFT_PutChar(0xFF);
 735              		.loc 1 165 0
 736 0026 FF20     		movs	r0, #255
ARM GAS  C:\Users\LocalAdmin\AppData\Local\Temp\ccpapi3q.s 			page 17


 737 0028 FFF7FEFF 		bl	UART_TFT_PutChar
 166:.\Nextion_Communication.c ****         UART_TFT_PutChar(0xFF);  
 738              		.loc 1 166 0
 739 002c FF20     		movs	r0, #255
 740 002e FFF7FEFF 		bl	UART_TFT_PutChar
 167:.\Nextion_Communication.c ****         UART_TFT_PutChar(0xFF);          
 741              		.loc 1 167 0
 742 0032 FF20     		movs	r0, #255
 743 0034 FFF7FEFF 		bl	UART_TFT_PutChar
 168:.\Nextion_Communication.c **** }
 744              		.loc 1 168 0
 745 0038 0837     		adds	r7, r7, #8
 746              		.cfi_def_cfa_offset 8
 747 003a BD46     		mov	sp, r7
 748              		.cfi_def_cfa_register 13
 749              		@ sp needed
 750 003c 80BD     		pop	{r7, pc}
 751              	.L47:
 752 003e 00BF     		.align	2
 753              	.L46:
 754 0040 1C000000 		.word	.LC3
 755 0044 0C000000 		.word	.LC1
 756              		.cfi_endproc
 757              	.LFE62:
 758              		.size	Nextion_Send_Istwert, .-Nextion_Send_Istwert
 759              		.global	__aeabi_f2uiz
 760              		.section	.rodata
 761 0025 000000   		.align	2
 762              	.LC4:
 763 0028 6E302E76 		.ascii	"n0.val=\000"
 763      616C3D00 
 764              		.section	.text.Nextion_Send_Istwert_Setup,"ax",%progbits
 765              		.align	2
 766              		.global	Nextion_Send_Istwert_Setup
 767              		.thumb
 768              		.thumb_func
 769              		.type	Nextion_Send_Istwert_Setup, %function
 770              	Nextion_Send_Istwert_Setup:
 771              	.LFB63:
 169:.\Nextion_Communication.c **** 
 170:.\Nextion_Communication.c **** 
 171:.\Nextion_Communication.c **** void Nextion_Send_Istwert_Setup(float sollwert)
 172:.\Nextion_Communication.c **** {
 772              		.loc 1 172 0
 773              		.cfi_startproc
 774              		@ args = 0, pretend = 0, frame = 24
 775              		@ frame_needed = 1, uses_anonymous_args = 0
 776 0000 80B5     		push	{r7, lr}
 777              		.cfi_def_cfa_offset 8
 778              		.cfi_offset 7, -8
 779              		.cfi_offset 14, -4
 780 0002 86B0     		sub	sp, sp, #24
 781              		.cfi_def_cfa_offset 32
 782 0004 00AF     		add	r7, sp, #0
 783              		.cfi_def_cfa_register 7
 784 0006 7860     		str	r0, [r7, #4]	@ float
 173:.\Nextion_Communication.c ****         char s[10];
ARM GAS  C:\Users\LocalAdmin\AppData\Local\Temp\ccpapi3q.s 			page 18


 174:.\Nextion_Communication.c ****         int w = (unsigned char)sollwert;
 785              		.loc 1 174 0
 786 0008 7868     		ldr	r0, [r7, #4]	@ float
 787 000a FFF7FEFF 		bl	__aeabi_f2uiz
 788 000e 0346     		mov	r3, r0
 789 0010 DBB2     		uxtb	r3, r3
 790 0012 7B61     		str	r3, [r7, #20]
 175:.\Nextion_Communication.c ****         myitoa(w,s,3,1);
 791              		.loc 1 175 0
 792 0014 07F10803 		add	r3, r7, #8
 793 0018 7869     		ldr	r0, [r7, #20]
 794 001a 1946     		mov	r1, r3
 795 001c 0322     		movs	r2, #3
 796 001e 0123     		movs	r3, #1
 797 0020 FFF7FEFF 		bl	myitoa
 176:.\Nextion_Communication.c ****         UART_TFT_PutString((char*)"n0.val=");
 798              		.loc 1 176 0
 799 0024 0948     		ldr	r0, .L49
 800 0026 FFF7FEFF 		bl	UART_TFT_PutString
 177:.\Nextion_Communication.c ****         UART_TFT_PutString((char*)s);
 801              		.loc 1 177 0
 802 002a 07F10803 		add	r3, r7, #8
 803 002e 1846     		mov	r0, r3
 804 0030 FFF7FEFF 		bl	UART_TFT_PutString
 178:.\Nextion_Communication.c ****         UART_TFT_PutChar(0xFF);
 805              		.loc 1 178 0
 806 0034 FF20     		movs	r0, #255
 807 0036 FFF7FEFF 		bl	UART_TFT_PutChar
 179:.\Nextion_Communication.c ****         UART_TFT_PutChar(0xFF);  
 808              		.loc 1 179 0
 809 003a FF20     		movs	r0, #255
 810 003c FFF7FEFF 		bl	UART_TFT_PutChar
 180:.\Nextion_Communication.c ****         UART_TFT_PutChar(0xFF);          
 811              		.loc 1 180 0
 812 0040 FF20     		movs	r0, #255
 813 0042 FFF7FEFF 		bl	UART_TFT_PutChar
 181:.\Nextion_Communication.c **** }
 814              		.loc 1 181 0
 815 0046 1837     		adds	r7, r7, #24
 816              		.cfi_def_cfa_offset 8
 817 0048 BD46     		mov	sp, r7
 818              		.cfi_def_cfa_register 13
 819              		@ sp needed
 820 004a 80BD     		pop	{r7, pc}
 821              	.L50:
 822              		.align	2
 823              	.L49:
 824 004c 28000000 		.word	.LC4
 825              		.cfi_endproc
 826              	.LFE63:
 827              		.size	Nextion_Send_Istwert_Setup, .-Nextion_Send_Istwert_Setup
 828              		.section	.rodata
 829              		.align	2
 830              	.LC5:
 831 0030 2E747874 		.ascii	".txt=\"\000"
 831      3D2200
 832              		.section	.text.Nextion_Send_Text_to_Textbox,"ax",%progbits
ARM GAS  C:\Users\LocalAdmin\AppData\Local\Temp\ccpapi3q.s 			page 19


 833              		.align	2
 834              		.global	Nextion_Send_Text_to_Textbox
 835              		.thumb
 836              		.thumb_func
 837              		.type	Nextion_Send_Text_to_Textbox, %function
 838              	Nextion_Send_Text_to_Textbox:
 839              	.LFB64:
 182:.\Nextion_Communication.c **** 
 183:.\Nextion_Communication.c **** void Nextion_Send_Text_to_Textbox(unsigned char *textbox,unsigned char *sfloat)
 184:.\Nextion_Communication.c **** {
 840              		.loc 1 184 0
 841              		.cfi_startproc
 842              		@ args = 0, pretend = 0, frame = 8
 843              		@ frame_needed = 1, uses_anonymous_args = 0
 844 0000 80B5     		push	{r7, lr}
 845              		.cfi_def_cfa_offset 8
 846              		.cfi_offset 7, -8
 847              		.cfi_offset 14, -4
 848 0002 82B0     		sub	sp, sp, #8
 849              		.cfi_def_cfa_offset 16
 850 0004 00AF     		add	r7, sp, #0
 851              		.cfi_def_cfa_register 7
 852 0006 7860     		str	r0, [r7, #4]
 853 0008 3960     		str	r1, [r7]
 185:.\Nextion_Communication.c ****         UART_TFT_PutString((char*)textbox);
 854              		.loc 1 185 0
 855 000a 7868     		ldr	r0, [r7, #4]
 856 000c FFF7FEFF 		bl	UART_TFT_PutString
 186:.\Nextion_Communication.c ****         UART_TFT_PutString(".txt=\""); 
 857              		.loc 1 186 0
 858 0010 0A48     		ldr	r0, .L52
 859 0012 FFF7FEFF 		bl	UART_TFT_PutString
 187:.\Nextion_Communication.c ****         UART_TFT_PutString((char*)sfloat);
 860              		.loc 1 187 0
 861 0016 3868     		ldr	r0, [r7]
 862 0018 FFF7FEFF 		bl	UART_TFT_PutString
 188:.\Nextion_Communication.c ****         UART_TFT_PutString((char*)"\"");
 863              		.loc 1 188 0
 864 001c 0848     		ldr	r0, .L52+4
 865 001e FFF7FEFF 		bl	UART_TFT_PutString
 189:.\Nextion_Communication.c ****         UART_TFT_PutChar(0xFF);
 866              		.loc 1 189 0
 867 0022 FF20     		movs	r0, #255
 868 0024 FFF7FEFF 		bl	UART_TFT_PutChar
 190:.\Nextion_Communication.c ****         UART_TFT_PutChar(0xFF);  
 869              		.loc 1 190 0
 870 0028 FF20     		movs	r0, #255
 871 002a FFF7FEFF 		bl	UART_TFT_PutChar
 191:.\Nextion_Communication.c ****         UART_TFT_PutChar(0xFF);          
 872              		.loc 1 191 0
 873 002e FF20     		movs	r0, #255
 874 0030 FFF7FEFF 		bl	UART_TFT_PutChar
 192:.\Nextion_Communication.c **** }
 875              		.loc 1 192 0
 876 0034 0837     		adds	r7, r7, #8
 877              		.cfi_def_cfa_offset 8
 878 0036 BD46     		mov	sp, r7
ARM GAS  C:\Users\LocalAdmin\AppData\Local\Temp\ccpapi3q.s 			page 20


 879              		.cfi_def_cfa_register 13
 880              		@ sp needed
 881 0038 80BD     		pop	{r7, pc}
 882              	.L53:
 883 003a 00BF     		.align	2
 884              	.L52:
 885 003c 30000000 		.word	.LC5
 886 0040 0C000000 		.word	.LC1
 887              		.cfi_endproc
 888              	.LFE64:
 889              		.size	Nextion_Send_Text_to_Textbox, .-Nextion_Send_Text_to_Textbox
 890              		.section	.text.Nextion_Send_Value_to_Textbox,"ax",%progbits
 891              		.align	2
 892              		.global	Nextion_Send_Value_to_Textbox
 893              		.thumb
 894              		.thumb_func
 895              		.type	Nextion_Send_Value_to_Textbox, %function
 896              	Nextion_Send_Value_to_Textbox:
 897              	.LFB65:
 193:.\Nextion_Communication.c **** 
 194:.\Nextion_Communication.c **** void Nextion_Send_Value_to_Textbox(unsigned char *textbox,float value)
 195:.\Nextion_Communication.c **** {
 898              		.loc 1 195 0
 899              		.cfi_startproc
 900              		@ args = 0, pretend = 0, frame = 24
 901              		@ frame_needed = 1, uses_anonymous_args = 0
 902 0000 80B5     		push	{r7, lr}
 903              		.cfi_def_cfa_offset 8
 904              		.cfi_offset 7, -8
 905              		.cfi_offset 14, -4
 906 0002 86B0     		sub	sp, sp, #24
 907              		.cfi_def_cfa_offset 32
 908 0004 00AF     		add	r7, sp, #0
 909              		.cfi_def_cfa_register 7
 910 0006 7860     		str	r0, [r7, #4]
 911 0008 3960     		str	r1, [r7]	@ float
 196:.\Nextion_Communication.c ****         char sfloat[10];
 197:.\Nextion_Communication.c ****         // Float anzeigewert to ASCII
 198:.\Nextion_Communication.c ****         ftoa(value,3,sfloat);    
 912              		.loc 1 198 0
 913 000a 07F10C03 		add	r3, r7, #12
 914 000e 3868     		ldr	r0, [r7]	@ float
 915 0010 0321     		movs	r1, #3
 916 0012 1A46     		mov	r2, r3
 917 0014 FFF7FEFF 		bl	ftoa
 199:.\Nextion_Communication.c ****         UART_TFT_PutString((char*)textbox);
 918              		.loc 1 199 0
 919 0018 7868     		ldr	r0, [r7, #4]
 920 001a FFF7FEFF 		bl	UART_TFT_PutString
 200:.\Nextion_Communication.c ****         UART_TFT_PutString(".txt=\""); 
 921              		.loc 1 200 0
 922 001e 0B48     		ldr	r0, .L55
 923 0020 FFF7FEFF 		bl	UART_TFT_PutString
 201:.\Nextion_Communication.c ****         UART_TFT_PutString((char*)sfloat);
 924              		.loc 1 201 0
 925 0024 07F10C03 		add	r3, r7, #12
 926 0028 1846     		mov	r0, r3
ARM GAS  C:\Users\LocalAdmin\AppData\Local\Temp\ccpapi3q.s 			page 21


 927 002a FFF7FEFF 		bl	UART_TFT_PutString
 202:.\Nextion_Communication.c ****         UART_TFT_PutString((char*)"\"");
 928              		.loc 1 202 0
 929 002e 0848     		ldr	r0, .L55+4
 930 0030 FFF7FEFF 		bl	UART_TFT_PutString
 203:.\Nextion_Communication.c ****         UART_TFT_PutChar(0xFF);
 931              		.loc 1 203 0
 932 0034 FF20     		movs	r0, #255
 933 0036 FFF7FEFF 		bl	UART_TFT_PutChar
 204:.\Nextion_Communication.c ****         UART_TFT_PutChar(0xFF);  
 934              		.loc 1 204 0
 935 003a FF20     		movs	r0, #255
 936 003c FFF7FEFF 		bl	UART_TFT_PutChar
 205:.\Nextion_Communication.c ****         UART_TFT_PutChar(0xFF);          
 937              		.loc 1 205 0
 938 0040 FF20     		movs	r0, #255
 939 0042 FFF7FEFF 		bl	UART_TFT_PutChar
 206:.\Nextion_Communication.c **** }
 940              		.loc 1 206 0
 941 0046 1837     		adds	r7, r7, #24
 942              		.cfi_def_cfa_offset 8
 943 0048 BD46     		mov	sp, r7
 944              		.cfi_def_cfa_register 13
 945              		@ sp needed
 946 004a 80BD     		pop	{r7, pc}
 947              	.L56:
 948              		.align	2
 949              	.L55:
 950 004c 30000000 		.word	.LC5
 951 0050 0C000000 		.word	.LC1
 952              		.cfi_endproc
 953              	.LFE65:
 954              		.size	Nextion_Send_Value_to_Textbox, .-Nextion_Send_Value_to_Textbox
 955              		.section	.rodata
 956 0037 00       		.align	2
 957              	.LC6:
 958 0038 252200   		.ascii	"%\"\000"
 959              		.section	.text.Nextion_Send_Stellwert,"ax",%progbits
 960              		.align	2
 961              		.global	Nextion_Send_Stellwert
 962              		.thumb
 963              		.thumb_func
 964              		.type	Nextion_Send_Stellwert, %function
 965              	Nextion_Send_Stellwert:
 966              	.LFB66:
 207:.\Nextion_Communication.c **** 
 208:.\Nextion_Communication.c **** 
 209:.\Nextion_Communication.c **** void Nextion_Send_Stellwert(unsigned char *istint)
 210:.\Nextion_Communication.c **** {
 967              		.loc 1 210 0
 968              		.cfi_startproc
 969              		@ args = 0, pretend = 0, frame = 8
 970              		@ frame_needed = 1, uses_anonymous_args = 0
 971 0000 80B5     		push	{r7, lr}
 972              		.cfi_def_cfa_offset 8
 973              		.cfi_offset 7, -8
 974              		.cfi_offset 14, -4
ARM GAS  C:\Users\LocalAdmin\AppData\Local\Temp\ccpapi3q.s 			page 22


 975 0002 82B0     		sub	sp, sp, #8
 976              		.cfi_def_cfa_offset 16
 977 0004 00AF     		add	r7, sp, #0
 978              		.cfi_def_cfa_register 7
 979 0006 7860     		str	r0, [r7, #4]
 211:.\Nextion_Communication.c ****         UART_TFT_PutString((char*)"t1.txt=\"");
 980              		.loc 1 211 0
 981 0008 0A48     		ldr	r0, .L58
 982 000a FFF7FEFF 		bl	UART_TFT_PutString
 212:.\Nextion_Communication.c ****         UART_TFT_PutString((char*)istint);
 983              		.loc 1 212 0
 984 000e 7868     		ldr	r0, [r7, #4]
 985 0010 FFF7FEFF 		bl	UART_TFT_PutString
 213:.\Nextion_Communication.c ****         UART_TFT_PutString((char*)"%\"");
 986              		.loc 1 213 0
 987 0014 0848     		ldr	r0, .L58+4
 988 0016 FFF7FEFF 		bl	UART_TFT_PutString
 214:.\Nextion_Communication.c ****         UART_TFT_PutChar(0xFF);
 989              		.loc 1 214 0
 990 001a FF20     		movs	r0, #255
 991 001c FFF7FEFF 		bl	UART_TFT_PutChar
 215:.\Nextion_Communication.c ****         UART_TFT_PutChar(0xFF);  
 992              		.loc 1 215 0
 993 0020 FF20     		movs	r0, #255
 994 0022 FFF7FEFF 		bl	UART_TFT_PutChar
 216:.\Nextion_Communication.c ****         UART_TFT_PutChar(0xFF);          
 995              		.loc 1 216 0
 996 0026 FF20     		movs	r0, #255
 997 0028 FFF7FEFF 		bl	UART_TFT_PutChar
 217:.\Nextion_Communication.c **** }
 998              		.loc 1 217 0
 999 002c 0837     		adds	r7, r7, #8
 1000              		.cfi_def_cfa_offset 8
 1001 002e BD46     		mov	sp, r7
 1002              		.cfi_def_cfa_register 13
 1003              		@ sp needed
 1004 0030 80BD     		pop	{r7, pc}
 1005              	.L59:
 1006 0032 00BF     		.align	2
 1007              	.L58:
 1008 0034 10000000 		.word	.LC2
 1009 0038 38000000 		.word	.LC6
 1010              		.cfi_endproc
 1011              	.LFE66:
 1012              		.size	Nextion_Send_Stellwert, .-Nextion_Send_Stellwert
 1013              		.section	.rodata
 1014 003b 00       		.align	2
 1015              	.LC7:
 1016 003c 6A302E76 		.ascii	"j0.val=\000"
 1016      616C3D00 
 1017              		.section	.text.Nextion_Send_Stellwert_Progressbar,"ax",%progbits
 1018              		.align	2
 1019              		.global	Nextion_Send_Stellwert_Progressbar
 1020              		.thumb
 1021              		.thumb_func
 1022              		.type	Nextion_Send_Stellwert_Progressbar, %function
 1023              	Nextion_Send_Stellwert_Progressbar:
ARM GAS  C:\Users\LocalAdmin\AppData\Local\Temp\ccpapi3q.s 			page 23


 1024              	.LFB67:
 218:.\Nextion_Communication.c **** 
 219:.\Nextion_Communication.c **** void Nextion_Send_Stellwert_Progressbar(unsigned char *istint)
 220:.\Nextion_Communication.c **** {
 1025              		.loc 1 220 0
 1026              		.cfi_startproc
 1027              		@ args = 0, pretend = 0, frame = 8
 1028              		@ frame_needed = 1, uses_anonymous_args = 0
 1029 0000 80B5     		push	{r7, lr}
 1030              		.cfi_def_cfa_offset 8
 1031              		.cfi_offset 7, -8
 1032              		.cfi_offset 14, -4
 1033 0002 82B0     		sub	sp, sp, #8
 1034              		.cfi_def_cfa_offset 16
 1035 0004 00AF     		add	r7, sp, #0
 1036              		.cfi_def_cfa_register 7
 1037 0006 7860     		str	r0, [r7, #4]
 221:.\Nextion_Communication.c ****         UART_TFT_PutString((char*)"j0.val=");
 1038              		.loc 1 221 0
 1039 0008 0848     		ldr	r0, .L61
 1040 000a FFF7FEFF 		bl	UART_TFT_PutString
 222:.\Nextion_Communication.c ****         UART_TFT_PutString((char*)istint);
 1041              		.loc 1 222 0
 1042 000e 7868     		ldr	r0, [r7, #4]
 1043 0010 FFF7FEFF 		bl	UART_TFT_PutString
 223:.\Nextion_Communication.c ****         UART_TFT_PutChar(0xFF);
 1044              		.loc 1 223 0
 1045 0014 FF20     		movs	r0, #255
 1046 0016 FFF7FEFF 		bl	UART_TFT_PutChar
 224:.\Nextion_Communication.c ****         UART_TFT_PutChar(0xFF);  
 1047              		.loc 1 224 0
 1048 001a FF20     		movs	r0, #255
 1049 001c FFF7FEFF 		bl	UART_TFT_PutChar
 225:.\Nextion_Communication.c ****         UART_TFT_PutChar(0xFF);          
 1050              		.loc 1 225 0
 1051 0020 FF20     		movs	r0, #255
 1052 0022 FFF7FEFF 		bl	UART_TFT_PutChar
 226:.\Nextion_Communication.c **** }
 1053              		.loc 1 226 0
 1054 0026 0837     		adds	r7, r7, #8
 1055              		.cfi_def_cfa_offset 8
 1056 0028 BD46     		mov	sp, r7
 1057              		.cfi_def_cfa_register 13
 1058              		@ sp needed
 1059 002a 80BD     		pop	{r7, pc}
 1060              	.L62:
 1061              		.align	2
 1062              	.L61:
 1063 002c 3C000000 		.word	.LC7
 1064              		.cfi_endproc
 1065              	.LFE67:
 1066              		.size	Nextion_Send_Stellwert_Progressbar, .-Nextion_Send_Stellwert_Progressbar
 1067              		.section	.rodata
 1068              		.align	2
 1069              	.LC8:
 1070 0044 61646420 		.ascii	"add 1,1,\000"
 1070      312C312C 
ARM GAS  C:\Users\LocalAdmin\AppData\Local\Temp\ccpapi3q.s 			page 24


 1070      00
 1071              		.section	.text.Nextion_Send_WaveValue,"ax",%progbits
 1072              		.align	2
 1073              		.global	Nextion_Send_WaveValue
 1074              		.thumb
 1075              		.thumb_func
 1076              		.type	Nextion_Send_WaveValue, %function
 1077              	Nextion_Send_WaveValue:
 1078              	.LFB68:
 227:.\Nextion_Communication.c **** 
 228:.\Nextion_Communication.c **** void Nextion_Send_WaveValue(unsigned char *sint)
 229:.\Nextion_Communication.c **** {
 1079              		.loc 1 229 0
 1080              		.cfi_startproc
 1081              		@ args = 0, pretend = 0, frame = 8
 1082              		@ frame_needed = 1, uses_anonymous_args = 0
 1083 0000 80B5     		push	{r7, lr}
 1084              		.cfi_def_cfa_offset 8
 1085              		.cfi_offset 7, -8
 1086              		.cfi_offset 14, -4
 1087 0002 82B0     		sub	sp, sp, #8
 1088              		.cfi_def_cfa_offset 16
 1089 0004 00AF     		add	r7, sp, #0
 1090              		.cfi_def_cfa_register 7
 1091 0006 7860     		str	r0, [r7, #4]
 230:.\Nextion_Communication.c ****         UART_TFT_PutString((char*)"add 1,1,");
 1092              		.loc 1 230 0
 1093 0008 0848     		ldr	r0, .L64
 1094 000a FFF7FEFF 		bl	UART_TFT_PutString
 231:.\Nextion_Communication.c ****         UART_TFT_PutString((char*)sint);
 1095              		.loc 1 231 0
 1096 000e 7868     		ldr	r0, [r7, #4]
 1097 0010 FFF7FEFF 		bl	UART_TFT_PutString
 232:.\Nextion_Communication.c ****         UART_TFT_PutChar(0xFF);
 1098              		.loc 1 232 0
 1099 0014 FF20     		movs	r0, #255
 1100 0016 FFF7FEFF 		bl	UART_TFT_PutChar
 233:.\Nextion_Communication.c ****         UART_TFT_PutChar(0xFF);  
 1101              		.loc 1 233 0
 1102 001a FF20     		movs	r0, #255
 1103 001c FFF7FEFF 		bl	UART_TFT_PutChar
 234:.\Nextion_Communication.c ****         UART_TFT_PutChar(0xFF);          
 1104              		.loc 1 234 0
 1105 0020 FF20     		movs	r0, #255
 1106 0022 FFF7FEFF 		bl	UART_TFT_PutChar
 235:.\Nextion_Communication.c **** }
 1107              		.loc 1 235 0
 1108 0026 0837     		adds	r7, r7, #8
 1109              		.cfi_def_cfa_offset 8
 1110 0028 BD46     		mov	sp, r7
 1111              		.cfi_def_cfa_register 13
 1112              		@ sp needed
 1113 002a 80BD     		pop	{r7, pc}
 1114              	.L65:
 1115              		.align	2
 1116              	.L64:
 1117 002c 44000000 		.word	.LC8
ARM GAS  C:\Users\LocalAdmin\AppData\Local\Temp\ccpapi3q.s 			page 25


 1118              		.cfi_endproc
 1119              	.LFE68:
 1120              		.size	Nextion_Send_WaveValue, .-Nextion_Send_WaveValue
 1121              		.section	.rodata
 1122 004d 000000   		.align	2
 1123              	.LC9:
 1124 0050 61646420 		.ascii	"add 1,2,\000"
 1124      312C322C 
 1124      00
 1125 0059 000000   		.section	.text.Nextion_Send_WaveValue_Messkammer,"ax",%progbits
 1126              		.align	2
 1127              		.global	Nextion_Send_WaveValue_Messkammer
 1128              		.thumb
 1129              		.thumb_func
 1130              		.type	Nextion_Send_WaveValue_Messkammer, %function
 1131              	Nextion_Send_WaveValue_Messkammer:
 1132              	.LFB69:
 236:.\Nextion_Communication.c **** 
 237:.\Nextion_Communication.c **** 
 238:.\Nextion_Communication.c **** void Nextion_Send_WaveValue_Messkammer(unsigned char *sint)
 239:.\Nextion_Communication.c **** {
 1133              		.loc 1 239 0
 1134              		.cfi_startproc
 1135              		@ args = 0, pretend = 0, frame = 8
 1136              		@ frame_needed = 1, uses_anonymous_args = 0
 1137 0000 80B5     		push	{r7, lr}
 1138              		.cfi_def_cfa_offset 8
 1139              		.cfi_offset 7, -8
 1140              		.cfi_offset 14, -4
 1141 0002 82B0     		sub	sp, sp, #8
 1142              		.cfi_def_cfa_offset 16
 1143 0004 00AF     		add	r7, sp, #0
 1144              		.cfi_def_cfa_register 7
 1145 0006 7860     		str	r0, [r7, #4]
 240:.\Nextion_Communication.c ****         UART_TFT_PutString((char*)"add 1,2,");
 1146              		.loc 1 240 0
 1147 0008 0848     		ldr	r0, .L67
 1148 000a FFF7FEFF 		bl	UART_TFT_PutString
 241:.\Nextion_Communication.c ****         UART_TFT_PutString((char*)sint);
 1149              		.loc 1 241 0
 1150 000e 7868     		ldr	r0, [r7, #4]
 1151 0010 FFF7FEFF 		bl	UART_TFT_PutString
 242:.\Nextion_Communication.c ****         UART_TFT_PutChar(0xFF);
 1152              		.loc 1 242 0
 1153 0014 FF20     		movs	r0, #255
 1154 0016 FFF7FEFF 		bl	UART_TFT_PutChar
 243:.\Nextion_Communication.c ****         UART_TFT_PutChar(0xFF);  
 1155              		.loc 1 243 0
 1156 001a FF20     		movs	r0, #255
 1157 001c FFF7FEFF 		bl	UART_TFT_PutChar
 244:.\Nextion_Communication.c ****         UART_TFT_PutChar(0xFF);          
 1158              		.loc 1 244 0
 1159 0020 FF20     		movs	r0, #255
 1160 0022 FFF7FEFF 		bl	UART_TFT_PutChar
 245:.\Nextion_Communication.c **** }
 1161              		.loc 1 245 0
 1162 0026 0837     		adds	r7, r7, #8
ARM GAS  C:\Users\LocalAdmin\AppData\Local\Temp\ccpapi3q.s 			page 26


 1163              		.cfi_def_cfa_offset 8
 1164 0028 BD46     		mov	sp, r7
 1165              		.cfi_def_cfa_register 13
 1166              		@ sp needed
 1167 002a 80BD     		pop	{r7, pc}
 1168              	.L68:
 1169              		.align	2
 1170              	.L67:
 1171 002c 50000000 		.word	.LC9
 1172              		.cfi_endproc
 1173              	.LFE69:
 1174              		.size	Nextion_Send_WaveValue_Messkammer, .-Nextion_Send_WaveValue_Messkammer
 1175              		.text
 1176              	.Letext0:
 1177              		.file 2 "c:\\program files (x86)\\cypress\\psoc creator\\3.3\\psoc creator\\import\\gnu\\arm\\4.9.
 1178              		.file 3 "c:\\program files (x86)\\cypress\\psoc creator\\3.3\\psoc creator\\import\\gnu\\arm\\4.9.
 1179              		.file 4 "Generated_Source\\PSoC5/core_cm3.h"
 1180              		.section	.debug_info,"",%progbits
 1181              	.Ldebug_info0:
 1182 0000 AF030000 		.4byte	0x3af
 1183 0004 0400     		.2byte	0x4
 1184 0006 00000000 		.4byte	.Ldebug_abbrev0
 1185 000a 04       		.byte	0x4
 1186 000b 01       		.uleb128 0x1
 1187 000c 12010000 		.4byte	.LASF40
 1188 0010 01       		.byte	0x1
 1189 0011 7A000000 		.4byte	.LASF41
 1190 0015 79020000 		.4byte	.LASF42
 1191 0019 00000000 		.4byte	.Ldebug_ranges0+0
 1192 001d 00000000 		.4byte	0
 1193 0021 00000000 		.4byte	.Ldebug_line0
 1194 0025 02       		.uleb128 0x2
 1195 0026 01       		.byte	0x1
 1196 0027 06       		.byte	0x6
 1197 0028 A1000000 		.4byte	.LASF0
 1198 002c 02       		.uleb128 0x2
 1199 002d 01       		.byte	0x1
 1200 002e 08       		.byte	0x8
 1201 002f F8010000 		.4byte	.LASF1
 1202 0033 02       		.uleb128 0x2
 1203 0034 02       		.byte	0x2
 1204 0035 05       		.byte	0x5
 1205 0036 11030000 		.4byte	.LASF2
 1206 003a 02       		.uleb128 0x2
 1207 003b 02       		.byte	0x2
 1208 003c 07       		.byte	0x7
 1209 003d CF000000 		.4byte	.LASF3
 1210 0041 03       		.uleb128 0x3
 1211 0042 22000000 		.4byte	.LASF9
 1212 0046 02       		.byte	0x2
 1213 0047 3F       		.byte	0x3f
 1214 0048 4C000000 		.4byte	0x4c
 1215 004c 02       		.uleb128 0x2
 1216 004d 04       		.byte	0x4
 1217 004e 05       		.byte	0x5
 1218 004f 22030000 		.4byte	.LASF4
 1219 0053 02       		.uleb128 0x2
ARM GAS  C:\Users\LocalAdmin\AppData\Local\Temp\ccpapi3q.s 			page 27


 1220 0054 04       		.byte	0x4
 1221 0055 07       		.byte	0x7
 1222 0056 BD000000 		.4byte	.LASF5
 1223 005a 02       		.uleb128 0x2
 1224 005b 08       		.byte	0x8
 1225 005c 05       		.byte	0x5
 1226 005d F6020000 		.4byte	.LASF6
 1227 0061 02       		.uleb128 0x2
 1228 0062 08       		.byte	0x8
 1229 0063 07       		.byte	0x7
 1230 0064 36020000 		.4byte	.LASF7
 1231 0068 04       		.uleb128 0x4
 1232 0069 04       		.byte	0x4
 1233 006a 05       		.byte	0x5
 1234 006b 696E7400 		.ascii	"int\000"
 1235 006f 02       		.uleb128 0x2
 1236 0070 04       		.byte	0x4
 1237 0071 07       		.byte	0x7
 1238 0072 06020000 		.4byte	.LASF8
 1239 0076 03       		.uleb128 0x3
 1240 0077 09030000 		.4byte	.LASF10
 1241 007b 03       		.byte	0x3
 1242 007c 2C       		.byte	0x2c
 1243 007d 41000000 		.4byte	0x41
 1244 0081 02       		.uleb128 0x2
 1245 0082 04       		.byte	0x4
 1246 0083 04       		.byte	0x4
 1247 0084 9B000000 		.4byte	.LASF11
 1248 0088 02       		.uleb128 0x2
 1249 0089 08       		.byte	0x8
 1250 008a 04       		.byte	0x4
 1251 008b A0010000 		.4byte	.LASF12
 1252 008f 02       		.uleb128 0x2
 1253 0090 01       		.byte	0x1
 1254 0091 08       		.byte	0x8
 1255 0092 04030000 		.4byte	.LASF13
 1256 0096 02       		.uleb128 0x2
 1257 0097 04       		.byte	0x4
 1258 0098 07       		.byte	0x7
 1259 0099 E5020000 		.4byte	.LASF14
 1260 009d 05       		.uleb128 0x5
 1261 009e 04       		.byte	0x4
 1262 009f 2C000000 		.4byte	0x2c
 1263 00a3 05       		.uleb128 0x5
 1264 00a4 04       		.byte	0x4
 1265 00a5 8F000000 		.4byte	0x8f
 1266 00a9 06       		.uleb128 0x6
 1267 00aa 94000000 		.4byte	.LASF43
 1268 00ae 01       		.byte	0x1
 1269 00af 10       		.byte	0x10
 1270 00b0 68000000 		.4byte	0x68
 1271 00b4 00000000 		.4byte	.LFB56
 1272 00b8 34000000 		.4byte	.LFE56-.LFB56
 1273 00bc 01       		.uleb128 0x1
 1274 00bd 9C       		.byte	0x9c
 1275 00be CF000000 		.4byte	0xcf
 1276 00c2 07       		.uleb128 0x7
ARM GAS  C:\Users\LocalAdmin\AppData\Local\Temp\ccpapi3q.s 			page 28


 1277 00c3 7800     		.ascii	"x\000"
 1278 00c5 01       		.byte	0x1
 1279 00c6 10       		.byte	0x10
 1280 00c7 81000000 		.4byte	0x81
 1281 00cb 02       		.uleb128 0x2
 1282 00cc 91       		.byte	0x91
 1283 00cd 74       		.sleb128 -12
 1284 00ce 00       		.byte	0
 1285 00cf 08       		.uleb128 0x8
 1286 00d0 74020000 		.4byte	.LASF16
 1287 00d4 01       		.byte	0x1
 1288 00d5 22       		.byte	0x22
 1289 00d6 00000000 		.4byte	.LFB57
 1290 00da EC010000 		.4byte	.LFE57-.LFB57
 1291 00de 01       		.uleb128 0x1
 1292 00df 9C       		.byte	0x9c
 1293 00e0 31010000 		.4byte	0x131
 1294 00e4 07       		.uleb128 0x7
 1295 00e5 7800     		.ascii	"x\000"
 1296 00e7 01       		.byte	0x1
 1297 00e8 22       		.byte	0x22
 1298 00e9 81000000 		.4byte	0x81
 1299 00ed 02       		.uleb128 0x2
 1300 00ee 91       		.byte	0x91
 1301 00ef 5C       		.sleb128 -36
 1302 00f0 07       		.uleb128 0x7
 1303 00f1 6600     		.ascii	"f\000"
 1304 00f3 01       		.byte	0x1
 1305 00f4 22       		.byte	0x22
 1306 00f5 68000000 		.4byte	0x68
 1307 00f9 02       		.uleb128 0x2
 1308 00fa 91       		.byte	0x91
 1309 00fb 58       		.sleb128 -40
 1310 00fc 07       		.uleb128 0x7
 1311 00fd 73747200 		.ascii	"str\000"
 1312 0101 01       		.byte	0x1
 1313 0102 22       		.byte	0x22
 1314 0103 A3000000 		.4byte	0xa3
 1315 0107 02       		.uleb128 0x2
 1316 0108 91       		.byte	0x91
 1317 0109 54       		.sleb128 -44
 1318 010a 09       		.uleb128 0x9
 1319 010b 74000000 		.4byte	.LASF15
 1320 010f 01       		.byte	0x1
 1321 0110 24       		.byte	0x24
 1322 0111 81000000 		.4byte	0x81
 1323 0115 02       		.uleb128 0x2
 1324 0116 91       		.byte	0x91
 1325 0117 6C       		.sleb128 -20
 1326 0118 0A       		.uleb128 0xa
 1327 0119 6900     		.ascii	"i\000"
 1328 011b 01       		.byte	0x1
 1329 011c 25       		.byte	0x25
 1330 011d 68000000 		.4byte	0x68
 1331 0121 02       		.uleb128 0x2
 1332 0122 91       		.byte	0x91
 1333 0123 68       		.sleb128 -24
ARM GAS  C:\Users\LocalAdmin\AppData\Local\Temp\ccpapi3q.s 			page 29


 1334 0124 0A       		.uleb128 0xa
 1335 0125 6400     		.ascii	"d\000"
 1336 0127 01       		.byte	0x1
 1337 0128 25       		.byte	0x25
 1338 0129 68000000 		.4byte	0x68
 1339 012d 02       		.uleb128 0x2
 1340 012e 91       		.byte	0x91
 1341 012f 64       		.sleb128 -28
 1342 0130 00       		.byte	0
 1343 0131 0B       		.uleb128 0xb
 1344 0132 4E030000 		.4byte	.LASF17
 1345 0136 01       		.byte	0x1
 1346 0137 5C       		.byte	0x5c
 1347 0138 00000000 		.4byte	.LFB58
 1348 013c E4000000 		.4byte	.LFE58-.LFB58
 1349 0140 01       		.uleb128 0x1
 1350 0141 9C       		.byte	0x9c
 1351 0142 C3010000 		.4byte	0x1c3
 1352 0146 07       		.uleb128 0x7
 1353 0147 6100     		.ascii	"a\000"
 1354 0149 01       		.byte	0x1
 1355 014a 5C       		.byte	0x5c
 1356 014b 68000000 		.4byte	0x68
 1357 014f 02       		.uleb128 0x2
 1358 0150 91       		.byte	0x91
 1359 0151 5C       		.sleb128 -36
 1360 0152 07       		.uleb128 0x7
 1361 0153 73747200 		.ascii	"str\000"
 1362 0157 01       		.byte	0x1
 1363 0158 5C       		.byte	0x5c
 1364 0159 A3000000 		.4byte	0xa3
 1365 015d 02       		.uleb128 0x2
 1366 015e 91       		.byte	0x91
 1367 015f 58       		.sleb128 -40
 1368 0160 0C       		.uleb128 0xc
 1369 0161 6A020000 		.4byte	.LASF18
 1370 0165 01       		.byte	0x1
 1371 0166 5C       		.byte	0x5c
 1372 0167 2C000000 		.4byte	0x2c
 1373 016b 02       		.uleb128 0x2
 1374 016c 91       		.byte	0x91
 1375 016d 57       		.sleb128 -41
 1376 016e 0C       		.uleb128 0xc
 1377 016f AD000000 		.4byte	.LASF19
 1378 0173 01       		.byte	0x1
 1379 0174 5C       		.byte	0x5c
 1380 0175 8F000000 		.4byte	0x8f
 1381 0179 02       		.uleb128 0x2
 1382 017a 91       		.byte	0x91
 1383 017b 56       		.sleb128 -42
 1384 017c 0A       		.uleb128 0xa
 1385 017d 69647800 		.ascii	"idx\000"
 1386 0181 01       		.byte	0x1
 1387 0182 5D       		.byte	0x5d
 1388 0183 2C000000 		.4byte	0x2c
 1389 0187 02       		.uleb128 0x2
 1390 0188 91       		.byte	0x91
ARM GAS  C:\Users\LocalAdmin\AppData\Local\Temp\ccpapi3q.s 			page 30


 1391 0189 77       		.sleb128 -9
 1392 018a 0A       		.uleb128 0xa
 1393 018b 64697600 		.ascii	"div\000"
 1394 018f 01       		.byte	0x1
 1395 0190 5E       		.byte	0x5e
 1396 0191 6F000000 		.4byte	0x6f
 1397 0195 02       		.uleb128 0x2
 1398 0196 91       		.byte	0x91
 1399 0197 70       		.sleb128 -16
 1400 0198 09       		.uleb128 0x9
 1401 0199 0D010000 		.4byte	.LASF20
 1402 019d 01       		.byte	0x1
 1403 019e 5F       		.byte	0x5f
 1404 019f 6F000000 		.4byte	0x6f
 1405 01a3 02       		.uleb128 0x2
 1406 01a4 91       		.byte	0x91
 1407 01a5 68       		.sleb128 -24
 1408 01a6 09       		.uleb128 0x9
 1409 01a7 13020000 		.4byte	.LASF21
 1410 01ab 01       		.byte	0x1
 1411 01ac 60       		.byte	0x60
 1412 01ad 2C000000 		.4byte	0x2c
 1413 01b1 02       		.uleb128 0x2
 1414 01b2 91       		.byte	0x91
 1415 01b3 6F       		.sleb128 -17
 1416 01b4 09       		.uleb128 0x9
 1417 01b5 EE020000 		.4byte	.LASF22
 1418 01b9 01       		.byte	0x1
 1419 01ba 61       		.byte	0x61
 1420 01bb 2C000000 		.4byte	0x2c
 1421 01bf 02       		.uleb128 0x2
 1422 01c0 91       		.byte	0x91
 1423 01c1 67       		.sleb128 -25
 1424 01c2 00       		.byte	0
 1425 01c3 08       		.uleb128 0x8
 1426 01c4 E4010000 		.4byte	.LASF23
 1427 01c8 01       		.byte	0x1
 1428 01c9 80       		.byte	0x80
 1429 01ca 00000000 		.4byte	.LFB59
 1430 01ce 26000000 		.4byte	.LFE59-.LFB59
 1431 01d2 01       		.uleb128 0x1
 1432 01d3 9C       		.byte	0x9c
 1433 01d4 E7010000 		.4byte	0x1e7
 1434 01d8 0C       		.uleb128 0xc
 1435 01d9 1B030000 		.4byte	.LASF24
 1436 01dd 01       		.byte	0x1
 1437 01de 80       		.byte	0x80
 1438 01df 9D000000 		.4byte	0x9d
 1439 01e3 02       		.uleb128 0x2
 1440 01e4 91       		.byte	0x91
 1441 01e5 74       		.sleb128 -12
 1442 01e6 00       		.byte	0
 1443 01e7 08       		.uleb128 0x8
 1444 01e8 2C000000 		.4byte	.LASF25
 1445 01ec 01       		.byte	0x1
 1446 01ed 88       		.byte	0x88
 1447 01ee 00000000 		.4byte	.LFB60
ARM GAS  C:\Users\LocalAdmin\AppData\Local\Temp\ccpapi3q.s 			page 31


 1448 01f2 48000000 		.4byte	.LFE60-.LFB60
 1449 01f6 01       		.uleb128 0x1
 1450 01f7 9C       		.byte	0x9c
 1451 01f8 0B020000 		.4byte	0x20b
 1452 01fc 0C       		.uleb128 0xc
 1453 01fd 1B030000 		.4byte	.LASF24
 1454 0201 01       		.byte	0x1
 1455 0202 88       		.byte	0x88
 1456 0203 9D000000 		.4byte	0x9d
 1457 0207 02       		.uleb128 0x2
 1458 0208 91       		.byte	0x91
 1459 0209 74       		.sleb128 -12
 1460 020a 00       		.byte	0
 1461 020b 08       		.uleb128 0x8
 1462 020c 42000000 		.4byte	.LASF26
 1463 0210 01       		.byte	0x1
 1464 0211 94       		.byte	0x94
 1465 0212 00000000 		.4byte	.LFB61
 1466 0216 3C000000 		.4byte	.LFE61-.LFB61
 1467 021a 01       		.uleb128 0x1
 1468 021b 9C       		.byte	0x9c
 1469 021c 2F020000 		.4byte	0x22f
 1470 0220 0C       		.uleb128 0xc
 1471 0221 1B030000 		.4byte	.LASF24
 1472 0225 01       		.byte	0x1
 1473 0226 94       		.byte	0x94
 1474 0227 9D000000 		.4byte	0x9d
 1475 022b 02       		.uleb128 0x2
 1476 022c 91       		.byte	0x91
 1477 022d 74       		.sleb128 -12
 1478 022e 00       		.byte	0
 1479 022f 08       		.uleb128 0x8
 1480 0230 E2000000 		.4byte	.LASF27
 1481 0234 01       		.byte	0x1
 1482 0235 9E       		.byte	0x9e
 1483 0236 00000000 		.4byte	.LFB62
 1484 023a 48000000 		.4byte	.LFE62-.LFB62
 1485 023e 01       		.uleb128 0x1
 1486 023f 9C       		.byte	0x9c
 1487 0240 53020000 		.4byte	0x253
 1488 0244 0C       		.uleb128 0xc
 1489 0245 1B030000 		.4byte	.LASF24
 1490 0249 01       		.byte	0x1
 1491 024a 9E       		.byte	0x9e
 1492 024b 9D000000 		.4byte	0x9d
 1493 024f 02       		.uleb128 0x2
 1494 0250 91       		.byte	0x91
 1495 0251 74       		.sleb128 -12
 1496 0252 00       		.byte	0
 1497 0253 08       		.uleb128 0x8
 1498 0254 C9010000 		.4byte	.LASF28
 1499 0258 01       		.byte	0x1
 1500 0259 AB       		.byte	0xab
 1501 025a 00000000 		.4byte	.LFB63
 1502 025e 50000000 		.4byte	.LFE63-.LFB63
 1503 0262 01       		.uleb128 0x1
 1504 0263 9C       		.byte	0x9c
ARM GAS  C:\Users\LocalAdmin\AppData\Local\Temp\ccpapi3q.s 			page 32


 1505 0264 8F020000 		.4byte	0x28f
 1506 0268 0C       		.uleb128 0xc
 1507 0269 F7000000 		.4byte	.LASF29
 1508 026d 01       		.byte	0x1
 1509 026e AB       		.byte	0xab
 1510 026f 81000000 		.4byte	0x81
 1511 0273 02       		.uleb128 0x2
 1512 0274 91       		.byte	0x91
 1513 0275 64       		.sleb128 -28
 1514 0276 0A       		.uleb128 0xa
 1515 0277 7300     		.ascii	"s\000"
 1516 0279 01       		.byte	0x1
 1517 027a AD       		.byte	0xad
 1518 027b 8F020000 		.4byte	0x28f
 1519 027f 02       		.uleb128 0x2
 1520 0280 91       		.byte	0x91
 1521 0281 68       		.sleb128 -24
 1522 0282 0A       		.uleb128 0xa
 1523 0283 7700     		.ascii	"w\000"
 1524 0285 01       		.byte	0x1
 1525 0286 AE       		.byte	0xae
 1526 0287 68000000 		.4byte	0x68
 1527 028b 02       		.uleb128 0x2
 1528 028c 91       		.byte	0x91
 1529 028d 74       		.sleb128 -12
 1530 028e 00       		.byte	0
 1531 028f 0D       		.uleb128 0xd
 1532 0290 8F000000 		.4byte	0x8f
 1533 0294 9F020000 		.4byte	0x29f
 1534 0298 0E       		.uleb128 0xe
 1535 0299 96000000 		.4byte	0x96
 1536 029d 09       		.byte	0x9
 1537 029e 00       		.byte	0
 1538 029f 08       		.uleb128 0x8
 1539 02a0 4D020000 		.4byte	.LASF30
 1540 02a4 01       		.byte	0x1
 1541 02a5 B7       		.byte	0xb7
 1542 02a6 00000000 		.4byte	.LFB64
 1543 02aa 44000000 		.4byte	.LFE64-.LFB64
 1544 02ae 01       		.uleb128 0x1
 1545 02af 9C       		.byte	0x9c
 1546 02b0 D1020000 		.4byte	0x2d1
 1547 02b4 0C       		.uleb128 0xc
 1548 02b5 DD020000 		.4byte	.LASF31
 1549 02b9 01       		.byte	0x1
 1550 02ba B7       		.byte	0xb7
 1551 02bb 9D000000 		.4byte	0x9d
 1552 02bf 02       		.uleb128 0x2
 1553 02c0 91       		.byte	0x91
 1554 02c1 74       		.sleb128 -12
 1555 02c2 0C       		.uleb128 0xc
 1556 02c3 1B030000 		.4byte	.LASF24
 1557 02c7 01       		.byte	0x1
 1558 02c8 B7       		.byte	0xb7
 1559 02c9 9D000000 		.4byte	0x9d
 1560 02cd 02       		.uleb128 0x2
 1561 02ce 91       		.byte	0x91
ARM GAS  C:\Users\LocalAdmin\AppData\Local\Temp\ccpapi3q.s 			page 33


 1562 02cf 70       		.sleb128 -16
 1563 02d0 00       		.byte	0
 1564 02d1 08       		.uleb128 0x8
 1565 02d2 18020000 		.4byte	.LASF32
 1566 02d6 01       		.byte	0x1
 1567 02d7 C2       		.byte	0xc2
 1568 02d8 00000000 		.4byte	.LFB65
 1569 02dc 54000000 		.4byte	.LFE65-.LFB65
 1570 02e0 01       		.uleb128 0x1
 1571 02e1 9C       		.byte	0x9c
 1572 02e2 11030000 		.4byte	0x311
 1573 02e6 0C       		.uleb128 0xc
 1574 02e7 DD020000 		.4byte	.LASF31
 1575 02eb 01       		.byte	0x1
 1576 02ec C2       		.byte	0xc2
 1577 02ed 9D000000 		.4byte	0x9d
 1578 02f1 02       		.uleb128 0x2
 1579 02f2 91       		.byte	0x91
 1580 02f3 64       		.sleb128 -28
 1581 02f4 0C       		.uleb128 0xc
 1582 02f5 1C000000 		.4byte	.LASF33
 1583 02f9 01       		.byte	0x1
 1584 02fa C2       		.byte	0xc2
 1585 02fb 81000000 		.4byte	0x81
 1586 02ff 02       		.uleb128 0x2
 1587 0300 91       		.byte	0x91
 1588 0301 60       		.sleb128 -32
 1589 0302 09       		.uleb128 0x9
 1590 0303 1B030000 		.4byte	.LASF24
 1591 0307 01       		.byte	0x1
 1592 0308 C4       		.byte	0xc4
 1593 0309 8F020000 		.4byte	0x28f
 1594 030d 02       		.uleb128 0x2
 1595 030e 91       		.byte	0x91
 1596 030f 6C       		.sleb128 -20
 1597 0310 00       		.byte	0
 1598 0311 08       		.uleb128 0x8
 1599 0312 00000000 		.4byte	.LASF34
 1600 0316 01       		.byte	0x1
 1601 0317 D1       		.byte	0xd1
 1602 0318 00000000 		.4byte	.LFB66
 1603 031c 3C000000 		.4byte	.LFE66-.LFB66
 1604 0320 01       		.uleb128 0x1
 1605 0321 9C       		.byte	0x9c
 1606 0322 35030000 		.4byte	0x335
 1607 0326 0C       		.uleb128 0xc
 1608 0327 B6000000 		.4byte	.LASF35
 1609 032b 01       		.byte	0x1
 1610 032c D1       		.byte	0xd1
 1611 032d 9D000000 		.4byte	0x9d
 1612 0331 02       		.uleb128 0x2
 1613 0332 91       		.byte	0x91
 1614 0333 74       		.sleb128 -12
 1615 0334 00       		.byte	0
 1616 0335 08       		.uleb128 0x8
 1617 0336 2B030000 		.4byte	.LASF36
 1618 033a 01       		.byte	0x1
ARM GAS  C:\Users\LocalAdmin\AppData\Local\Temp\ccpapi3q.s 			page 34


 1619 033b DB       		.byte	0xdb
 1620 033c 00000000 		.4byte	.LFB67
 1621 0340 30000000 		.4byte	.LFE67-.LFB67
 1622 0344 01       		.uleb128 0x1
 1623 0345 9C       		.byte	0x9c
 1624 0346 59030000 		.4byte	0x359
 1625 034a 0C       		.uleb128 0xc
 1626 034b B6000000 		.4byte	.LASF35
 1627 034f 01       		.byte	0x1
 1628 0350 DB       		.byte	0xdb
 1629 0351 9D000000 		.4byte	0x9d
 1630 0355 02       		.uleb128 0x2
 1631 0356 91       		.byte	0x91
 1632 0357 74       		.sleb128 -12
 1633 0358 00       		.byte	0
 1634 0359 08       		.uleb128 0x8
 1635 035a 5D000000 		.4byte	.LASF37
 1636 035e 01       		.byte	0x1
 1637 035f E4       		.byte	0xe4
 1638 0360 00000000 		.4byte	.LFB68
 1639 0364 30000000 		.4byte	.LFE68-.LFB68
 1640 0368 01       		.uleb128 0x1
 1641 0369 9C       		.byte	0x9c
 1642 036a 7D030000 		.4byte	0x37d
 1643 036e 0C       		.uleb128 0xc
 1644 036f 17000000 		.4byte	.LASF38
 1645 0373 01       		.byte	0x1
 1646 0374 E4       		.byte	0xe4
 1647 0375 9D000000 		.4byte	0x9d
 1648 0379 02       		.uleb128 0x2
 1649 037a 91       		.byte	0x91
 1650 037b 74       		.sleb128 -12
 1651 037c 00       		.byte	0
 1652 037d 08       		.uleb128 0x8
 1653 037e A7010000 		.4byte	.LASF39
 1654 0382 01       		.byte	0x1
 1655 0383 EE       		.byte	0xee
 1656 0384 00000000 		.4byte	.LFB69
 1657 0388 30000000 		.4byte	.LFE69-.LFB69
 1658 038c 01       		.uleb128 0x1
 1659 038d 9C       		.byte	0x9c
 1660 038e A1030000 		.4byte	0x3a1
 1661 0392 0C       		.uleb128 0xc
 1662 0393 17000000 		.4byte	.LASF38
 1663 0397 01       		.byte	0x1
 1664 0398 EE       		.byte	0xee
 1665 0399 9D000000 		.4byte	0x9d
 1666 039d 02       		.uleb128 0x2
 1667 039e 91       		.byte	0x91
 1668 039f 74       		.sleb128 -12
 1669 03a0 00       		.byte	0
 1670 03a1 0F       		.uleb128 0xf
 1671 03a2 00010000 		.4byte	.LASF44
 1672 03a6 04       		.byte	0x4
 1673 03a7 1606     		.2byte	0x616
 1674 03a9 AD030000 		.4byte	0x3ad
 1675 03ad 10       		.uleb128 0x10
ARM GAS  C:\Users\LocalAdmin\AppData\Local\Temp\ccpapi3q.s 			page 35


 1676 03ae 76000000 		.4byte	0x76
 1677 03b2 00       		.byte	0
 1678              		.section	.debug_abbrev,"",%progbits
 1679              	.Ldebug_abbrev0:
 1680 0000 01       		.uleb128 0x1
 1681 0001 11       		.uleb128 0x11
 1682 0002 01       		.byte	0x1
 1683 0003 25       		.uleb128 0x25
 1684 0004 0E       		.uleb128 0xe
 1685 0005 13       		.uleb128 0x13
 1686 0006 0B       		.uleb128 0xb
 1687 0007 03       		.uleb128 0x3
 1688 0008 0E       		.uleb128 0xe
 1689 0009 1B       		.uleb128 0x1b
 1690 000a 0E       		.uleb128 0xe
 1691 000b 55       		.uleb128 0x55
 1692 000c 17       		.uleb128 0x17
 1693 000d 11       		.uleb128 0x11
 1694 000e 01       		.uleb128 0x1
 1695 000f 10       		.uleb128 0x10
 1696 0010 17       		.uleb128 0x17
 1697 0011 00       		.byte	0
 1698 0012 00       		.byte	0
 1699 0013 02       		.uleb128 0x2
 1700 0014 24       		.uleb128 0x24
 1701 0015 00       		.byte	0
 1702 0016 0B       		.uleb128 0xb
 1703 0017 0B       		.uleb128 0xb
 1704 0018 3E       		.uleb128 0x3e
 1705 0019 0B       		.uleb128 0xb
 1706 001a 03       		.uleb128 0x3
 1707 001b 0E       		.uleb128 0xe
 1708 001c 00       		.byte	0
 1709 001d 00       		.byte	0
 1710 001e 03       		.uleb128 0x3
 1711 001f 16       		.uleb128 0x16
 1712 0020 00       		.byte	0
 1713 0021 03       		.uleb128 0x3
 1714 0022 0E       		.uleb128 0xe
 1715 0023 3A       		.uleb128 0x3a
 1716 0024 0B       		.uleb128 0xb
 1717 0025 3B       		.uleb128 0x3b
 1718 0026 0B       		.uleb128 0xb
 1719 0027 49       		.uleb128 0x49
 1720 0028 13       		.uleb128 0x13
 1721 0029 00       		.byte	0
 1722 002a 00       		.byte	0
 1723 002b 04       		.uleb128 0x4
 1724 002c 24       		.uleb128 0x24
 1725 002d 00       		.byte	0
 1726 002e 0B       		.uleb128 0xb
 1727 002f 0B       		.uleb128 0xb
 1728 0030 3E       		.uleb128 0x3e
 1729 0031 0B       		.uleb128 0xb
 1730 0032 03       		.uleb128 0x3
 1731 0033 08       		.uleb128 0x8
 1732 0034 00       		.byte	0
ARM GAS  C:\Users\LocalAdmin\AppData\Local\Temp\ccpapi3q.s 			page 36


 1733 0035 00       		.byte	0
 1734 0036 05       		.uleb128 0x5
 1735 0037 0F       		.uleb128 0xf
 1736 0038 00       		.byte	0
 1737 0039 0B       		.uleb128 0xb
 1738 003a 0B       		.uleb128 0xb
 1739 003b 49       		.uleb128 0x49
 1740 003c 13       		.uleb128 0x13
 1741 003d 00       		.byte	0
 1742 003e 00       		.byte	0
 1743 003f 06       		.uleb128 0x6
 1744 0040 2E       		.uleb128 0x2e
 1745 0041 01       		.byte	0x1
 1746 0042 3F       		.uleb128 0x3f
 1747 0043 19       		.uleb128 0x19
 1748 0044 03       		.uleb128 0x3
 1749 0045 0E       		.uleb128 0xe
 1750 0046 3A       		.uleb128 0x3a
 1751 0047 0B       		.uleb128 0xb
 1752 0048 3B       		.uleb128 0x3b
 1753 0049 0B       		.uleb128 0xb
 1754 004a 27       		.uleb128 0x27
 1755 004b 19       		.uleb128 0x19
 1756 004c 49       		.uleb128 0x49
 1757 004d 13       		.uleb128 0x13
 1758 004e 11       		.uleb128 0x11
 1759 004f 01       		.uleb128 0x1
 1760 0050 12       		.uleb128 0x12
 1761 0051 06       		.uleb128 0x6
 1762 0052 40       		.uleb128 0x40
 1763 0053 18       		.uleb128 0x18
 1764 0054 9642     		.uleb128 0x2116
 1765 0056 19       		.uleb128 0x19
 1766 0057 01       		.uleb128 0x1
 1767 0058 13       		.uleb128 0x13
 1768 0059 00       		.byte	0
 1769 005a 00       		.byte	0
 1770 005b 07       		.uleb128 0x7
 1771 005c 05       		.uleb128 0x5
 1772 005d 00       		.byte	0
 1773 005e 03       		.uleb128 0x3
 1774 005f 08       		.uleb128 0x8
 1775 0060 3A       		.uleb128 0x3a
 1776 0061 0B       		.uleb128 0xb
 1777 0062 3B       		.uleb128 0x3b
 1778 0063 0B       		.uleb128 0xb
 1779 0064 49       		.uleb128 0x49
 1780 0065 13       		.uleb128 0x13
 1781 0066 02       		.uleb128 0x2
 1782 0067 18       		.uleb128 0x18
 1783 0068 00       		.byte	0
 1784 0069 00       		.byte	0
 1785 006a 08       		.uleb128 0x8
 1786 006b 2E       		.uleb128 0x2e
 1787 006c 01       		.byte	0x1
 1788 006d 3F       		.uleb128 0x3f
 1789 006e 19       		.uleb128 0x19
ARM GAS  C:\Users\LocalAdmin\AppData\Local\Temp\ccpapi3q.s 			page 37


 1790 006f 03       		.uleb128 0x3
 1791 0070 0E       		.uleb128 0xe
 1792 0071 3A       		.uleb128 0x3a
 1793 0072 0B       		.uleb128 0xb
 1794 0073 3B       		.uleb128 0x3b
 1795 0074 0B       		.uleb128 0xb
 1796 0075 27       		.uleb128 0x27
 1797 0076 19       		.uleb128 0x19
 1798 0077 11       		.uleb128 0x11
 1799 0078 01       		.uleb128 0x1
 1800 0079 12       		.uleb128 0x12
 1801 007a 06       		.uleb128 0x6
 1802 007b 40       		.uleb128 0x40
 1803 007c 18       		.uleb128 0x18
 1804 007d 9642     		.uleb128 0x2116
 1805 007f 19       		.uleb128 0x19
 1806 0080 01       		.uleb128 0x1
 1807 0081 13       		.uleb128 0x13
 1808 0082 00       		.byte	0
 1809 0083 00       		.byte	0
 1810 0084 09       		.uleb128 0x9
 1811 0085 34       		.uleb128 0x34
 1812 0086 00       		.byte	0
 1813 0087 03       		.uleb128 0x3
 1814 0088 0E       		.uleb128 0xe
 1815 0089 3A       		.uleb128 0x3a
 1816 008a 0B       		.uleb128 0xb
 1817 008b 3B       		.uleb128 0x3b
 1818 008c 0B       		.uleb128 0xb
 1819 008d 49       		.uleb128 0x49
 1820 008e 13       		.uleb128 0x13
 1821 008f 02       		.uleb128 0x2
 1822 0090 18       		.uleb128 0x18
 1823 0091 00       		.byte	0
 1824 0092 00       		.byte	0
 1825 0093 0A       		.uleb128 0xa
 1826 0094 34       		.uleb128 0x34
 1827 0095 00       		.byte	0
 1828 0096 03       		.uleb128 0x3
 1829 0097 08       		.uleb128 0x8
 1830 0098 3A       		.uleb128 0x3a
 1831 0099 0B       		.uleb128 0xb
 1832 009a 3B       		.uleb128 0x3b
 1833 009b 0B       		.uleb128 0xb
 1834 009c 49       		.uleb128 0x49
 1835 009d 13       		.uleb128 0x13
 1836 009e 02       		.uleb128 0x2
 1837 009f 18       		.uleb128 0x18
 1838 00a0 00       		.byte	0
 1839 00a1 00       		.byte	0
 1840 00a2 0B       		.uleb128 0xb
 1841 00a3 2E       		.uleb128 0x2e
 1842 00a4 01       		.byte	0x1
 1843 00a5 3F       		.uleb128 0x3f
 1844 00a6 19       		.uleb128 0x19
 1845 00a7 03       		.uleb128 0x3
 1846 00a8 0E       		.uleb128 0xe
ARM GAS  C:\Users\LocalAdmin\AppData\Local\Temp\ccpapi3q.s 			page 38


 1847 00a9 3A       		.uleb128 0x3a
 1848 00aa 0B       		.uleb128 0xb
 1849 00ab 3B       		.uleb128 0x3b
 1850 00ac 0B       		.uleb128 0xb
 1851 00ad 27       		.uleb128 0x27
 1852 00ae 19       		.uleb128 0x19
 1853 00af 11       		.uleb128 0x11
 1854 00b0 01       		.uleb128 0x1
 1855 00b1 12       		.uleb128 0x12
 1856 00b2 06       		.uleb128 0x6
 1857 00b3 40       		.uleb128 0x40
 1858 00b4 18       		.uleb128 0x18
 1859 00b5 9742     		.uleb128 0x2117
 1860 00b7 19       		.uleb128 0x19
 1861 00b8 01       		.uleb128 0x1
 1862 00b9 13       		.uleb128 0x13
 1863 00ba 00       		.byte	0
 1864 00bb 00       		.byte	0
 1865 00bc 0C       		.uleb128 0xc
 1866 00bd 05       		.uleb128 0x5
 1867 00be 00       		.byte	0
 1868 00bf 03       		.uleb128 0x3
 1869 00c0 0E       		.uleb128 0xe
 1870 00c1 3A       		.uleb128 0x3a
 1871 00c2 0B       		.uleb128 0xb
 1872 00c3 3B       		.uleb128 0x3b
 1873 00c4 0B       		.uleb128 0xb
 1874 00c5 49       		.uleb128 0x49
 1875 00c6 13       		.uleb128 0x13
 1876 00c7 02       		.uleb128 0x2
 1877 00c8 18       		.uleb128 0x18
 1878 00c9 00       		.byte	0
 1879 00ca 00       		.byte	0
 1880 00cb 0D       		.uleb128 0xd
 1881 00cc 01       		.uleb128 0x1
 1882 00cd 01       		.byte	0x1
 1883 00ce 49       		.uleb128 0x49
 1884 00cf 13       		.uleb128 0x13
 1885 00d0 01       		.uleb128 0x1
 1886 00d1 13       		.uleb128 0x13
 1887 00d2 00       		.byte	0
 1888 00d3 00       		.byte	0
 1889 00d4 0E       		.uleb128 0xe
 1890 00d5 21       		.uleb128 0x21
 1891 00d6 00       		.byte	0
 1892 00d7 49       		.uleb128 0x49
 1893 00d8 13       		.uleb128 0x13
 1894 00d9 2F       		.uleb128 0x2f
 1895 00da 0B       		.uleb128 0xb
 1896 00db 00       		.byte	0
 1897 00dc 00       		.byte	0
 1898 00dd 0F       		.uleb128 0xf
 1899 00de 34       		.uleb128 0x34
 1900 00df 00       		.byte	0
 1901 00e0 03       		.uleb128 0x3
 1902 00e1 0E       		.uleb128 0xe
 1903 00e2 3A       		.uleb128 0x3a
ARM GAS  C:\Users\LocalAdmin\AppData\Local\Temp\ccpapi3q.s 			page 39


 1904 00e3 0B       		.uleb128 0xb
 1905 00e4 3B       		.uleb128 0x3b
 1906 00e5 05       		.uleb128 0x5
 1907 00e6 49       		.uleb128 0x49
 1908 00e7 13       		.uleb128 0x13
 1909 00e8 3F       		.uleb128 0x3f
 1910 00e9 19       		.uleb128 0x19
 1911 00ea 3C       		.uleb128 0x3c
 1912 00eb 19       		.uleb128 0x19
 1913 00ec 00       		.byte	0
 1914 00ed 00       		.byte	0
 1915 00ee 10       		.uleb128 0x10
 1916 00ef 35       		.uleb128 0x35
 1917 00f0 00       		.byte	0
 1918 00f1 49       		.uleb128 0x49
 1919 00f2 13       		.uleb128 0x13
 1920 00f3 00       		.byte	0
 1921 00f4 00       		.byte	0
 1922 00f5 00       		.byte	0
 1923              		.section	.debug_aranges,"",%progbits
 1924 0000 84000000 		.4byte	0x84
 1925 0004 0200     		.2byte	0x2
 1926 0006 00000000 		.4byte	.Ldebug_info0
 1927 000a 04       		.byte	0x4
 1928 000b 00       		.byte	0
 1929 000c 0000     		.2byte	0
 1930 000e 0000     		.2byte	0
 1931 0010 00000000 		.4byte	.LFB56
 1932 0014 34000000 		.4byte	.LFE56-.LFB56
 1933 0018 00000000 		.4byte	.LFB57
 1934 001c EC010000 		.4byte	.LFE57-.LFB57
 1935 0020 00000000 		.4byte	.LFB58
 1936 0024 E4000000 		.4byte	.LFE58-.LFB58
 1937 0028 00000000 		.4byte	.LFB59
 1938 002c 26000000 		.4byte	.LFE59-.LFB59
 1939 0030 00000000 		.4byte	.LFB60
 1940 0034 48000000 		.4byte	.LFE60-.LFB60
 1941 0038 00000000 		.4byte	.LFB61
 1942 003c 3C000000 		.4byte	.LFE61-.LFB61
 1943 0040 00000000 		.4byte	.LFB62
 1944 0044 48000000 		.4byte	.LFE62-.LFB62
 1945 0048 00000000 		.4byte	.LFB63
 1946 004c 50000000 		.4byte	.LFE63-.LFB63
 1947 0050 00000000 		.4byte	.LFB64
 1948 0054 44000000 		.4byte	.LFE64-.LFB64
 1949 0058 00000000 		.4byte	.LFB65
 1950 005c 54000000 		.4byte	.LFE65-.LFB65
 1951 0060 00000000 		.4byte	.LFB66
 1952 0064 3C000000 		.4byte	.LFE66-.LFB66
 1953 0068 00000000 		.4byte	.LFB67
 1954 006c 30000000 		.4byte	.LFE67-.LFB67
 1955 0070 00000000 		.4byte	.LFB68
 1956 0074 30000000 		.4byte	.LFE68-.LFB68
 1957 0078 00000000 		.4byte	.LFB69
 1958 007c 30000000 		.4byte	.LFE69-.LFB69
 1959 0080 00000000 		.4byte	0
 1960 0084 00000000 		.4byte	0
ARM GAS  C:\Users\LocalAdmin\AppData\Local\Temp\ccpapi3q.s 			page 40


 1961              		.section	.debug_ranges,"",%progbits
 1962              	.Ldebug_ranges0:
 1963 0000 00000000 		.4byte	.LFB56
 1964 0004 34000000 		.4byte	.LFE56
 1965 0008 00000000 		.4byte	.LFB57
 1966 000c EC010000 		.4byte	.LFE57
 1967 0010 00000000 		.4byte	.LFB58
 1968 0014 E4000000 		.4byte	.LFE58
 1969 0018 00000000 		.4byte	.LFB59
 1970 001c 26000000 		.4byte	.LFE59
 1971 0020 00000000 		.4byte	.LFB60
 1972 0024 48000000 		.4byte	.LFE60
 1973 0028 00000000 		.4byte	.LFB61
 1974 002c 3C000000 		.4byte	.LFE61
 1975 0030 00000000 		.4byte	.LFB62
 1976 0034 48000000 		.4byte	.LFE62
 1977 0038 00000000 		.4byte	.LFB63
 1978 003c 50000000 		.4byte	.LFE63
 1979 0040 00000000 		.4byte	.LFB64
 1980 0044 44000000 		.4byte	.LFE64
 1981 0048 00000000 		.4byte	.LFB65
 1982 004c 54000000 		.4byte	.LFE65
 1983 0050 00000000 		.4byte	.LFB66
 1984 0054 3C000000 		.4byte	.LFE66
 1985 0058 00000000 		.4byte	.LFB67
 1986 005c 30000000 		.4byte	.LFE67
 1987 0060 00000000 		.4byte	.LFB68
 1988 0064 30000000 		.4byte	.LFE68
 1989 0068 00000000 		.4byte	.LFB69
 1990 006c 30000000 		.4byte	.LFE69
 1991 0070 00000000 		.4byte	0
 1992 0074 00000000 		.4byte	0
 1993              		.section	.debug_line,"",%progbits
 1994              	.Ldebug_line0:
 1995 0000 F6020000 		.section	.debug_str,"MS",%progbits,1
 1995      02004D01 
 1995      00000201 
 1995      FB0E0D00 
 1995      01010101 
 1996              	.LASF34:
 1997 0000 4E657874 		.ascii	"Nextion_Send_Stellwert\000"
 1997      696F6E5F 
 1997      53656E64 
 1997      5F537465 
 1997      6C6C7765 
 1998              	.LASF38:
 1999 0017 73696E74 		.ascii	"sint\000"
 1999      00
 2000              	.LASF33:
 2001 001c 76616C75 		.ascii	"value\000"
 2001      6500
 2002              	.LASF9:
 2003 0022 5F5F696E 		.ascii	"__int32_t\000"
 2003      7433325F 
 2003      7400
 2004              	.LASF25:
 2005 002c 4E657874 		.ascii	"Nextion_Send_Sollwert\000"
ARM GAS  C:\Users\LocalAdmin\AppData\Local\Temp\ccpapi3q.s 			page 41


 2005      696F6E5F 
 2005      53656E64 
 2005      5F536F6C 
 2005      6C776572 
 2006              	.LASF26:
 2007 0042 4E657874 		.ascii	"Nextion_Send_Sollwert_Wave\000"
 2007      696F6E5F 
 2007      53656E64 
 2007      5F536F6C 
 2007      6C776572 
 2008              	.LASF37:
 2009 005d 4E657874 		.ascii	"Nextion_Send_WaveValue\000"
 2009      696F6E5F 
 2009      53656E64 
 2009      5F576176 
 2009      6556616C 
 2010              	.LASF15:
 2011 0074 7363616C 		.ascii	"scale\000"
 2011      6500
 2012              	.LASF41:
 2013 007a 2E5C4E65 		.ascii	".\\Nextion_Communication.c\000"
 2013      7874696F 
 2013      6E5F436F 
 2013      6D6D756E 
 2013      69636174 
 2014              	.LASF43:
 2015 0094 69666C6F 		.ascii	"ifloor\000"
 2015      6F7200
 2016              	.LASF11:
 2017 009b 666C6F61 		.ascii	"float\000"
 2017      7400
 2018              	.LASF0:
 2019 00a1 7369676E 		.ascii	"signed char\000"
 2019      65642063 
 2019      68617200 
 2020              	.LASF19:
 2021 00ad 6E756C6C 		.ascii	"nullflag\000"
 2021      666C6167 
 2021      00
 2022              	.LASF35:
 2023 00b6 69737469 		.ascii	"istint\000"
 2023      6E7400
 2024              	.LASF5:
 2025 00bd 6C6F6E67 		.ascii	"long unsigned int\000"
 2025      20756E73 
 2025      69676E65 
 2025      6420696E 
 2025      7400
 2026              	.LASF3:
 2027 00cf 73686F72 		.ascii	"short unsigned int\000"
 2027      7420756E 
 2027      7369676E 
 2027      65642069 
 2027      6E7400
 2028              	.LASF27:
 2029 00e2 4E657874 		.ascii	"Nextion_Send_Istwert\000"
 2029      696F6E5F 
ARM GAS  C:\Users\LocalAdmin\AppData\Local\Temp\ccpapi3q.s 			page 42


 2029      53656E64 
 2029      5F497374 
 2029      77657274 
 2030              	.LASF29:
 2031 00f7 736F6C6C 		.ascii	"sollwert\000"
 2031      77657274 
 2031      00
 2032              	.LASF44:
 2033 0100 49544D5F 		.ascii	"ITM_RxBuffer\000"
 2033      52784275 
 2033      66666572 
 2033      00
 2034              	.LASF20:
 2035 010d 62756666 		.ascii	"buff\000"
 2035      00
 2036              	.LASF40:
 2037 0112 474E5520 		.ascii	"GNU C 4.9.3 20150303 (release) [ARM/embedded-4_9-br"
 2037      4320342E 
 2037      392E3320 
 2037      32303135 
 2037      30333033 
 2038 0145 616E6368 		.ascii	"anch revision 221220] -mcpu=cortex-m3 -mthumb -g -O"
 2038      20726576 
 2038      6973696F 
 2038      6E203232 
 2038      31323230 
 2039 0178 30202D66 		.ascii	"0 -ffunction-sections -ffat-lto-objects\000"
 2039      66756E63 
 2039      74696F6E 
 2039      2D736563 
 2039      74696F6E 
 2040              	.LASF12:
 2041 01a0 646F7562 		.ascii	"double\000"
 2041      6C6500
 2042              	.LASF39:
 2043 01a7 4E657874 		.ascii	"Nextion_Send_WaveValue_Messkammer\000"
 2043      696F6E5F 
 2043      53656E64 
 2043      5F576176 
 2043      6556616C 
 2044              	.LASF28:
 2045 01c9 4E657874 		.ascii	"Nextion_Send_Istwert_Setup\000"
 2045      696F6E5F 
 2045      53656E64 
 2045      5F497374 
 2045      77657274 
 2046              	.LASF23:
 2047 01e4 4E657874 		.ascii	"Nextion_Send_String\000"
 2047      696F6E5F 
 2047      53656E64 
 2047      5F537472 
 2047      696E6700 
 2048              	.LASF1:
 2049 01f8 756E7369 		.ascii	"unsigned char\000"
 2049      676E6564 
 2049      20636861 
 2049      7200
ARM GAS  C:\Users\LocalAdmin\AppData\Local\Temp\ccpapi3q.s 			page 43


 2050              	.LASF8:
 2051 0206 756E7369 		.ascii	"unsigned int\000"
 2051      676E6564 
 2051      20696E74 
 2051      00
 2052              	.LASF21:
 2053 0213 666C6167 		.ascii	"flag\000"
 2053      00
 2054              	.LASF32:
 2055 0218 4E657874 		.ascii	"Nextion_Send_Value_to_Textbox\000"
 2055      696F6E5F 
 2055      53656E64 
 2055      5F56616C 
 2055      75655F74 
 2056              	.LASF7:
 2057 0236 6C6F6E67 		.ascii	"long long unsigned int\000"
 2057      206C6F6E 
 2057      6720756E 
 2057      7369676E 
 2057      65642069 
 2058              	.LASF30:
 2059 024d 4E657874 		.ascii	"Nextion_Send_Text_to_Textbox\000"
 2059      696F6E5F 
 2059      53656E64 
 2059      5F546578 
 2059      745F746F 
 2060              	.LASF18:
 2061 026a 766B7374 		.ascii	"vkstellen\000"
 2061      656C6C65 
 2061      6E00
 2062              	.LASF16:
 2063 0274 66746F61 		.ascii	"ftoa\000"
 2063      00
 2064              	.LASF42:
 2065 0279 433A5C55 		.ascii	"C:\\Users\\LocalAdmin\\Dropbox\\DEVICE_PSOC_Lamella"
 2065      73657273 
 2065      5C4C6F63 
 2065      616C4164 
 2065      6D696E5C 
 2066 02a8 5C50534F 		.ascii	"\\PSOC\\PSOC5_LamellaDevice\\PSOC5_Blinkschaltung.c"
 2066      435C5053 
 2066      4F43355F 
 2066      4C616D65 
 2066      6C6C6144 
 2067 02d8 7964736E 		.ascii	"ydsn\000"
 2067      00
 2068              	.LASF31:
 2069 02dd 74657874 		.ascii	"textbox\000"
 2069      626F7800 
 2070              	.LASF14:
 2071 02e5 73697A65 		.ascii	"sizetype\000"
 2071      74797065 
 2071      00
 2072              	.LASF22:
 2073 02ee 41757367 		.ascii	"Ausgabe\000"
 2073      61626500 
 2074              	.LASF6:
ARM GAS  C:\Users\LocalAdmin\AppData\Local\Temp\ccpapi3q.s 			page 44


 2075 02f6 6C6F6E67 		.ascii	"long long int\000"
 2075      206C6F6E 
 2075      6720696E 
 2075      7400
 2076              	.LASF13:
 2077 0304 63686172 		.ascii	"char\000"
 2077      00
 2078              	.LASF10:
 2079 0309 696E7433 		.ascii	"int32_t\000"
 2079      325F7400 
 2080              	.LASF2:
 2081 0311 73686F72 		.ascii	"short int\000"
 2081      7420696E 
 2081      7400
 2082              	.LASF24:
 2083 031b 73666C6F 		.ascii	"sfloat\000"
 2083      617400
 2084              	.LASF4:
 2085 0322 6C6F6E67 		.ascii	"long int\000"
 2085      20696E74 
 2085      00
 2086              	.LASF36:
 2087 032b 4E657874 		.ascii	"Nextion_Send_Stellwert_Progressbar\000"
 2087      696F6E5F 
 2087      53656E64 
 2087      5F537465 
 2087      6C6C7765 
 2088              	.LASF17:
 2089 034e 6D796974 		.ascii	"myitoa\000"
 2089      6F6100
 2090              		.ident	"GCC: (GNU Tools for ARM Embedded Processors) 4.9.3 20150303 (release) [ARM/embedded-4_9-br
