ARM GAS  C:\Users\LocalAdmin\AppData\Local\Temp\ccpapi3q.s 			page 1


   1              		.syntax unified
   2              		.cpu cortex-m3
   3              		.fpu softvfp
   4              		.eabi_attribute 20, 1
   5              		.eabi_attribute 21, 1
   6              		.eabi_attribute 23, 3
   7              		.eabi_attribute 24, 1
   8              		.eabi_attribute 25, 1
   9              		.eabi_attribute 26, 1
  10              		.eabi_attribute 30, 6
  11              		.eabi_attribute 34, 1
  12              		.eabi_attribute 18, 4
  13              		.thumb
  14              		.file	"Nextion_Communication.c"
  15              		.text
  16              	.Ltext0:
  17              		.cfi_sections	.debug_frame
  18              		.global	__aeabi_fcmpge
  19              		.global	__aeabi_f2iz
  20              		.section	.text.ifloor,"ax",%progbits
  21              		.align	2
  22              		.global	ifloor
  23              		.thumb
  24              		.thumb_func
  25              		.type	ifloor, %function
  26              	ifloor:
  27              	.LFB56:
  28              		.file 1 ".\\Nextion_Communication.c"
   1:.\Nextion_Communication.c **** /* ========================================
   2:.\Nextion_Communication.c ****  *
   3:.\Nextion_Communication.c ****  * Copyright YOUR COMPANY, THE YEAR
   4:.\Nextion_Communication.c ****  * All Rights Reserved
   5:.\Nextion_Communication.c ****  * UNPUBLISHED, LICENSED SOFTWARE.
   6:.\Nextion_Communication.c ****  *
   7:.\Nextion_Communication.c ****  * CONFIDENTIAL AND PROPRIETARY INFORMATION
   8:.\Nextion_Communication.c ****  * WHICH IS THE PROPERTY OF your company.
   9:.\Nextion_Communication.c ****  *
  10:.\Nextion_Communication.c ****  * ========================================
  11:.\Nextion_Communication.c **** */
  12:.\Nextion_Communication.c **** 
  13:.\Nextion_Communication.c **** #include <project.h>
  14:.\Nextion_Communication.c **** 
  15:.\Nextion_Communication.c **** // Ersatz für floor der math.lib
  16:.\Nextion_Communication.c **** int ifloor(float x)
  17:.\Nextion_Communication.c **** {
  29              		.loc 1 17 0
  30              		.cfi_startproc
  31              		@ args = 0, pretend = 0, frame = 8
  32              		@ frame_needed = 1, uses_anonymous_args = 0
  33 0000 80B5     		push	{r7, lr}
  34              		.cfi_def_cfa_offset 8
  35              		.cfi_offset 7, -8
  36              		.cfi_offset 14, -4
  37 0002 82B0     		sub	sp, sp, #8
  38              		.cfi_def_cfa_offset 16
  39 0004 00AF     		add	r7, sp, #0
  40              		.cfi_def_cfa_register 7
ARM GAS  C:\Users\LocalAdmin\AppData\Local\Temp\ccpapi3q.s 			page 2


  41 0006 7860     		str	r0, [r7, #4]	@ float
  18:.\Nextion_Communication.c **** 	if (x >= 0.0f)
  42              		.loc 1 18 0
  43 0008 7868     		ldr	r0, [r7, #4]	@ float
  44 000a 4FF00001 		mov	r1, #0
  45 000e FFF7FEFF 		bl	__aeabi_fcmpge
  46 0012 0346     		mov	r3, r0
  47 0014 002B     		cmp	r3, #0
  48 0016 04D0     		beq	.L6
  19:.\Nextion_Communication.c **** 	{
  20:.\Nextion_Communication.c **** 		return ((int)x);
  49              		.loc 1 20 0
  50 0018 7868     		ldr	r0, [r7, #4]	@ float
  51 001a FFF7FEFF 		bl	__aeabi_f2iz
  52 001e 0346     		mov	r3, r0
  53 0020 04E0     		b	.L4
  54              	.L6:
  21:.\Nextion_Communication.c **** 	}
  22:.\Nextion_Communication.c **** 	else
  23:.\Nextion_Communication.c **** 	{
  24:.\Nextion_Communication.c **** 		return ((int)x - 1);
  55              		.loc 1 24 0
  56 0022 7868     		ldr	r0, [r7, #4]	@ float
  57 0024 FFF7FEFF 		bl	__aeabi_f2iz
  58 0028 0346     		mov	r3, r0
  59 002a 013B     		subs	r3, r3, #1
  60              	.L4:
  25:.\Nextion_Communication.c **** 	}
  26:.\Nextion_Communication.c **** }
  61              		.loc 1 26 0
  62 002c 1846     		mov	r0, r3
  63 002e 0837     		adds	r7, r7, #8
  64              		.cfi_def_cfa_offset 8
  65 0030 BD46     		mov	sp, r7
  66              		.cfi_def_cfa_register 13
  67              		@ sp needed
  68 0032 80BD     		pop	{r7, pc}
  69              		.cfi_endproc
  70              	.LFE56:
  71              		.size	ifloor, .-ifloor
  72              		.global	__aeabi_fcmplt
  73              		.global	__aeabi_fmul
  74              		.global	__aeabi_f2d
  75              		.global	__aeabi_ddiv
  76              		.global	__aeabi_dadd
  77              		.global	__aeabi_d2f
  78              		.global	__aeabi_dmul
  79              		.global	__aeabi_i2f
  80              		.global	__aeabi_fdiv
  81              		.global	__aeabi_fsub
  82              		.section	.text.ftoa,"ax",%progbits
  83              		.align	2
  84              		.global	ftoa
  85              		.thumb
  86              		.thumb_func
  87              		.type	ftoa, %function
  88              	ftoa:
ARM GAS  C:\Users\LocalAdmin\AppData\Local\Temp\ccpapi3q.s 			page 3


  89              	.LFB57:
  27:.\Nextion_Communication.c **** 
  28:.\Nextion_Communication.c **** // ---------------------------------------
  29:.\Nextion_Communication.c **** // Float to ASCII Routine
  30:.\Nextion_Communication.c **** // x Float Wert zum Umwandeln
  31:.\Nextion_Communication.c **** // f anzahl der Stellen zB 3
  32:.\Nextion_Communication.c **** // str Ergebnisstring
  33:.\Nextion_Communication.c **** // Laufzeit: 144 us
  34:.\Nextion_Communication.c **** void ftoa (float x,int f,char *str)
  35:.\Nextion_Communication.c **** {
  90              		.loc 1 35 0
  91              		.cfi_startproc
  92              		@ args = 0, pretend = 0, frame = 32
  93              		@ frame_needed = 1, uses_anonymous_args = 0
  94 0000 B0B5     		push	{r4, r5, r7, lr}
  95              		.cfi_def_cfa_offset 16
  96              		.cfi_offset 4, -16
  97              		.cfi_offset 5, -12
  98              		.cfi_offset 7, -8
  99              		.cfi_offset 14, -4
 100 0002 88B0     		sub	sp, sp, #32
 101              		.cfi_def_cfa_offset 48
 102 0004 00AF     		add	r7, sp, #0
 103              		.cfi_def_cfa_register 7
 104 0006 F860     		str	r0, [r7, #12]	@ float
 105 0008 B960     		str	r1, [r7, #8]
 106 000a 7A60     		str	r2, [r7, #4]
  36:.\Nextion_Communication.c **** 	float scale; /* scale factor */
  37:.\Nextion_Communication.c **** 	int i,d; /* copy of f, and # digits before decimal point */
  38:.\Nextion_Communication.c **** 	/* a digit */
  39:.\Nextion_Communication.c **** 	if( x < 0.0 )
 107              		.loc 1 39 0
 108 000c F868     		ldr	r0, [r7, #12]	@ float
 109 000e 4FF00001 		mov	r1, #0
 110 0012 FFF7FEFF 		bl	__aeabi_fcmplt
 111 0016 0346     		mov	r3, r0
 112 0018 002B     		cmp	r3, #0
 113 001a 09D0     		beq	.L23
  40:.\Nextion_Communication.c **** 	{
  41:.\Nextion_Communication.c **** 		*str++ = '-' ;
 114              		.loc 1 41 0
 115 001c 7B68     		ldr	r3, [r7, #4]
 116 001e 5A1C     		adds	r2, r3, #1
 117 0020 7A60     		str	r2, [r7, #4]
 118 0022 2D22     		movs	r2, #45
 119 0024 1A70     		strb	r2, [r3]
  42:.\Nextion_Communication.c **** 		x = -x ;
 120              		.loc 1 42 0
 121 0026 FB68     		ldr	r3, [r7, #12]
 122 0028 83F00043 		eor	r3, r3, #-2147483648
 123 002c FB60     		str	r3, [r7, #12]	@ float
 124 002e 04E0     		b	.L10
 125              	.L23:
  43:.\Nextion_Communication.c **** 	}
  44:.\Nextion_Communication.c ****     else
  45:.\Nextion_Communication.c ****     {
  46:.\Nextion_Communication.c ****         *str++ = '+' ;
ARM GAS  C:\Users\LocalAdmin\AppData\Local\Temp\ccpapi3q.s 			page 4


 126              		.loc 1 46 0
 127 0030 7B68     		ldr	r3, [r7, #4]
 128 0032 5A1C     		adds	r2, r3, #1
 129 0034 7A60     		str	r2, [r7, #4]
 130 0036 2B22     		movs	r2, #43
 131 0038 1A70     		strb	r2, [r3]
 132              	.L10:
  47:.\Nextion_Communication.c ****     }
  48:.\Nextion_Communication.c **** 	i = f ;
 133              		.loc 1 48 0
 134 003a BB68     		ldr	r3, [r7, #8]
 135 003c BB61     		str	r3, [r7, #24]
  49:.\Nextion_Communication.c **** 	scale = 2.0 ;
 136              		.loc 1 49 0
 137 003e 4FF08043 		mov	r3, #1073741824
 138 0042 FB61     		str	r3, [r7, #28]	@ float
  50:.\Nextion_Communication.c **** 	while ( i-- ) scale *= 10.0 ;
 139              		.loc 1 50 0
 140 0044 05E0     		b	.L11
 141              	.L12:
 142              		.loc 1 50 0 is_stmt 0 discriminator 2
 143 0046 F869     		ldr	r0, [r7, #28]	@ float
 144 0048 6549     		ldr	r1, .L24+8
 145 004a FFF7FEFF 		bl	__aeabi_fmul
 146 004e 0346     		mov	r3, r0
 147 0050 FB61     		str	r3, [r7, #28]	@ float
 148              	.L11:
 149              		.loc 1 50 0 discriminator 1
 150 0052 BB69     		ldr	r3, [r7, #24]
 151 0054 5A1E     		subs	r2, r3, #1
 152 0056 BA61     		str	r2, [r7, #24]
 153 0058 002B     		cmp	r3, #0
 154 005a F4D1     		bne	.L12
  51:.\Nextion_Communication.c **** 	x += 1.0 / scale ;
 155              		.loc 1 51 0 is_stmt 1
 156 005c F868     		ldr	r0, [r7, #12]	@ float
 157 005e FFF7FEFF 		bl	__aeabi_f2d
 158 0062 0446     		mov	r4, r0
 159 0064 0D46     		mov	r5, r1
 160 0066 F869     		ldr	r0, [r7, #28]	@ float
 161 0068 FFF7FEFF 		bl	__aeabi_f2d
 162 006c 0246     		mov	r2, r0
 163 006e 0B46     		mov	r3, r1
 164 0070 4FF00000 		mov	r0, #0
 165 0074 5B49     		ldr	r1, .L24+12
 166 0076 FFF7FEFF 		bl	__aeabi_ddiv
 167 007a 0246     		mov	r2, r0
 168 007c 0B46     		mov	r3, r1
 169 007e 2046     		mov	r0, r4
 170 0080 2946     		mov	r1, r5
 171 0082 FFF7FEFF 		bl	__aeabi_dadd
 172 0086 0246     		mov	r2, r0
 173 0088 0B46     		mov	r3, r1
 174 008a 1046     		mov	r0, r2
 175 008c 1946     		mov	r1, r3
 176 008e FFF7FEFF 		bl	__aeabi_d2f
 177 0092 0346     		mov	r3, r0
ARM GAS  C:\Users\LocalAdmin\AppData\Local\Temp\ccpapi3q.s 			page 5


 178 0094 FB60     		str	r3, [r7, #12]	@ float
  52:.\Nextion_Communication.c **** 	/* count places before decimal & scale the number */
  53:.\Nextion_Communication.c **** 	i = 0 ;
 179              		.loc 1 53 0
 180 0096 0023     		movs	r3, #0
 181 0098 BB61     		str	r3, [r7, #24]
  54:.\Nextion_Communication.c **** 	scale = 1.0 ;
 182              		.loc 1 54 0
 183 009a 4FF07E53 		mov	r3, #1065353216
 184 009e FB61     		str	r3, [r7, #28]	@ float
  55:.\Nextion_Communication.c **** 	while ( x >= scale )
 185              		.loc 1 55 0
 186 00a0 08E0     		b	.L13
 187              	.L14:
  56:.\Nextion_Communication.c **** 	{
  57:.\Nextion_Communication.c **** 		scale *= 10.0 ;
 188              		.loc 1 57 0
 189 00a2 F869     		ldr	r0, [r7, #28]	@ float
 190 00a4 4E49     		ldr	r1, .L24+8
 191 00a6 FFF7FEFF 		bl	__aeabi_fmul
 192 00aa 0346     		mov	r3, r0
 193 00ac FB61     		str	r3, [r7, #28]	@ float
  58:.\Nextion_Communication.c **** 		i++ ;
 194              		.loc 1 58 0
 195 00ae BB69     		ldr	r3, [r7, #24]
 196 00b0 0133     		adds	r3, r3, #1
 197 00b2 BB61     		str	r3, [r7, #24]
 198              	.L13:
  55:.\Nextion_Communication.c **** 	while ( x >= scale )
 199              		.loc 1 55 0
 200 00b4 F868     		ldr	r0, [r7, #12]	@ float
 201 00b6 F969     		ldr	r1, [r7, #28]	@ float
 202 00b8 FFF7FEFF 		bl	__aeabi_fcmpge
 203 00bc 0346     		mov	r3, r0
 204 00be 002B     		cmp	r3, #0
 205 00c0 EFD1     		bne	.L14
  59:.\Nextion_Communication.c **** 	}
  60:.\Nextion_Communication.c **** 	if ( i == 0 ) *str++ = '0';
 206              		.loc 1 60 0
 207 00c2 BB69     		ldr	r3, [r7, #24]
 208 00c4 002B     		cmp	r3, #0
 209 00c6 04D1     		bne	.L15
 210              		.loc 1 60 0 is_stmt 0 discriminator 1
 211 00c8 7B68     		ldr	r3, [r7, #4]
 212 00ca 5A1C     		adds	r2, r3, #1
 213 00cc 7A60     		str	r2, [r7, #4]
 214 00ce 3022     		movs	r2, #48
 215 00d0 1A70     		strb	r2, [r3]
 216              	.L15:
  61:.\Nextion_Communication.c **** 	while ( i-- )
 217              		.loc 1 61 0 is_stmt 1
 218 00d2 45E0     		b	.L16
 219              	.L17:
  62:.\Nextion_Communication.c **** 	{
  63:.\Nextion_Communication.c **** 		/* output digits before decimal */
  64:.\Nextion_Communication.c **** 		// returns the value of parameter x rounded down to the nearest integer
  65:.\Nextion_Communication.c ****         // floor find the nearest integer less than or equal to x. 
ARM GAS  C:\Users\LocalAdmin\AppData\Local\Temp\ccpapi3q.s 			page 6


  66:.\Nextion_Communication.c ****         scale = ifloor(0.5 + scale * 0.1 ) ;
 220              		.loc 1 66 0
 221 00d4 F869     		ldr	r0, [r7, #28]	@ float
 222 00d6 FFF7FEFF 		bl	__aeabi_f2d
 223 00da 0246     		mov	r2, r0
 224 00dc 0B46     		mov	r3, r1
 225 00de 1046     		mov	r0, r2
 226 00e0 1946     		mov	r1, r3
 227 00e2 3DA3     		adr	r3, .L24
 228 00e4 D3E90023 		ldrd	r2, [r3]
 229 00e8 FFF7FEFF 		bl	__aeabi_dmul
 230 00ec 0246     		mov	r2, r0
 231 00ee 0B46     		mov	r3, r1
 232 00f0 1046     		mov	r0, r2
 233 00f2 1946     		mov	r1, r3
 234 00f4 4FF00002 		mov	r2, #0
 235 00f8 3B4B     		ldr	r3, .L24+16
 236 00fa FFF7FEFF 		bl	__aeabi_dadd
 237 00fe 0246     		mov	r2, r0
 238 0100 0B46     		mov	r3, r1
 239 0102 1046     		mov	r0, r2
 240 0104 1946     		mov	r1, r3
 241 0106 FFF7FEFF 		bl	__aeabi_d2f
 242 010a 0346     		mov	r3, r0
 243 010c 1846     		mov	r0, r3
 244 010e FFF7FEFF 		bl	ifloor
 245 0112 0346     		mov	r3, r0
 246 0114 1846     		mov	r0, r3
 247 0116 FFF7FEFF 		bl	__aeabi_i2f
 248 011a 0346     		mov	r3, r0
 249 011c FB61     		str	r3, [r7, #28]	@ float
  67:.\Nextion_Communication.c **** 		// scale = (int)(0.5 + scale * 0.1) ;
  68:.\Nextion_Communication.c **** 		d = ( x / scale ) ;
 250              		.loc 1 68 0
 251 011e F868     		ldr	r0, [r7, #12]	@ float
 252 0120 F969     		ldr	r1, [r7, #28]	@ float
 253 0122 FFF7FEFF 		bl	__aeabi_fdiv
 254 0126 0346     		mov	r3, r0
 255 0128 1846     		mov	r0, r3
 256 012a FFF7FEFF 		bl	__aeabi_f2iz
 257 012e 0346     		mov	r3, r0
 258 0130 7B61     		str	r3, [r7, #20]
  69:.\Nextion_Communication.c **** 		*str++ = d + '0' ;
 259              		.loc 1 69 0
 260 0132 7B68     		ldr	r3, [r7, #4]
 261 0134 5A1C     		adds	r2, r3, #1
 262 0136 7A60     		str	r2, [r7, #4]
 263 0138 7A69     		ldr	r2, [r7, #20]
 264 013a D2B2     		uxtb	r2, r2
 265 013c 3032     		adds	r2, r2, #48
 266 013e D2B2     		uxtb	r2, r2
 267 0140 1A70     		strb	r2, [r3]
  70:.\Nextion_Communication.c **** 		x -= (float)d * scale ;
 268              		.loc 1 70 0
 269 0142 7869     		ldr	r0, [r7, #20]
 270 0144 FFF7FEFF 		bl	__aeabi_i2f
 271 0148 0346     		mov	r3, r0
ARM GAS  C:\Users\LocalAdmin\AppData\Local\Temp\ccpapi3q.s 			page 7


 272 014a 1846     		mov	r0, r3
 273 014c F969     		ldr	r1, [r7, #28]	@ float
 274 014e FFF7FEFF 		bl	__aeabi_fmul
 275 0152 0346     		mov	r3, r0
 276 0154 F868     		ldr	r0, [r7, #12]	@ float
 277 0156 1946     		mov	r1, r3
 278 0158 FFF7FEFF 		bl	__aeabi_fsub
 279 015c 0346     		mov	r3, r0
 280 015e FB60     		str	r3, [r7, #12]	@ float
 281              	.L16:
  61:.\Nextion_Communication.c **** 	{
 282              		.loc 1 61 0
 283 0160 BB69     		ldr	r3, [r7, #24]
 284 0162 5A1E     		subs	r2, r3, #1
 285 0164 BA61     		str	r2, [r7, #24]
 286 0166 002B     		cmp	r3, #0
 287 0168 B4D1     		bne	.L17
  71:.\Nextion_Communication.c **** 	}
  72:.\Nextion_Communication.c **** 	if ( f <= 0 )
 288              		.loc 1 72 0
 289 016a BB68     		ldr	r3, [r7, #8]
 290 016c 002B     		cmp	r3, #0
 291 016e 03DC     		bgt	.L18
  73:.\Nextion_Communication.c **** 	{
  74:.\Nextion_Communication.c **** 		*str = 0;
 292              		.loc 1 74 0
 293 0170 7B68     		ldr	r3, [r7, #4]
 294 0172 0022     		movs	r2, #0
 295 0174 1A70     		strb	r2, [r3]
  75:.\Nextion_Communication.c **** 		return ;
 296              		.loc 1 75 0
 297 0176 2AE0     		b	.L7
 298              	.L18:
  76:.\Nextion_Communication.c **** 	}
  77:.\Nextion_Communication.c **** 	*str++ = ',' ;  // Komma oder Punkt
 299              		.loc 1 77 0
 300 0178 7B68     		ldr	r3, [r7, #4]
 301 017a 5A1C     		adds	r2, r3, #1
 302 017c 7A60     		str	r2, [r7, #4]
 303 017e 2C22     		movs	r2, #44
 304 0180 1A70     		strb	r2, [r3]
  78:.\Nextion_Communication.c **** 	while ( f-- )
 305              		.loc 1 78 0
 306 0182 1CE0     		b	.L20
 307              	.L21:
  79:.\Nextion_Communication.c **** 	{
  80:.\Nextion_Communication.c **** 		/* output digits after decimal */
  81:.\Nextion_Communication.c **** 		x *= 10.0 ;
 308              		.loc 1 81 0
 309 0184 F868     		ldr	r0, [r7, #12]	@ float
 310 0186 1649     		ldr	r1, .L24+8
 311 0188 FFF7FEFF 		bl	__aeabi_fmul
 312 018c 0346     		mov	r3, r0
 313 018e FB60     		str	r3, [r7, #12]	@ float
  82:.\Nextion_Communication.c **** 		d = x;
 314              		.loc 1 82 0
 315 0190 F868     		ldr	r0, [r7, #12]	@ float
ARM GAS  C:\Users\LocalAdmin\AppData\Local\Temp\ccpapi3q.s 			page 8


 316 0192 FFF7FEFF 		bl	__aeabi_f2iz
 317 0196 0346     		mov	r3, r0
 318 0198 7B61     		str	r3, [r7, #20]
  83:.\Nextion_Communication.c **** 		*str++ = d + '0' ;
 319              		.loc 1 83 0
 320 019a 7B68     		ldr	r3, [r7, #4]
 321 019c 5A1C     		adds	r2, r3, #1
 322 019e 7A60     		str	r2, [r7, #4]
 323 01a0 7A69     		ldr	r2, [r7, #20]
 324 01a2 D2B2     		uxtb	r2, r2
 325 01a4 3032     		adds	r2, r2, #48
 326 01a6 D2B2     		uxtb	r2, r2
 327 01a8 1A70     		strb	r2, [r3]
  84:.\Nextion_Communication.c **** 		x -= d ;
 328              		.loc 1 84 0
 329 01aa 7869     		ldr	r0, [r7, #20]
 330 01ac FFF7FEFF 		bl	__aeabi_i2f
 331 01b0 0346     		mov	r3, r0
 332 01b2 F868     		ldr	r0, [r7, #12]	@ float
 333 01b4 1946     		mov	r1, r3
 334 01b6 FFF7FEFF 		bl	__aeabi_fsub
 335 01ba 0346     		mov	r3, r0
 336 01bc FB60     		str	r3, [r7, #12]	@ float
 337              	.L20:
  78:.\Nextion_Communication.c **** 	{
 338              		.loc 1 78 0
 339 01be BB68     		ldr	r3, [r7, #8]
 340 01c0 5A1E     		subs	r2, r3, #1
 341 01c2 BA60     		str	r2, [r7, #8]
 342 01c4 002B     		cmp	r3, #0
 343 01c6 DDD1     		bne	.L21
  85:.\Nextion_Communication.c **** 	}
  86:.\Nextion_Communication.c **** 	*str = 0;
 344              		.loc 1 86 0
 345 01c8 7B68     		ldr	r3, [r7, #4]
 346 01ca 0022     		movs	r2, #0
 347 01cc 1A70     		strb	r2, [r3]
 348              	.L7:
  87:.\Nextion_Communication.c **** }
 349              		.loc 1 87 0
 350 01ce 2037     		adds	r7, r7, #32
 351              		.cfi_def_cfa_offset 16
 352 01d0 BD46     		mov	sp, r7
 353              		.cfi_def_cfa_register 13
 354              		@ sp needed
 355 01d2 B0BD     		pop	{r4, r5, r7, pc}
 356              	.L25:
 357 01d4 AFF30080 		.align	3
 358              	.L24:
 359 01d8 9A999999 		.word	-1717986918
 360 01dc 9999B93F 		.word	1069128089
 361 01e0 00002041 		.word	1092616192
 362 01e4 0000F03F 		.word	1072693248
 363 01e8 0000E03F 		.word	1071644672
 364              		.cfi_endproc
 365              	.LFE57:
 366              		.size	ftoa, .-ftoa
ARM GAS  C:\Users\LocalAdmin\AppData\Local\Temp\ccpapi3q.s 			page 9


 367 01ec AFF30080 		.section	.text.myitoa,"ax",%progbits
 368              		.align	2
 369              		.global	myitoa
 370              		.thumb
 371              		.thumb_func
 372              		.type	myitoa, %function
 373              	myitoa:
 374              	.LFB58:
  88:.\Nextion_Communication.c **** 
  89:.\Nextion_Communication.c **** //**************************************************
  90:.\Nextion_Communication.c **** // Schreibt eine 16-Bit-Zahl in die LCD-Anzeige
  91:.\Nextion_Communication.c **** //**************************************************
  92:.\Nextion_Communication.c **** void myitoa(int a, char *str, unsigned char vkstellen, char nullflag)
  93:.\Nextion_Communication.c **** { unsigned char idx; 		/*Schleifenzähler*/
 375              		.loc 1 93 0
 376              		.cfi_startproc
 377              		@ args = 0, pretend = 0, frame = 40
 378              		@ frame_needed = 1, uses_anonymous_args = 0
 379              		@ link register save eliminated.
 380 0000 80B4     		push	{r7}
 381              		.cfi_def_cfa_offset 4
 382              		.cfi_offset 7, -4
 383 0002 8BB0     		sub	sp, sp, #44
 384              		.cfi_def_cfa_offset 48
 385 0004 00AF     		add	r7, sp, #0
 386              		.cfi_def_cfa_register 7
 387 0006 F860     		str	r0, [r7, #12]
 388 0008 B960     		str	r1, [r7, #8]
 389 000a 1146     		mov	r1, r2
 390 000c 1A46     		mov	r2, r3
 391 000e 0B46     		mov	r3, r1
 392 0010 FB71     		strb	r3, [r7, #7]
 393 0012 1346     		mov	r3, r2
 394 0014 BB71     		strb	r3, [r7, #6]
  94:.\Nextion_Communication.c ****   unsigned int div = 10000; /*Teilen bei int max 10000*/
 395              		.loc 1 94 0
 396 0016 42F21073 		movw	r3, #10000
 397 001a 3B62     		str	r3, [r7, #32]
  95:.\Nextion_Communication.c ****   unsigned int buff; 		/*Temp*/ 
  96:.\Nextion_Communication.c ****   unsigned char flag = 1; 	/*Flag wird für Nullunterdrückung benötigt*/
 398              		.loc 1 96 0
 399 001c 0123     		movs	r3, #1
 400 001e FB77     		strb	r3, [r7, #31]
  97:.\Nextion_Communication.c ****   unsigned char Ausgabe; 	/*Ausgabe Wert für String*/
  98:.\Nextion_Communication.c ****   flag=0;
 401              		.loc 1 98 0
 402 0020 0023     		movs	r3, #0
 403 0022 FB77     		strb	r3, [r7, #31]
  99:.\Nextion_Communication.c ****   for(idx=5;idx>0;idx--) 	/*Schleife 5* für 10000er Stelle*/
 404              		.loc 1 99 0
 405 0024 0523     		movs	r3, #5
 406 0026 87F82730 		strb	r3, [r7, #39]
 407 002a 4AE0     		b	.L27
 408              	.L35:
 100:.\Nextion_Communication.c ****   { buff = a;
 409              		.loc 1 100 0
 410 002c FB68     		ldr	r3, [r7, #12]
ARM GAS  C:\Users\LocalAdmin\AppData\Local\Temp\ccpapi3q.s 			page 10


 411 002e BB61     		str	r3, [r7, #24]
 101:.\Nextion_Communication.c ****     buff = buff / div;
 412              		.loc 1 101 0
 413 0030 BA69     		ldr	r2, [r7, #24]
 414 0032 3B6A     		ldr	r3, [r7, #32]
 415 0034 B2FBF3F3 		udiv	r3, r2, r3
 416 0038 BB61     		str	r3, [r7, #24]
 102:.\Nextion_Communication.c ****     if(flag == 0)
 417              		.loc 1 102 0
 418 003a FB7F     		ldrb	r3, [r7, #31]	@ zero_extendqisi2
 419 003c 002B     		cmp	r3, #0
 420 003e 04D1     		bne	.L28
 103:.\Nextion_Communication.c ****     { if(buff >0)
 421              		.loc 1 103 0
 422 0040 BB69     		ldr	r3, [r7, #24]
 423 0042 002B     		cmp	r3, #0
 424 0044 01D0     		beq	.L28
 104:.\Nextion_Communication.c ****       { flag = 1;
 425              		.loc 1 104 0
 426 0046 0123     		movs	r3, #1
 427 0048 FB77     		strb	r3, [r7, #31]
 428              	.L28:
 105:.\Nextion_Communication.c ****       }
 106:.\Nextion_Communication.c ****     }
 107:.\Nextion_Communication.c ****     Ausgabe = buff + 48; /*Umrechnung für Ergebnis String*/
 429              		.loc 1 107 0
 430 004a BB69     		ldr	r3, [r7, #24]
 431 004c DBB2     		uxtb	r3, r3
 432 004e 3033     		adds	r3, r3, #48
 433 0050 FB75     		strb	r3, [r7, #23]
 108:.\Nextion_Communication.c ****     // ggf. Leerstellenunterdrückung 
 109:.\Nextion_Communication.c **** 	if(flag == 0)
 434              		.loc 1 109 0
 435 0052 FB7F     		ldrb	r3, [r7, #31]	@ zero_extendqisi2
 436 0054 002B     		cmp	r3, #0
 437 0056 1DD1     		bne	.L29
 110:.\Nextion_Communication.c ****     { if(idx<=vkstellen)
 438              		.loc 1 110 0
 439 0058 97F82720 		ldrb	r2, [r7, #39]	@ zero_extendqisi2
 440 005c FB79     		ldrb	r3, [r7, #7]	@ zero_extendqisi2
 441 005e 9A42     		cmp	r2, r3
 442 0060 1DD8     		bhi	.L34
 111:.\Nextion_Communication.c **** 	  { if(nullflag==0) 
 443              		.loc 1 111 0
 444 0062 BB79     		ldrb	r3, [r7, #6]	@ zero_extendqisi2
 445 0064 002B     		cmp	r3, #0
 446 0066 0FD1     		bne	.L31
 112:.\Nextion_Communication.c **** 	    // { if (idx>1) *str++=254;
 113:.\Nextion_Communication.c **** 	    { if (idx>1) *str++=' ';        
 447              		.loc 1 113 0
 448 0068 97F82730 		ldrb	r3, [r7, #39]	@ zero_extendqisi2
 449 006c 012B     		cmp	r3, #1
 450 006e 05D9     		bls	.L32
 451              		.loc 1 113 0 is_stmt 0 discriminator 1
 452 0070 BB68     		ldr	r3, [r7, #8]
 453 0072 5A1C     		adds	r2, r3, #1
 454 0074 BA60     		str	r2, [r7, #8]
ARM GAS  C:\Users\LocalAdmin\AppData\Local\Temp\ccpapi3q.s 			page 11


 455 0076 2022     		movs	r2, #32
 456 0078 1A70     		strb	r2, [r3]
 457 007a 10E0     		b	.L34
 458              	.L32:
 114:.\Nextion_Communication.c **** 		  else       *str++=48;  // Sonderfall a=0 !
 459              		.loc 1 114 0 is_stmt 1
 460 007c BB68     		ldr	r3, [r7, #8]
 461 007e 5A1C     		adds	r2, r3, #1
 462 0080 BA60     		str	r2, [r7, #8]
 463 0082 3022     		movs	r2, #48
 464 0084 1A70     		strb	r2, [r3]
 465 0086 0AE0     		b	.L34
 466              	.L31:
 115:.\Nextion_Communication.c **** 	    }
 116:.\Nextion_Communication.c **** 		else         *str++=48; 
 467              		.loc 1 116 0
 468 0088 BB68     		ldr	r3, [r7, #8]
 469 008a 5A1C     		adds	r2, r3, #1
 470 008c BA60     		str	r2, [r7, #8]
 471 008e 3022     		movs	r2, #48
 472 0090 1A70     		strb	r2, [r3]
 473 0092 04E0     		b	.L34
 474              	.L29:
 117:.\Nextion_Communication.c **** 	  } /*Nullunterdrückung durch Leerzeichen*/
 118:.\Nextion_Communication.c ****     }
 119:.\Nextion_Communication.c **** 	else
 120:.\Nextion_Communication.c **** 	{ *str++=Ausgabe; }
 475              		.loc 1 120 0
 476 0094 BB68     		ldr	r3, [r7, #8]
 477 0096 5A1C     		adds	r2, r3, #1
 478 0098 BA60     		str	r2, [r7, #8]
 479 009a FA7D     		ldrb	r2, [r7, #23]
 480 009c 1A70     		strb	r2, [r3]
 481              	.L34:
 121:.\Nextion_Communication.c **** 	a = a - (buff * div);
 482              		.loc 1 121 0 discriminator 2
 483 009e FA68     		ldr	r2, [r7, #12]
 484 00a0 BB69     		ldr	r3, [r7, #24]
 485 00a2 396A     		ldr	r1, [r7, #32]
 486 00a4 01FB03F3 		mul	r3, r1, r3
 487 00a8 D31A     		subs	r3, r2, r3
 488 00aa FB60     		str	r3, [r7, #12]
 122:.\Nextion_Communication.c ****     div = div/10;
 489              		.loc 1 122 0 discriminator 2
 490 00ac 3B6A     		ldr	r3, [r7, #32]
 491 00ae 0C4A     		ldr	r2, .L36
 492 00b0 A2FB0323 		umull	r2, r3, r2, r3
 493 00b4 DB08     		lsrs	r3, r3, #3
 494 00b6 3B62     		str	r3, [r7, #32]
  99:.\Nextion_Communication.c ****   { buff = a;
 495              		.loc 1 99 0 discriminator 2
 496 00b8 97F82730 		ldrb	r3, [r7, #39]	@ zero_extendqisi2
 497 00bc 013B     		subs	r3, r3, #1
 498 00be 87F82730 		strb	r3, [r7, #39]
 499              	.L27:
  99:.\Nextion_Communication.c ****   { buff = a;
 500              		.loc 1 99 0 is_stmt 0 discriminator 1
ARM GAS  C:\Users\LocalAdmin\AppData\Local\Temp\ccpapi3q.s 			page 12


 501 00c2 97F82730 		ldrb	r3, [r7, #39]	@ zero_extendqisi2
 502 00c6 002B     		cmp	r3, #0
 503 00c8 B0D1     		bne	.L35
 123:.\Nextion_Communication.c ****   }
 124:.\Nextion_Communication.c ****   *str++=0;
 504              		.loc 1 124 0 is_stmt 1
 505 00ca BB68     		ldr	r3, [r7, #8]
 506 00cc 5A1C     		adds	r2, r3, #1
 507 00ce BA60     		str	r2, [r7, #8]
 508 00d0 0022     		movs	r2, #0
 509 00d2 1A70     		strb	r2, [r3]
 125:.\Nextion_Communication.c **** }
 510              		.loc 1 125 0
 511 00d4 2C37     		adds	r7, r7, #44
 512              		.cfi_def_cfa_offset 4
 513 00d6 BD46     		mov	sp, r7
 514              		.cfi_def_cfa_register 13
 515              		@ sp needed
 516 00d8 5DF8047B 		ldr	r7, [sp], #4
 517              		.cfi_restore 7
 518              		.cfi_def_cfa_offset 0
 519 00dc 7047     		bx	lr
 520              	.L37:
 521 00de 00BF     		.align	2
 522              	.L36:
 523 00e0 CDCCCCCC 		.word	-858993459
 524              		.cfi_endproc
 525              	.LFE58:
 526              		.size	myitoa, .-myitoa
 527              		.section	.text.Nextion_Send_String,"ax",%progbits
 528              		.align	2
 529              		.global	Nextion_Send_String
 530              		.thumb
 531              		.thumb_func
 532              		.type	Nextion_Send_String, %function
 533              	Nextion_Send_String:
 534              	.LFB59:
 126:.\Nextion_Communication.c **** 
 127:.\Nextion_Communication.c **** 
 128:.\Nextion_Communication.c **** void Nextion_Send_String(unsigned char *sfloat)
 129:.\Nextion_Communication.c **** {
 535              		.loc 1 129 0
 536              		.cfi_startproc
 537              		@ args = 0, pretend = 0, frame = 8
 538              		@ frame_needed = 1, uses_anonymous_args = 0
 539 0000 80B5     		push	{r7, lr}
 540              		.cfi_def_cfa_offset 8
 541              		.cfi_offset 7, -8
 542              		.cfi_offset 14, -4
 543 0002 82B0     		sub	sp, sp, #8
 544              		.cfi_def_cfa_offset 16
 545 0004 00AF     		add	r7, sp, #0
 546              		.cfi_def_cfa_register 7
 547 0006 7860     		str	r0, [r7, #4]
 130:.\Nextion_Communication.c ****         UART_TFT_PutString((char*)sfloat);
 548              		.loc 1 130 0
 549 0008 7868     		ldr	r0, [r7, #4]
ARM GAS  C:\Users\LocalAdmin\AppData\Local\Temp\ccpapi3q.s 			page 13


 550 000a FFF7FEFF 		bl	UART_TFT_PutString
 131:.\Nextion_Communication.c ****         UART_TFT_PutChar(0xFF);
 551              		.loc 1 131 0
 552 000e FF20     		movs	r0, #255
 553 0010 FFF7FEFF 		bl	UART_TFT_PutChar
 132:.\Nextion_Communication.c ****         UART_TFT_PutChar(0xFF);  
 554              		.loc 1 132 0
 555 0014 FF20     		movs	r0, #255
 556 0016 FFF7FEFF 		bl	UART_TFT_PutChar
 133:.\Nextion_Communication.c ****         UART_TFT_PutChar(0xFF);          
 557              		.loc 1 133 0
 558 001a FF20     		movs	r0, #255
 559 001c FFF7FEFF 		bl	UART_TFT_PutChar
 134:.\Nextion_Communication.c **** }
 560              		.loc 1 134 0
 561 0020 0837     		adds	r7, r7, #8
 562              		.cfi_def_cfa_offset 8
 563 0022 BD46     		mov	sp, r7
 564              		.cfi_def_cfa_register 13
 565              		@ sp needed
 566 0024 80BD     		pop	{r7, pc}
 567              		.cfi_endproc
 568              	.LFE59:
 569              		.size	Nextion_Send_String, .-Nextion_Send_String
 570 0026 00BF     		.section	.rodata
 571              		.align	2
 572              	.LC0:
 573 0000 74362E74 		.ascii	"t6.txt=\"\000"
 573      78743D22 
 573      00
 574 0009 000000   		.align	2
 575              	.LC1:
 576 000c 2200     		.ascii	"\"\000"
 577              		.section	.text.Nextion_Send_Sollwert,"ax",%progbits
 578              		.align	2
 579              		.global	Nextion_Send_Sollwert
 580              		.thumb
 581              		.thumb_func
 582              		.type	Nextion_Send_Sollwert, %function
 583              	Nextion_Send_Sollwert:
 584              	.LFB60:
 135:.\Nextion_Communication.c **** 
 136:.\Nextion_Communication.c **** void Nextion_Send_Sollwert(unsigned char *sfloat)
 137:.\Nextion_Communication.c **** {
 585              		.loc 1 137 0
 586              		.cfi_startproc
 587              		@ args = 0, pretend = 0, frame = 8
 588              		@ frame_needed = 1, uses_anonymous_args = 0
 589 0000 80B5     		push	{r7, lr}
 590              		.cfi_def_cfa_offset 8
 591              		.cfi_offset 7, -8
 592              		.cfi_offset 14, -4
 593 0002 82B0     		sub	sp, sp, #8
 594              		.cfi_def_cfa_offset 16
 595 0004 00AF     		add	r7, sp, #0
 596              		.cfi_def_cfa_register 7
 597 0006 7860     		str	r0, [r7, #4]
ARM GAS  C:\Users\LocalAdmin\AppData\Local\Temp\ccpapi3q.s 			page 14


 138:.\Nextion_Communication.c ****         UART_TFT_PutString((char*)"t6.txt=\"");
 598              		.loc 1 138 0
 599 0008 0D48     		ldr	r0, .L40
 600 000a FFF7FEFF 		bl	UART_TFT_PutString
 139:.\Nextion_Communication.c ****         UART_TFT_PutString((char*)sfloat);
 601              		.loc 1 139 0
 602 000e 7868     		ldr	r0, [r7, #4]
 603 0010 FFF7FEFF 		bl	UART_TFT_PutString
 140:.\Nextion_Communication.c ****         UART_TFT_PutChar(0xB0); // °
 604              		.loc 1 140 0
 605 0014 B020     		movs	r0, #176
 606 0016 FFF7FEFF 		bl	UART_TFT_PutChar
 141:.\Nextion_Communication.c ****         UART_TFT_PutChar('C');  // C            
 607              		.loc 1 141 0
 608 001a 4320     		movs	r0, #67
 609 001c FFF7FEFF 		bl	UART_TFT_PutChar
 142:.\Nextion_Communication.c ****         UART_TFT_PutString((char*)"\"");
 610              		.loc 1 142 0
 611 0020 0848     		ldr	r0, .L40+4
 612 0022 FFF7FEFF 		bl	UART_TFT_PutString
 143:.\Nextion_Communication.c ****         UART_TFT_PutChar(0xFF);
 613              		.loc 1 143 0
 614 0026 FF20     		movs	r0, #255
 615 0028 FFF7FEFF 		bl	UART_TFT_PutChar
 144:.\Nextion_Communication.c ****         UART_TFT_PutChar(0xFF);  
 616              		.loc 1 144 0
 617 002c FF20     		movs	r0, #255
 618 002e FFF7FEFF 		bl	UART_TFT_PutChar
 145:.\Nextion_Communication.c ****         UART_TFT_PutChar(0xFF);          
 619              		.loc 1 145 0
 620 0032 FF20     		movs	r0, #255
 621 0034 FFF7FEFF 		bl	UART_TFT_PutChar
 146:.\Nextion_Communication.c **** }
 622              		.loc 1 146 0
 623 0038 0837     		adds	r7, r7, #8
 624              		.cfi_def_cfa_offset 8
 625 003a BD46     		mov	sp, r7
 626              		.cfi_def_cfa_register 13
 627              		@ sp needed
 628 003c 80BD     		pop	{r7, pc}
 629              	.L41:
 630 003e 00BF     		.align	2
 631              	.L40:
 632 0040 00000000 		.word	.LC0
 633 0044 0C000000 		.word	.LC1
 634              		.cfi_endproc
 635              	.LFE60:
 636              		.size	Nextion_Send_Sollwert, .-Nextion_Send_Sollwert
 637              		.section	.rodata
 638 000e 0000     		.align	2
 639              	.LC2:
 640 0010 74312E74 		.ascii	"t1.txt=\"\000"
 640      78743D22 
 640      00
 641              		.section	.text.Nextion_Send_Sollwert_Wave,"ax",%progbits
 642              		.align	2
 643              		.global	Nextion_Send_Sollwert_Wave
ARM GAS  C:\Users\LocalAdmin\AppData\Local\Temp\ccpapi3q.s 			page 15


 644              		.thumb
 645              		.thumb_func
 646              		.type	Nextion_Send_Sollwert_Wave, %function
 647              	Nextion_Send_Sollwert_Wave:
 648              	.LFB61:
 147:.\Nextion_Communication.c **** 
 148:.\Nextion_Communication.c **** void Nextion_Send_Sollwert_Wave(unsigned char *sfloat)
 149:.\Nextion_Communication.c **** {
 649              		.loc 1 149 0
 650              		.cfi_startproc
 651              		@ args = 0, pretend = 0, frame = 8
 652              		@ frame_needed = 1, uses_anonymous_args = 0
 653 0000 80B5     		push	{r7, lr}
 654              		.cfi_def_cfa_offset 8
 655              		.cfi_offset 7, -8
 656              		.cfi_offset 14, -4
 657 0002 82B0     		sub	sp, sp, #8
 658              		.cfi_def_cfa_offset 16
 659 0004 00AF     		add	r7, sp, #0
 660              		.cfi_def_cfa_register 7
 661 0006 7860     		str	r0, [r7, #4]
 150:.\Nextion_Communication.c ****         UART_TFT_PutString((char*)"t1.txt=\"");
 662              		.loc 1 150 0
 663 0008 0A48     		ldr	r0, .L43
 664 000a FFF7FEFF 		bl	UART_TFT_PutString
 151:.\Nextion_Communication.c ****         UART_TFT_PutString((char*)sfloat);
 665              		.loc 1 151 0
 666 000e 7868     		ldr	r0, [r7, #4]
 667 0010 FFF7FEFF 		bl	UART_TFT_PutString
 152:.\Nextion_Communication.c ****         UART_TFT_PutString((char*)"\"");
 668              		.loc 1 152 0
 669 0014 0848     		ldr	r0, .L43+4
 670 0016 FFF7FEFF 		bl	UART_TFT_PutString
 153:.\Nextion_Communication.c ****         UART_TFT_PutChar(0xFF);
 671              		.loc 1 153 0
 672 001a FF20     		movs	r0, #255
 673 001c FFF7FEFF 		bl	UART_TFT_PutChar
 154:.\Nextion_Communication.c ****         UART_TFT_PutChar(0xFF);  
 674              		.loc 1 154 0
 675 0020 FF20     		movs	r0, #255
 676 0022 FFF7FEFF 		bl	UART_TFT_PutChar
 155:.\Nextion_Communication.c ****         UART_TFT_PutChar(0xFF);          
 677              		.loc 1 155 0
 678 0026 FF20     		movs	r0, #255
 679 0028 FFF7FEFF 		bl	UART_TFT_PutChar
 156:.\Nextion_Communication.c **** }
 680              		.loc 1 156 0
 681 002c 0837     		adds	r7, r7, #8
 682              		.cfi_def_cfa_offset 8
 683 002e BD46     		mov	sp, r7
 684              		.cfi_def_cfa_register 13
 685              		@ sp needed
 686 0030 80BD     		pop	{r7, pc}
 687              	.L44:
 688 0032 00BF     		.align	2
 689              	.L43:
 690 0034 10000000 		.word	.LC2
ARM GAS  C:\Users\LocalAdmin\AppData\Local\Temp\ccpapi3q.s 			page 16


 691 0038 0C000000 		.word	.LC1
 692              		.cfi_endproc
 693              	.LFE61:
 694              		.size	Nextion_Send_Sollwert_Wave, .-Nextion_Send_Sollwert_Wave
 695              		.section	.rodata
 696 0019 000000   		.align	2
 697              	.LC3:
 698 001c 74352E74 		.ascii	"t5.txt=\"\000"
 698      78743D22 
 698      00
 699              		.section	.text.Nextion_Send_Istwert,"ax",%progbits
 700              		.align	2
 701              		.global	Nextion_Send_Istwert
 702              		.thumb
 703              		.thumb_func
 704              		.type	Nextion_Send_Istwert, %function
 705              	Nextion_Send_Istwert:
 706              	.LFB62:
 157:.\Nextion_Communication.c **** 
 158:.\Nextion_Communication.c **** void Nextion_Send_Istwert(unsigned char *sfloat)
 159:.\Nextion_Communication.c **** {
 707              		.loc 1 159 0
 708              		.cfi_startproc
 709              		@ args = 0, pretend = 0, frame = 8
 710              		@ frame_needed = 1, uses_anonymous_args = 0
 711 0000 80B5     		push	{r7, lr}
 712              		.cfi_def_cfa_offset 8
 713              		.cfi_offset 7, -8
 714              		.cfi_offset 14, -4
 715 0002 82B0     		sub	sp, sp, #8
 716              		.cfi_def_cfa_offset 16
 717 0004 00AF     		add	r7, sp, #0
 718              		.cfi_def_cfa_register 7
 719 0006 7860     		str	r0, [r7, #4]
 160:.\Nextion_Communication.c ****         UART_TFT_PutString((char*)"t5.txt=\"");
 720              		.loc 1 160 0
 721 0008 0D48     		ldr	r0, .L46
 722 000a FFF7FEFF 		bl	UART_TFT_PutString
 161:.\Nextion_Communication.c ****         UART_TFT_PutString((char*)sfloat);
 723              		.loc 1 161 0
 724 000e 7868     		ldr	r0, [r7, #4]
 725 0010 FFF7FEFF 		bl	UART_TFT_PutString
 162:.\Nextion_Communication.c ****         UART_TFT_PutChar(0xB0); // °
 726              		.loc 1 162 0
 727 0014 B020     		movs	r0, #176
 728 0016 FFF7FEFF 		bl	UART_TFT_PutChar
 163:.\Nextion_Communication.c ****         UART_TFT_PutChar('C');  // C       
 729              		.loc 1 163 0
 730 001a 4320     		movs	r0, #67
 731 001c FFF7FEFF 		bl	UART_TFT_PutChar
 164:.\Nextion_Communication.c ****         UART_TFT_PutString((char*)"\"");
 732              		.loc 1 164 0
 733 0020 0848     		ldr	r0, .L46+4
 734 0022 FFF7FEFF 		bl	UART_TFT_PutString
 165:.\Nextion_Communication.c ****         UART_TFT_PutChar(0xFF);
 735              		.loc 1 165 0
 736 0026 FF20     		movs	r0, #255
ARM GAS  C:\Users\LocalAdmin\AppData\Local\Temp\ccpapi3q.s 			page 17


 737 0028 FFF7FEFF 		bl	UART_TFT_PutChar
 166:.\Nextion_Communication.c ****         UART_TFT_PutChar(0xFF);  
 738              		.loc 1 166 0
 739 002c FF20     		movs	r0, #255
 740 002e FFF7FEFF 		bl	UART_TFT_PutChar
 167:.\Nextion_Communication.c ****         UART_TFT_PutChar(0xFF);          
 741              		.loc 1 167 0
 742 0032 FF20     		movs	r0, #255
 743 0034 FFF7FEFF 		bl	UART_TFT_PutChar
 168:.\Nextion_Communication.c **** }
 744              		.loc 1 168 0
 745 0038 0837     		adds	r7, r7, #8
 746              		.cfi_def_cfa_offset 8
 747 003a BD46     		mov	sp, r7
 748              		.cfi_def_cfa_register 13
 749              		@ sp needed
 750 003c 80BD     		pop	{r7, pc}
 751              	.L47:
 752 003e 00BF     		.align	2
 753              	.L46:
 754 0040 1C000000 		.word	.LC3
 755 0044 0C000000 		.word	.LC1
 756              		.cfi_endproc
 757              	.LFE62:
 758              		.size	Nextion_Send_Istwert, .-Nextion_Send_Istwert
 759              		.global	__aeabi_f2uiz
 760              		.section	.rodata
 761 0025 000000   		.align	2
 762              	.LC4:
 763 0028 6E302E76 		.ascii	"n0.val=\000"
 763      616C3D00 
 764              		.section	.text.Nextion_Send_Istwert_Setup,"ax",%progbits
 765              		.align	2
 766              		.global	Nextion_Send_Istwert_Setup
 767              		.thumb
 768              		.thumb_func
 769              		.type	Nextion_Send_Istwert_Setup, %function
 770              	Nextion_Send_Istwert_Setup:
 771              	.LFB63:
 169:.\Nextion_Communication.c **** 
 170:.\Nextion_Communication.c **** 
 171:.\Nextion_Communication.c **** void Nextion_Send_Istwert_Setup(float sollwert)
 172:.\Nextion_Communication.c **** {
 772              		.loc 1 172 0
 773              		.cfi_startproc
 774              		@ args = 0, pretend = 0, frame = 24
 775              		@ frame_needed = 1, uses_anonymous_args = 0
 776 0000 80B5     		push	{r7, lr}
 777              		.cfi_def_cfa_offset 8
 778              		.cfi_offset 7, -8
 779              		.cfi_offset 14, -4
 780 0002 86B0     		sub	sp, sp, #24
 781              		.cfi_def_cfa_offset 32
 782 0004 00AF     		add	r7, sp, #0
 783              		.cfi_def_cfa_register 7
 784 0006 7860     		str	r0, [r7, #4]	@ float
 173:.\Nextion_Communication.c ****         char s[10];
ARM GAS  C:\Users\LocalAdmin\AppData\Local\Temp\ccpapi3q.s 			page 18


 174:.\Nextion_Communication.c ****         int w = (unsigned char)sollwert;
 785              		.loc 1 174 0
 786 0008 7868     		ldr	r0, [r7, #4]	@ float
 787 000a FFF7FEFF 		bl	__aeabi_f2uiz
 788 000e 0346     		mov	r3, r0
 789 0010 DBB2     		uxtb	r3, r3
 790 0012 7B61     		str	r3, [r7, #20]
 175:.\Nextion_Communication.c ****         myitoa(w,s,3,1);
 791              		.loc 1 175 0
 792 0014 07F10803 		add	r3, r7, #8
 793 0018 7869     		ldr	r0, [r7, #20]
 794 001a 1946     		mov	r1, r3
 795 001c 0322     		movs	r2, #3
 796 001e 0123     		movs	r3, #1
 797 0020 FFF7FEFF 		bl	myitoa
 176:.\Nextion_Communication.c ****         UART_TFT_PutString((char*)"n0.val=");
 798              		.loc 1 176 0
 799 0024 0948     		ldr	r0, .L49
 800 0026 FFF7FEFF 		bl	UART_TFT_PutString
 177:.\Nextion_Communication.c ****         UART_TFT_PutString((char*)s);
 801              		.loc 1 177 0
 802 002a 07F10803 		add	r3, r7, #8
 803 002e 1846     		mov	r0, r3
 804 0030 FFF7FEFF 		bl	UART_TFT_PutString
 178:.\Nextion_Communication.c ****         UART_TFT_PutChar(0xFF);
 805              		.loc 1 178 0
 806 0034 FF20     		movs	r0, #255
 807 0036 FFF7FEFF 		bl	UART_TFT_PutChar
 179:.\Nextion_Communication.c ****         UART_TFT_PutChar(0xFF);  
 808              		.loc 1 179 0
 809 003a FF20     		movs	r0, #255
 810 003c FFF7FEFF 		bl	UART_TFT_PutChar
 180:.\Nextion_Communication.c ****         UART_TFT_PutChar(0xFF);          
 811              		.loc 1 180 0
 812 0040 FF20     		movs	r0, #255
 813 0042 FFF7FEFF 		bl	UART_TFT_PutChar
 181:.\Nextion_Communication.c **** }
 814              		.loc 1 181 0
 815 0046 1837     		adds	r7, r7, #24
 816              		.cfi_def_cfa_offset 8
 817 0048 BD46     		mov	sp, r7
 818              		.cfi_def_cfa_register 13
 819              		@ sp needed
 820 004a 80BD     		pop	{r7, pc}
 821              	.L50:
 822              		.align	2
 823              	.L49:
 824 004c 28000000 		.word	.LC4
 825              		.cfi_endproc
 826              	.LFE63:
 827              		.size	Nextion_Send_Istwert_Setup, .-Nextion_Send_Istwert_Setup
 828              		.section	.rodata
 829              		.align	2
 830              	.LC5:
 831 0030 2E747874 		.ascii	".txt=\"\000"
 831      3D2200
 832              		.section	.text.Nextion_Send_Text_to_Textbox,"ax",%progbits
ARM GAS  C:\Users\LocalAdmin\AppData\Local\Temp\ccpapi3q.s 			page 19


 833              		.align	2
 834              		.global	Nextion_Send_Text_to_Textbox
 835              		.thumb
 836              		.thumb_func
 837              		.type	Nextion_Send_Text_to_Textbox, %function
 838              	Nextion_Send_Text_to_Textbox:
 839              	.LFB64:
 182:.\Nextion_Communication.c **** 
 183:.\Nextion_Communication.c **** void Nextion_Send_Text_to_Textbox(unsigned char *textbox,unsigned char *sfloat)
 184:.\Nextion_Communication.c **** {
 840              		.loc 1 184 0
 841              		.cfi_startproc
 842              		@ args = 0, pretend = 0, frame = 8
 843              		@ frame_needed = 1, uses_anonymous_args = 0
 844 0000 80B5     		push	{r7, lr}
 845              		.cfi_def_cfa_offset 8
 846              		.cfi_offset 7, -8
 847              		.cfi_offset 14, -4
 848 0002 82B0     		sub	sp, sp, #8
 849              		.cfi_def_cfa_offset 16
 850 0004 00AF     		add	r7, sp, #0
 851              		.cfi_def_cfa_register 7
 852 0006 7860     		str	r0, [r7, #4]
 853 0008 3960     		str	r1, [r7]
 185:.\Nextion_Communication.c ****         UART_TFT_PutString((char*)textbox);
 854              		.loc 1 185 0
 855 000a 7868     		ldr	r0, [r7, #4]
 856 000c FFF7FEFF 		bl	UART_TFT_PutString
 186:.\Nextion_Communication.c ****         UART_TFT_PutString(".txt=\""); 
 857              		.loc 1 186 0
 858 0010 0A48     		ldr	r0, .L52
 859 0012 FFF7FEFF 		bl	UART_TFT_PutString
 187:.\Nextion_Communication.c ****         UART_TFT_PutString((char*)sfloat);
 860              		.loc 1 187 0
 861 0016 3868     		ldr	r0, [r7]
 862 0018 FFF7FEFF 		bl	UART_TFT_PutString
 188:.\Nextion_Communication.c ****         UART_TFT_PutString((char*)"\"");
 863              		.loc 1 188 0
 864 001c 0848     		ldr	r0, .L52+4
 865 001e FFF7FEFF 		bl	UART_TFT_PutString
 189:.\Nextion_Communication.c ****         UART_TFT_PutChar(0xFF);
 866              		.loc 1 189 0
 867 0022 FF20     		movs	r0, #255
 868 0024 FFF7FEFF 		bl	UART_TFT_PutChar
 190:.\Nextion_Communication.c ****         UART_TFT_PutChar(0xFF);  
 869              		.loc 1 190 0
 870 0028 FF20     		movs	r0, #255
 871 002a FFF7FEFF 		bl	UART_TFT_PutChar
 191:.\Nextion_Communication.c ****         UART_TFT_PutChar(0xFF);          
 872              		.loc 1 191 0
 873 002e FF20     		movs	r0, #255
 874 0030 FFF7FEFF 		bl	UART_TFT_PutChar
 192:.\Nextion_Communication.c **** }
 875              		.loc 1 192 0
 876 0034 0837     		adds	r7, r7, #8
 877              		.cfi_def_cfa_offset 8
 878 0036 BD46     		mov	sp, r7
ARM GAS  C:\Users\LocalAdmin\AppData\Local\Temp\ccpapi3q.s 			page 20


 879              		.cfi_def_cfa_register 13
 880              		@ sp needed
 881 0038 80BD     		pop	{r7, pc}
 882              	.L53:
 883 003a 00BF     		.align	2
 884              	.L52:
 885 003c 30000000 		.word	.LC5
 886 0040 0C000000 		.word	.LC1
 887              		.cfi_endproc
 888              	.LFE64:
 889              		.size	Nextion_Send_Text_to_Textbox, .-Nextion_Send_Text_to_Textbox
 890              		.section	.text.Nextion_Send_Value_to_Textbox,"ax",%progbits
 891              		.align	2
 892              		.global	Nextion_Send_Value_to_Textbox
 893              		.thumb
 894              		.thumb_func
 895              		.type	Nextion_Send_Value_to_Textbox, %function
 896              	Nextion_Send_Value_to_Textbox:
 897              	.LFB65:
 193:.\Nextion_Communication.c **** 
 194:.\Nextion_Communication.c **** void Nextion_Send_Value_to_Textbox(unsigned char *textbox,float value)
 195:.\Nextion_Communication.c **** {
 898              		.loc 1 195 0
 899              		.cfi_startproc
 900              		@ args = 0, pretend = 0, frame = 24
 901              		@ frame_needed = 1, uses_anonymous_args = 0
 902 0000 80B5     		push	{r7, lr}
 903              		.cfi_def_cfa_offset 8
 904              		.cfi_offset 7, -8
 905              		.cfi_offset 14, -4
 906 0002 86B0     		sub	sp, sp, #24
 907              		.cfi_def_cfa_offset 32
 908 0004 00AF     		add	r7, sp, #0
 909              		.cfi_def_cfa_register 7
 910 0006 7860     		str	r0, [r7, #4]
 911 0008 3960     		str	r1, [r7]	@ float
 196:.\Nextion_Communication.c ****         char sfloat[10];
 197:.\Nextion_Communication.c ****         // Float anzeigewert to ASCII
 198:.\Nextion_Communication.c ****         ftoa(value,3,sfloat);    
 912              		.loc 1 198 0
 913 000a 07F10C03 		add	r3, r7, #12
 914 000e 3868     		ldr	r0, [r7]	@ float
 915 0010 0321     		movs	r1, #3
 916 0012 1A46     		mov	r2, r3
 917 0014 FFF7FEFF 		bl	ftoa
 199:.\Nextion_Communication.c ****         UART_TFT_PutString((char*)textbox);
 918              		.loc 1 199 0
 919 0018 7868     		ldr	r0, [r7, #4]
 920 001a FFF7FEFF 		bl	UART_TFT_PutString
 200:.\Nextion_Communication.c ****         UART_TFT_PutString(".txt=\""); 
 921              		.loc 1 200 0
 922 001e 0B48     		ldr	r0, .L55
 923 0020 FFF7FEFF 		bl	UART_TFT_PutString
 201:.\Nextion_Communication.c ****         UART_TFT_PutString((char*)sfloat);
 924              		.loc 1 201 0
 925 0024 07F10C03 		add	r3, r7, #12
 926 0028 1846     		mov	r0, r3
ARM GAS  C:\Users\LocalAdmin\AppData\Local\Temp\ccpapi3q.s 			page 21


 927 002a FFF7FEFF 		bl	UART_TFT_PutString
 202:.\Nextion_Communication.c ****         UART_TFT_PutString((char*)"\"");
 928              		.loc 1 202 0
 929 002e 0848     		ldr	r0, .L55+4
 930 0030 FFF7FEFF 		bl	UART_TFT_PutString
 203:.\Nextion_Communication.c ****         UART_TFT_PutChar(0xFF);
 931              		.loc 1 203 0
 932 0034 FF20     		movs	r0, #255
 933 0036 FFF7FEFF 		bl	UART_TFT_PutChar
 204:.\Nextion_Communication.c ****         UART_TFT_PutChar(0xFF);  
 934              		.loc 1 204 0
 935 003a FF20     		movs	r0, #255
 936 003c FFF7FEFF 		bl	UART_TFT_PutChar
 205:.\Nextion_Communication.c ****         UART_TFT_PutChar(0xFF);          
 937              		.loc 1 205 0
 938 0040 FF20     		movs	r0, #255
 939 0042 FFF7FEFF 		bl	UART_TFT_PutChar
 206:.\Nextion_Communication.c **** }
 940              		.loc 1 206 0
 941 0046 1837     		adds	r7, r7, #24
 942              		.cfi_def_cfa_offset 8
 943 0048 BD46     		mov	sp, r7
 944              		.cfi_def_cfa_register 13
 945              		@ sp needed
 946 004a 80BD     		pop	{r7, pc}
 947              	.L56:
 948              		.align	2
 949              	.L55:
 950 004c 30000000 		.word	.LC5
 951 0050 0C000000 		.word	.LC1
 952              		.cfi_endproc
 953              	.LFE65:
 954              		.size	Nextion_Send_Value_to_Textbox, .-Nextion_Send_Value_to_Textbox
 955              		.section	.rodata
 956 0037 00       		.align	2
 957              	.LC6:
 958 0038 252200   		.ascii	"%\"\000"
 959              		.section	.text.Nextion_Send_Stellwert,"ax",%progbits
 960              		.align	2
 961              		.global	Nextion_Send_Stellwert
 962              		.thumb
 963              		.thumb_func
 964              		.type	Nextion_Send_Stellwert, %function
 965              	Nextion_Send_Stellwert:
 966              	.LFB66:
 207:.\Nextion_Communication.c **** 
 208:.\Nextion_Communication.c **** 
 209:.\Nextion_Communication.c **** void Nextion_Send_Stellwert(unsigned char *istint)
 210:.\Nextion_Communication.c **** {
 967              		.loc 1 210 0
 968              		.cfi_startproc
 969              		@ args = 0, pretend = 0, frame = 8
 970              		@ frame_needed = 1, uses_anonymous_args = 0
 971 0000 80B5     		push	{r7, lr}
 972              		.cfi_def_cfa_offset 8
 973              		.cfi_offset 7, -8
 974              		.cfi_offset 14, -4
ARM GAS  C:\Users\LocalAdmin\AppData\Local\Temp\ccpapi3q.s 			page 22


 975 0002 82B0     		sub	sp, sp, #8
 976              		.cfi_def_cfa_offset 16
 977 0004 00AF     		add	r7, sp, #0
 978              		.cfi_def_cfa_register 7
 979 0006 7860     		str	r0, [r7, #4]
 211:.\Nextion_Communication.c ****         UART_TFT_PutString((char*)"t1.txt=\"");
 980              		.loc 1 211 0
 981 0008 0A48     		ldr	r0, .L58
 982 000a FFF7FEFF 		bl	UART_TFT_PutString
 212:.\Nextion_Communication.c ****         UART_TFT_PutString((char*)istint);
 983              		.loc 1 212 0
 984 000e 7868     		ldr	r0, [r7, #4]
 985 0010 FFF7FEFF 		bl	UART_TFT_PutString
 213:.\Nextion_Communication.c ****         UART_TFT_PutString((char*)"%\"");
 986              		.loc 1 213 0
 987 0014 0848     		ldr	r0, .L58+4
 988 0016 FFF7FEFF 		bl	UART_TFT_PutString
 214:.\Nextion_Communication.c ****         UART_TFT_PutChar(0xFF);
 989              		.loc 1 214 0
 990 001a FF20     		movs	r0, #255
 991 001c FFF7FEFF 		bl	UART_TFT_PutChar
 215:.\Nextion_Communication.c ****         UART_TFT_PutChar(0xFF);  
 992              		.loc 1 215 0
 993 0020 FF20     		movs	r0, #255
 994 0022 FFF7FEFF 		bl	UART_TFT_PutChar
 216:.\Nextion_Communication.c ****         UART_TFT_PutChar(0xFF);          
 995              		.loc 1 216 0
 996 0026 FF20     		movs	r0, #255
 997 0028 FFF7FEFF 		bl	UART_TFT_PutChar
 217:.\Nextion_Communication.c **** }
 998              		.loc 1 217 0
 999 002c 0837     		adds	r7, r7, #8
 1000              		.cfi_def_cfa_offset 8
 1001 002e BD46     		mov	sp, r7
 1002              		.cfi_def_cfa_register 13
 1003              		@ sp needed
 1004 0030 80BD     		pop	{r7, pc}
 1005              	.L59:
 1006 0032 00BF     		.align	2
 1007              	.L58:
 1008 0034 10000000 		.word	.LC2
 1009 0038 38000000 		.word	.LC6
 1010              		.cfi_endproc
 1011              	.LFE66:
 1012              		.size	Nextion_Send_Stellwert, .-Nextion_Send_Stellwert
 1013              		.section	.rodata
 1014 003b 00       		.align	2
 1015              	.LC7:
 1016 003c 6A302E76 		.ascii	"j0.val=\000"
 1016      616C3D00 
 1017              		.section	.text.Nextion_Send_Stellwert_Progressbar,"ax",%progbits
 1018              		.align	2
 1019              		.global	Nextion_Send_Stellwert_Progressbar
 1020              		.thumb
 1021              		.thumb_func
 1022              		.type	Nextion_Send_Stellwert_Progressbar, %function
 1023              	Nextion_Send_Stellwert_Progressbar:
ARM GAS  C:\Users\LocalAdmin\AppData\Local\Temp\ccpapi3q.s 			page 23


 1024              	.LFB67:
 218:.\Nextion_Communication.c **** 
 219:.\Nextion_Communication.c **** void Nextion_Send_Stellwert_Progressbar(unsigned char *istint)
 220:.\Nextion_Communication.c **** {
 1025              		.loc 1 220 0
 1026              		.cfi_startproc
 1027              		@ args = 0, pretend = 0, frame = 8
 1028              		@ frame_needed = 1, uses_anonymous_args = 0
 1029 0000 80B5     		push	{r7, lr}
 1030              		.cfi_def_cfa_offset 8
 1031              		.cfi_offset 7, -8
 1032              		.cfi_offset 14, -4
 1033 0002 82B0     		sub	sp, sp, #8
 1034              		.cfi_def_cfa_offset 16
 1035 0004 00AF     		add	r7, sp, #0
 1036              		.cfi_def_cfa_register 7
 1037 0006 7860     		str	r0, [r7, #4]
 221:.\Nextion_Communication.c ****         UART_TFT_PutString((char*)"j0.val=");
 1038              		.loc 1 221 0
 1039 0008 0848     		ldr	r0, .L61
 1040 000a FFF7FEFF 		bl	UART_TFT_PutString
 222:.\Nextion_Communication.c ****         UART_TFT_PutString((char*)istint);
 1041              		.loc 1 222 0
 1042 000e 7868     		ldr	r0, [r7, #4]
 1043 0010 FFF7FEFF 		bl	UART_TFT_PutString
 223:.\Nextion_Communication.c ****         UART_TFT_PutChar(0xFF);
 1044              		.loc 1 223 0
 1045 0014 FF20     		movs	r0, #255
 1046 0016 FFF7FEFF 		bl	UART_TFT_PutChar
 224:.\Nextion_Communication.c ****         UART_TFT_PutChar(0xFF);  
 1047              		.loc 1 224 0
 1048 001a FF20     		movs	r0, #255
 1049 001c FFF7FEFF 		bl	UART_TFT_PutChar
 225:.\Nextion_Communication.c ****         UART_TFT_PutChar(0xFF);          
 1050              		.loc 1 225 0
 1051 0020 FF20     		movs	r0, #255
 1052 0022 FFF7FEFF 		bl	UART_TFT_PutChar
 226:.\Nextion_Communication.c **** }
 1053              		.loc 1 226 0
 1054 0026 0837     		adds	r7, r7, #8
 1055              		.cfi_def_cfa_offset 8
 1056 0028 BD46     		mov	sp, r7
 1057              		.cfi_def_cfa_register 13
 1058              		@ sp needed
 1059 002a 80BD     		pop	{r7, pc}
 1060              	.L62:
 1061              		.align	2
 1062              	.L61:
 1063 002c 3C000000 		.word	.LC7
 1064              		.cfi_endproc
 1065              	.LFE67:
 1066              		.size	Nextion_Send_Stellwert_Progressbar, .-Nextion_Send_Stellwert_Progressbar
 1067              		.section	.rodata
 1068              		.align	2
 1069              	.LC8:
 1070 0044 61646420 		.ascii	"add 1,1,\000"
 1070      312C312C 
ARM GAS  C:\Users\LocalAdmin\AppData\Local\Temp\ccpapi3q.s 			page 24


 1070      00
 1071              		.section	.text.Nextion_Send_WaveValue,"ax",%progbits
 1072              		.align	2
 1073              		.global	Nextion_Send_WaveValue
 1074              		.thumb
 1075              		.thumb_func
 1076              		.type	Nextion_Send_WaveValue, %function
 1077              	Nextion_Send_WaveValue:
 1078              	.LFB68:
 227:.\Nextion_Communication.c **** 
 228:.\Nextion_Communication.c **** void Nextion_Send_WaveValue(unsigned char *sint)
 229:.\Nextion_Communication.c **** {
 1079              		.loc 1 229 0
 1080              		.cfi_startproc
 1081              		@ args = 0, pretend = 0, frame = 8
 1082              		@ frame_needed = 1, uses_anonymous_args = 0
 1083 0000 80B5     		push	{r7, lr}
 1084              		.cfi_def_cfa_offset 8
 1085              		.cfi_offset 7, -8
 1086              		.cfi_offset 14, -4
 1087 0002 82B0     		sub	sp, sp, #8
 1088              		.cfi_def_cfa_offset 16
 1089 0004 00AF     		add	r7, sp, #0
 1090              		.cfi_def_cfa_register 7
 1091 0006 7860     		str	r0, [r7, #4]
 230:.\Nextion_Communication.c ****         UART_TFT_PutString((char*)"add 1,1,");
 1092              		.loc 1 230 0
 1093 0008 0848     		ldr	r0, .L64
 1094 000a FFF7FEFF 		bl	UART_TFT_PutString
 231:.\Nextion_Communication.c ****         UART_TFT_PutString((char*)sint);
 1095              		.loc 1 231 0
 1096 000e 7868     		ldr	r0, [r7, #4]
 1097 0010 FFF7FEFF 		bl	UART_TFT_PutString
 232:.\Nextion_Communication.c ****         UART_TFT_PutChar(0xFF);
 1098              		.loc 1 232 0
 1099 0014 FF20     		movs	r0, #255
 1100 0016 FFF7FEFF 		bl	UART_TFT_PutChar
 233:.\Nextion_Communication.c ****         UART_TFT_PutChar(0xFF);  
 1101              		.loc 1 233 0
 1102 001a FF20     		movs	r0, #255
 1103 001c FFF7FEFF 		bl	UART_TFT_PutChar
 234:.\Nextion_Communication.c ****         UART_TFT_PutChar(0xFF);          
 1104              		.loc 1 234 0
 1105 0020 FF20     		movs	r0, #255
 1106 0022 FFF7FEFF 		bl	UART_TFT_PutChar
 235:.\Nextion_Communication.c **** }
 1107              		.loc 1 235 0
 1108 0026 0837     		adds	r7, r7, #8
 1109              		.cfi_def_cfa_offset 8
 1110 0028 BD46     		mov	sp, r7
 1111              		.cfi_def_cfa_register 13
 1112              		@ sp needed
 1113 002a 80BD     		pop	{r7, pc}
 1114              	.L65:
 1115              		.align	2
 1116              	.L64:
 1117 002c 44000000 		.word	.LC8
ARM GAS  C:\Users\LocalAdmin\AppData\Local\Temp\ccpapi3q.s 			page 25


 1118              		.cfi_endproc
 1119              	.LFE68:
 1120              		.size	Nextion_Send_WaveValue, .-Nextion_Send_WaveValue
 1121              		.section	.rodata
 1122 004d 000000   		.align	2
 1123              	.LC9:
 1124 0050 61646420 		.ascii	"add 1,2,\000"
 1124      312C322C 
 1124      00
 1125 0059 000000   		.section	.text.Nextion_Send_WaveValue_Messkammer,"ax",%progbits
 1126              		.align	2
 1127              		.global	Nextion_Send_WaveValue_Messkammer
 1128              		.thumb
 1129              		.thumb_func
 1130              		.type	Nextion_Send_WaveValue_Messkammer, %function
 1131              	Nextion_Send_WaveValue_Messkammer:
 1132              	.LFB69:
 236:.\Nextion_Communication.c **** 
 237:.\Nextion_Communication.c **** 
 238:.\Nextion_Communication.c **** void Nextion_Send_WaveValue_Messkammer(unsigned char *sint)
 239:.\Nextion_Communication.c **** {
 1133              		.loc 1 239 0
 1134              		.cfi_startproc
 1135              		@ args = 0, pretend = 0, frame = 8
 1136              		@ frame_needed = 1, uses_anonymous_args = 0
 1137 0000 80B5     		push	{r7, lr}
 1138              		.cfi_def_cfa_offset 8
 1139              		.cfi_offset 7, -8
 1140              		.cfi_offset 14, -4
 1141 0002 82B0     		sub	sp, sp, #8
 1142              		.cfi_def_cfa_offset 16
 1143 0004 00AF     		add	r7, sp, #0
 1144              		.cfi_def_cfa_register 7
 1145 0006 7860     		str	r0, [r7, #4]
 240:.\Nextion_Communication.c ****         UART_TFT_PutString((char*)"add 1,2,");
 1146              		.loc 1 240 0
 1147 0008 0848     		ldr	r0, .L67
 1148 000a FFF7FEFF 		bl	UART_TFT_PutString
 241:.\Nextion_Communication.c ****         UART_TFT_PutString((char*)sint);
 1149              		.loc 1 241 0
 1150 000e 7868     		ldr	r0, [r7, #4]
 1151 0010 FFF7FEFF 		bl	UART_TFT_PutString
 242:.\Nextion_Communication.c ****         UART_TFT_PutChar(0xFF);
 1152              		.loc 1 242 0
 1153 0014 FF20     		movs	r0, #255
 1154 0016 FFF7FEFF 		bl	UART_TFT_PutChar
 243:.\Nextion_Communication.c ****         UART_TFT_PutChar(0xFF);  
 1155              		.loc 1 243 0
 1156 001a FF20     		movs	r0, #255
 1157 001c FFF7FEFF 		bl	UART_TFT_PutChar
 244:.\Nextion_Communication.c ****         UART_TFT_PutChar(0xFF);          
 1158              		.loc 1 244 0
 1159 0020 FF20     		movs	r0, #255
 1160 0022 FFF7FEFF 		bl	UART_TFT_PutChar
 245:.\Nextion_Communication.c **** }
 1161              		.loc 1 245 0
 1162 0026 0837     		adds	r7, r7, #8
ARM GAS  C:\Users\LocalAdmin\AppData\Local\Temp\ccpapi3q.s 			page 26


 1163              		.cfi_def_cfa_offset 8
 1164 0028 BD46     		mov	sp, r7
 1165              		.cfi_def_cfa_register 13
 1166              		@ sp needed
 1167 002a 80BD     		pop	{r7, pc}
 1168              	.L68:
 1169              		.align	2
 1170              	.L67:
 1171 002c 50000000 		.word	.LC9
 1172              		.cfi_endproc
 1173              	.LFE69:
 1174              		.size	Nextion_Send_WaveValue_Messkammer, .-Nextion_Send_WaveValue_Messkammer
 1175              		.text
 1176              	.Letext0:
 1177              		.file 2 "c:\\program files (x86)\\cypress\\psoc creator\\3.3\\psoc creator\\import\\gnu\\arm\\4.9.
 1178              		.file 3 "c:\\program files (x86)\\cypress\\psoc creator\\3.3\\psoc creator\\import\\gnu\\arm\\4.9.
 1179              		.file 4 "Generated_Source\\PSoC5/core_cm3.h"