ARM GAS  C:\Users\LocalAdmin\AppData\Local\Temp\ccxmPewG.s 			page 1


   1              		.syntax unified
   2              		.cpu cortex-m3
   3              		.fpu softvfp
   4              		.eabi_attribute 20, 1
   5              		.eabi_attribute 21, 1
   6              		.eabi_attribute 23, 3
   7              		.eabi_attribute 24, 1
   8              		.eabi_attribute 25, 1
   9              		.eabi_attribute 26, 1
  10              		.eabi_attribute 30, 6
  11              		.eabi_attribute 34, 1
  12              		.eabi_attribute 18, 4
  13              		.thumb
  14              		.file	"SW_Tx_UART_1.c"
  15              		.text
  16              	.Ltext0:
  17              		.cfi_sections	.debug_frame
  18              		.global	SW_Tx_UART_1_pinNumber
  19              		.data
  20              		.align	2
  21              		.type	SW_Tx_UART_1_pinNumber, %object
  22              		.size	SW_Tx_UART_1_pinNumber, 4
  23              	SW_Tx_UART_1_pinNumber:
  24 0000 05000000 		.word	5
  25              		.global	SW_Tx_UART_1_pinPortNumber
  26              		.align	2
  27              		.type	SW_Tx_UART_1_pinPortNumber, %object
  28              		.size	SW_Tx_UART_1_pinPortNumber, 4
  29              	SW_Tx_UART_1_pinPortNumber:
  30 0004 01000000 		.word	1
  31              		.global	SW_Tx_UART_1_pinDrAdress
  32              		.align	2
  33              		.type	SW_Tx_UART_1_pinDrAdress, %object
  34              		.size	SW_Tx_UART_1_pinDrAdress, 4
  35              	SW_Tx_UART_1_pinDrAdress:
  36 0008 0D500040 		.word	1073762317
  37              		.section	.text.SW_Tx_UART_1_Start,"ax",%progbits
  38              		.align	2
  39              		.global	SW_Tx_UART_1_Start
  40              		.thumb
  41              		.thumb_func
  42              		.type	SW_Tx_UART_1_Start, %function
  43              	SW_Tx_UART_1_Start:
  44              	.LFB0:
  45              		.file 1 "Generated_Source\\PSoC5\\SW_Tx_UART_1.c"
   1:Generated_Source\PSoC5/SW_Tx_UART_1.c **** /*******************************************************************************
   2:Generated_Source\PSoC5/SW_Tx_UART_1.c **** * File Name: SW_Tx_UART_1.c
   3:Generated_Source\PSoC5/SW_Tx_UART_1.c **** * Version 1.50
   4:Generated_Source\PSoC5/SW_Tx_UART_1.c **** *
   5:Generated_Source\PSoC5/SW_Tx_UART_1.c **** * Description:
   6:Generated_Source\PSoC5/SW_Tx_UART_1.c **** *  This file provides the source code to the API for the Software Transmit UART.
   7:Generated_Source\PSoC5/SW_Tx_UART_1.c **** *
   8:Generated_Source\PSoC5/SW_Tx_UART_1.c **** ********************************************************************************
   9:Generated_Source\PSoC5/SW_Tx_UART_1.c **** * Copyright 2013-2015, Cypress Semiconductor Corporation.  All rights reserved.
  10:Generated_Source\PSoC5/SW_Tx_UART_1.c **** * You may use this file only in accordance with the license, terms, conditions,
  11:Generated_Source\PSoC5/SW_Tx_UART_1.c **** * disclaimers, and limitations in the end user license agreement accompanying
  12:Generated_Source\PSoC5/SW_Tx_UART_1.c **** * the software package with which this file was provided.
ARM GAS  C:\Users\LocalAdmin\AppData\Local\Temp\ccxmPewG.s 			page 2


  13:Generated_Source\PSoC5/SW_Tx_UART_1.c **** *******************************************************************************/
  14:Generated_Source\PSoC5/SW_Tx_UART_1.c **** 
  15:Generated_Source\PSoC5/SW_Tx_UART_1.c **** #include "SW_Tx_UART_1_PVT.h"
  16:Generated_Source\PSoC5/SW_Tx_UART_1.c **** 
  17:Generated_Source\PSoC5/SW_Tx_UART_1.c **** #if(SW_Tx_UART_1_PIN_STATIC_MODE == 1u)
  18:Generated_Source\PSoC5/SW_Tx_UART_1.c ****     uint32 SW_Tx_UART_1_pinNumber = SW_Tx_UART_1_PIN_NUMBER;
  19:Generated_Source\PSoC5/SW_Tx_UART_1.c ****     uint32 SW_Tx_UART_1_pinPortNumber = SW_Tx_UART_1_PIN_PORT_NUMBER;
  20:Generated_Source\PSoC5/SW_Tx_UART_1.c ****     #if(CY_PSOC3)
  21:Generated_Source\PSoC5/SW_Tx_UART_1.c ****         uint32 pdata SW_Tx_UART_1_pinDrAdress = SW_Tx_UART_1_PIN_DR;
  22:Generated_Source\PSoC5/SW_Tx_UART_1.c ****     #else
  23:Generated_Source\PSoC5/SW_Tx_UART_1.c ****         uint32 SW_Tx_UART_1_pinDrAdress = SW_Tx_UART_1_PIN_DR;
  24:Generated_Source\PSoC5/SW_Tx_UART_1.c ****     #endif /* (CY_PSOC3) */
  25:Generated_Source\PSoC5/SW_Tx_UART_1.c **** #else
  26:Generated_Source\PSoC5/SW_Tx_UART_1.c ****     uint32 SW_Tx_UART_1_pinNumber;
  27:Generated_Source\PSoC5/SW_Tx_UART_1.c ****     uint32 SW_Tx_UART_1_pinPortNumber;
  28:Generated_Source\PSoC5/SW_Tx_UART_1.c ****     #if(CY_PSOC3)
  29:Generated_Source\PSoC5/SW_Tx_UART_1.c ****         uint32 pdata SW_Tx_UART_1_pinDrAdress;
  30:Generated_Source\PSoC5/SW_Tx_UART_1.c ****     #else
  31:Generated_Source\PSoC5/SW_Tx_UART_1.c ****         uint32 SW_Tx_UART_1_pinDrAdress;
  32:Generated_Source\PSoC5/SW_Tx_UART_1.c ****     #endif /* (CY_PSOC3) */
  33:Generated_Source\PSoC5/SW_Tx_UART_1.c **** #endif /* (SW_Tx_UART_1_PIN_STATIC_MODE == 1u) */
  34:Generated_Source\PSoC5/SW_Tx_UART_1.c **** 
  35:Generated_Source\PSoC5/SW_Tx_UART_1.c **** 
  36:Generated_Source\PSoC5/SW_Tx_UART_1.c **** #if(SW_Tx_UART_1_PIN_STATIC_MODE == 1u)
  37:Generated_Source\PSoC5/SW_Tx_UART_1.c ****     /*******************************************************************************
  38:Generated_Source\PSoC5/SW_Tx_UART_1.c ****     * Function Name: SW_Tx_UART_1_Start
  39:Generated_Source\PSoC5/SW_Tx_UART_1.c ****     ********************************************************************************
  40:Generated_Source\PSoC5/SW_Tx_UART_1.c ****     *
  41:Generated_Source\PSoC5/SW_Tx_UART_1.c ****     * Summary:
  42:Generated_Source\PSoC5/SW_Tx_UART_1.c ****     *  Empty function. Included for consistency with other
  43:Generated_Source\PSoC5/SW_Tx_UART_1.c ****     *  components. This API is not available when PinAssignmentMethod
  44:Generated_Source\PSoC5/SW_Tx_UART_1.c ****     *  is set to Dynamic.
  45:Generated_Source\PSoC5/SW_Tx_UART_1.c ****     *
  46:Generated_Source\PSoC5/SW_Tx_UART_1.c ****     * Parameters:
  47:Generated_Source\PSoC5/SW_Tx_UART_1.c ****     *  None
  48:Generated_Source\PSoC5/SW_Tx_UART_1.c ****     *
  49:Generated_Source\PSoC5/SW_Tx_UART_1.c ****     * Return:
  50:Generated_Source\PSoC5/SW_Tx_UART_1.c ****     *  None
  51:Generated_Source\PSoC5/SW_Tx_UART_1.c ****     *
  52:Generated_Source\PSoC5/SW_Tx_UART_1.c ****     *******************************************************************************/
  53:Generated_Source\PSoC5/SW_Tx_UART_1.c ****     void SW_Tx_UART_1_Start(void) 
  54:Generated_Source\PSoC5/SW_Tx_UART_1.c ****     {
  46              		.loc 1 54 0
  47              		.cfi_startproc
  48              		@ args = 0, pretend = 0, frame = 0
  49              		@ frame_needed = 1, uses_anonymous_args = 0
  50              		@ link register save eliminated.
  51 0000 80B4     		push	{r7}
  52              		.cfi_def_cfa_offset 4
  53              		.cfi_offset 7, -4
  54 0002 00AF     		add	r7, sp, #0
  55              		.cfi_def_cfa_register 7
  55:Generated_Source\PSoC5/SW_Tx_UART_1.c **** 
  56:Generated_Source\PSoC5/SW_Tx_UART_1.c ****     }
  56              		.loc 1 56 0
  57 0004 BD46     		mov	sp, r7
  58              		.cfi_def_cfa_register 13
ARM GAS  C:\Users\LocalAdmin\AppData\Local\Temp\ccxmPewG.s 			page 3


  59              		@ sp needed
  60 0006 5DF8047B 		ldr	r7, [sp], #4
  61              		.cfi_restore 7
  62              		.cfi_def_cfa_offset 0
  63 000a 7047     		bx	lr
  64              		.cfi_endproc
  65              	.LFE0:
  66              		.size	SW_Tx_UART_1_Start, .-SW_Tx_UART_1_Start
  67              		.section	.text.SW_Tx_UART_1_Stop,"ax",%progbits
  68              		.align	2
  69              		.global	SW_Tx_UART_1_Stop
  70              		.thumb
  71              		.thumb_func
  72              		.type	SW_Tx_UART_1_Stop, %function
  73              	SW_Tx_UART_1_Stop:
  74              	.LFB1:
  57:Generated_Source\PSoC5/SW_Tx_UART_1.c **** #else
  58:Generated_Source\PSoC5/SW_Tx_UART_1.c ****     /*******************************************************************************
  59:Generated_Source\PSoC5/SW_Tx_UART_1.c ****     * Function Name: SW_Tx_UART_1_StartEx
  60:Generated_Source\PSoC5/SW_Tx_UART_1.c ****     ********************************************************************************
  61:Generated_Source\PSoC5/SW_Tx_UART_1.c ****     *
  62:Generated_Source\PSoC5/SW_Tx_UART_1.c ****     * Summary:
  63:Generated_Source\PSoC5/SW_Tx_UART_1.c ****     *  Configures the SW Tx UART to use the pin specified
  64:Generated_Source\PSoC5/SW_Tx_UART_1.c ****     *  by the parameters. This API is only available when
  65:Generated_Source\PSoC5/SW_Tx_UART_1.c ****     *  PinAssignmentMethod is set to Dynamic.
  66:Generated_Source\PSoC5/SW_Tx_UART_1.c ****     *
  67:Generated_Source\PSoC5/SW_Tx_UART_1.c ****     * Parameters:
  68:Generated_Source\PSoC5/SW_Tx_UART_1.c ****     *  port:  Port number for dynamic pin assignment
  69:Generated_Source\PSoC5/SW_Tx_UART_1.c ****     *  pin:   Pin number for dynamic pin assignment
  70:Generated_Source\PSoC5/SW_Tx_UART_1.c ****     *
  71:Generated_Source\PSoC5/SW_Tx_UART_1.c ****     * Return:
  72:Generated_Source\PSoC5/SW_Tx_UART_1.c ****     *  None
  73:Generated_Source\PSoC5/SW_Tx_UART_1.c ****     *
  74:Generated_Source\PSoC5/SW_Tx_UART_1.c ****     *******************************************************************************/
  75:Generated_Source\PSoC5/SW_Tx_UART_1.c ****     void SW_Tx_UART_1_StartEx(uint8 port, uint8 pin) 
  76:Generated_Source\PSoC5/SW_Tx_UART_1.c ****     {
  77:Generated_Source\PSoC5/SW_Tx_UART_1.c ****         uint32 portConfigAddr;
  78:Generated_Source\PSoC5/SW_Tx_UART_1.c **** 
  79:Generated_Source\PSoC5/SW_Tx_UART_1.c ****         #if (CY_PSOC4)
  80:Generated_Source\PSoC5/SW_Tx_UART_1.c ****             uint32 portDataRegAddr;
  81:Generated_Source\PSoC5/SW_Tx_UART_1.c ****         #endif /* (CY_PSOC4) */
  82:Generated_Source\PSoC5/SW_Tx_UART_1.c **** 
  83:Generated_Source\PSoC5/SW_Tx_UART_1.c ****         if ((pin <= SW_Tx_UART_1_MAX_PIN_NUMBER) && (port <= SW_Tx_UART_1_MAX_PORT_NUMBER))
  84:Generated_Source\PSoC5/SW_Tx_UART_1.c ****         {
  85:Generated_Source\PSoC5/SW_Tx_UART_1.c ****             #if (!CY_PSOC4)
  86:Generated_Source\PSoC5/SW_Tx_UART_1.c ****                 portConfigAddr = SW_Tx_UART_1_PORT_CNF_BASE;
  87:Generated_Source\PSoC5/SW_Tx_UART_1.c ****                 portConfigAddr += ((uint32)port * (SW_Tx_UART_1_MAX_PIN_NUMBER + 1u)) + pin;
  88:Generated_Source\PSoC5/SW_Tx_UART_1.c ****                 CyPins_SetPinDriveMode(portConfigAddr, CY_PINS_DM_STRONG);
  89:Generated_Source\PSoC5/SW_Tx_UART_1.c ****                 CyPins_SetPin(portConfigAddr);
  90:Generated_Source\PSoC5/SW_Tx_UART_1.c ****                 SW_Tx_UART_1_pinDrAdress = portConfigAddr;
  91:Generated_Source\PSoC5/SW_Tx_UART_1.c ****             #else
  92:Generated_Source\PSoC5/SW_Tx_UART_1.c ****                 portConfigAddr = SW_Tx_UART_1_PORT_CNF_BASE + (SW_Tx_UART_1_PORT_CNF_SIZE * port) +
  93:Generated_Source\PSoC5/SW_Tx_UART_1.c ****                                                                                 SW_Tx_UART_1_PORT_C
  94:Generated_Source\PSoC5/SW_Tx_UART_1.c ****                 CY_SYS_PINS_SET_DRIVE_MODE(portConfigAddr, pin, CY_SYS_PINS_DM_STRONG);
  95:Generated_Source\PSoC5/SW_Tx_UART_1.c ****                 portDataRegAddr = SW_Tx_UART_1_PORT_CNF_BASE + (SW_Tx_UART_1_PORT_CNF_SIZE * port) 
  96:Generated_Source\PSoC5/SW_Tx_UART_1.c ****                                                                                 SW_Tx_UART_1_PORT_C
  97:Generated_Source\PSoC5/SW_Tx_UART_1.c ****                 CY_SYS_PINS_SET_PIN(portDataRegAddr, pin);
ARM GAS  C:\Users\LocalAdmin\AppData\Local\Temp\ccxmPewG.s 			page 4


  98:Generated_Source\PSoC5/SW_Tx_UART_1.c ****                 SW_Tx_UART_1_pinDrAdress = portDataRegAddr;
  99:Generated_Source\PSoC5/SW_Tx_UART_1.c ****             #endif /* (!CY_PSOC4) */
 100:Generated_Source\PSoC5/SW_Tx_UART_1.c ****             SW_Tx_UART_1_pinNumber = pin;
 101:Generated_Source\PSoC5/SW_Tx_UART_1.c ****             SW_Tx_UART_1_pinPortNumber = port;
 102:Generated_Source\PSoC5/SW_Tx_UART_1.c ****         }
 103:Generated_Source\PSoC5/SW_Tx_UART_1.c ****     }
 104:Generated_Source\PSoC5/SW_Tx_UART_1.c **** #endif /* (SW_Tx_UART_1_PIN_STATIC_MODE == 1u) */
 105:Generated_Source\PSoC5/SW_Tx_UART_1.c **** 
 106:Generated_Source\PSoC5/SW_Tx_UART_1.c **** 
 107:Generated_Source\PSoC5/SW_Tx_UART_1.c **** /*******************************************************************************
 108:Generated_Source\PSoC5/SW_Tx_UART_1.c **** * Function Name: SW_Tx_UART_1_Stop
 109:Generated_Source\PSoC5/SW_Tx_UART_1.c **** ********************************************************************************
 110:Generated_Source\PSoC5/SW_Tx_UART_1.c **** *
 111:Generated_Source\PSoC5/SW_Tx_UART_1.c **** * Summary:
 112:Generated_Source\PSoC5/SW_Tx_UART_1.c **** *  Empty function. Included for consistency with other components.
 113:Generated_Source\PSoC5/SW_Tx_UART_1.c **** *
 114:Generated_Source\PSoC5/SW_Tx_UART_1.c **** * Parameters:
 115:Generated_Source\PSoC5/SW_Tx_UART_1.c **** *  None
 116:Generated_Source\PSoC5/SW_Tx_UART_1.c **** *
 117:Generated_Source\PSoC5/SW_Tx_UART_1.c **** * Return:
 118:Generated_Source\PSoC5/SW_Tx_UART_1.c **** *  None
 119:Generated_Source\PSoC5/SW_Tx_UART_1.c **** *
 120:Generated_Source\PSoC5/SW_Tx_UART_1.c **** *******************************************************************************/
 121:Generated_Source\PSoC5/SW_Tx_UART_1.c **** void SW_Tx_UART_1_Stop(void) 
 122:Generated_Source\PSoC5/SW_Tx_UART_1.c **** {
  75              		.loc 1 122 0
  76              		.cfi_startproc
  77              		@ args = 0, pretend = 0, frame = 0
  78              		@ frame_needed = 1, uses_anonymous_args = 0
  79              		@ link register save eliminated.
  80 0000 80B4     		push	{r7}
  81              		.cfi_def_cfa_offset 4
  82              		.cfi_offset 7, -4
  83 0002 00AF     		add	r7, sp, #0
  84              		.cfi_def_cfa_register 7
 123:Generated_Source\PSoC5/SW_Tx_UART_1.c **** 
 124:Generated_Source\PSoC5/SW_Tx_UART_1.c **** }
  85              		.loc 1 124 0
  86 0004 BD46     		mov	sp, r7
  87              		.cfi_def_cfa_register 13
  88              		@ sp needed
  89 0006 5DF8047B 		ldr	r7, [sp], #4
  90              		.cfi_restore 7
  91              		.cfi_def_cfa_offset 0
  92 000a 7047     		bx	lr
  93              		.cfi_endproc
  94              	.LFE1:
  95              		.size	SW_Tx_UART_1_Stop, .-SW_Tx_UART_1_Stop
  96              		.section	.text.SW_Tx_UART_1_PutString,"ax",%progbits
  97              		.align	2
  98              		.global	SW_Tx_UART_1_PutString
  99              		.thumb
 100              		.thumb_func
 101              		.type	SW_Tx_UART_1_PutString, %function
 102              	SW_Tx_UART_1_PutString:
 103              	.LFB2:
 125:Generated_Source\PSoC5/SW_Tx_UART_1.c **** 
ARM GAS  C:\Users\LocalAdmin\AppData\Local\Temp\ccxmPewG.s 			page 5


 126:Generated_Source\PSoC5/SW_Tx_UART_1.c **** 
 127:Generated_Source\PSoC5/SW_Tx_UART_1.c **** /*******************************************************************************
 128:Generated_Source\PSoC5/SW_Tx_UART_1.c **** * Function Name: SW_Tx_UART_1_PutString
 129:Generated_Source\PSoC5/SW_Tx_UART_1.c **** ********************************************************************************
 130:Generated_Source\PSoC5/SW_Tx_UART_1.c **** *
 131:Generated_Source\PSoC5/SW_Tx_UART_1.c **** * Summary:
 132:Generated_Source\PSoC5/SW_Tx_UART_1.c **** *  Sends a NULL terminated string via the Tx pin.
 133:Generated_Source\PSoC5/SW_Tx_UART_1.c **** *
 134:Generated_Source\PSoC5/SW_Tx_UART_1.c **** * Parameters:
 135:Generated_Source\PSoC5/SW_Tx_UART_1.c **** *  string: Pointer to the null terminated string to send
 136:Generated_Source\PSoC5/SW_Tx_UART_1.c **** *
 137:Generated_Source\PSoC5/SW_Tx_UART_1.c **** * Return:
 138:Generated_Source\PSoC5/SW_Tx_UART_1.c **** *  None
 139:Generated_Source\PSoC5/SW_Tx_UART_1.c **** *
 140:Generated_Source\PSoC5/SW_Tx_UART_1.c **** *******************************************************************************/
 141:Generated_Source\PSoC5/SW_Tx_UART_1.c **** void SW_Tx_UART_1_PutString(const char8 string[]) 
 142:Generated_Source\PSoC5/SW_Tx_UART_1.c **** {
 104              		.loc 1 142 0
 105              		.cfi_startproc
 106              		@ args = 0, pretend = 0, frame = 16
 107              		@ frame_needed = 1, uses_anonymous_args = 0
 108 0000 80B5     		push	{r7, lr}
 109              		.cfi_def_cfa_offset 8
 110              		.cfi_offset 7, -8
 111              		.cfi_offset 14, -4
 112 0002 84B0     		sub	sp, sp, #16
 113              		.cfi_def_cfa_offset 24
 114 0004 00AF     		add	r7, sp, #0
 115              		.cfi_def_cfa_register 7
 116 0006 7860     		str	r0, [r7, #4]
 143:Generated_Source\PSoC5/SW_Tx_UART_1.c ****     uint8 stringIndex = 1u;
 117              		.loc 1 143 0
 118 0008 0123     		movs	r3, #1
 119 000a FB73     		strb	r3, [r7, #15]
 144:Generated_Source\PSoC5/SW_Tx_UART_1.c ****     char8 current = *string;
 120              		.loc 1 144 0
 121 000c 7B68     		ldr	r3, [r7, #4]
 122 000e 1B78     		ldrb	r3, [r3]
 123 0010 BB73     		strb	r3, [r7, #14]
 145:Generated_Source\PSoC5/SW_Tx_UART_1.c **** 
 146:Generated_Source\PSoC5/SW_Tx_UART_1.c ****     /* Until null is reached, print next character */
 147:Generated_Source\PSoC5/SW_Tx_UART_1.c ****     while((char8) '\0' != current)
 124              		.loc 1 147 0
 125 0012 0BE0     		b	.L4
 126              	.L5:
 148:Generated_Source\PSoC5/SW_Tx_UART_1.c ****     {
 149:Generated_Source\PSoC5/SW_Tx_UART_1.c ****         SW_Tx_UART_1_PutChar((uint8)current);
 127              		.loc 1 149 0
 128 0014 BB7B     		ldrb	r3, [r7, #14]	@ zero_extendqisi2
 129 0016 1846     		mov	r0, r3
 130 0018 FFF7FEFF 		bl	SW_Tx_UART_1_PutChar
 150:Generated_Source\PSoC5/SW_Tx_UART_1.c ****         current = string[stringIndex];
 131              		.loc 1 150 0
 132 001c FB7B     		ldrb	r3, [r7, #15]	@ zero_extendqisi2
 133 001e 7A68     		ldr	r2, [r7, #4]
 134 0020 1344     		add	r3, r3, r2
 135 0022 1B78     		ldrb	r3, [r3]
ARM GAS  C:\Users\LocalAdmin\AppData\Local\Temp\ccxmPewG.s 			page 6


 136 0024 BB73     		strb	r3, [r7, #14]
 151:Generated_Source\PSoC5/SW_Tx_UART_1.c ****         stringIndex++;
 137              		.loc 1 151 0
 138 0026 FB7B     		ldrb	r3, [r7, #15]	@ zero_extendqisi2
 139 0028 0133     		adds	r3, r3, #1
 140 002a FB73     		strb	r3, [r7, #15]
 141              	.L4:
 147:Generated_Source\PSoC5/SW_Tx_UART_1.c ****     {
 142              		.loc 1 147 0
 143 002c BB7B     		ldrb	r3, [r7, #14]	@ zero_extendqisi2
 144 002e 002B     		cmp	r3, #0
 145 0030 F0D1     		bne	.L5
 152:Generated_Source\PSoC5/SW_Tx_UART_1.c ****     }
 153:Generated_Source\PSoC5/SW_Tx_UART_1.c **** }
 146              		.loc 1 153 0
 147 0032 1037     		adds	r7, r7, #16
 148              		.cfi_def_cfa_offset 8
 149 0034 BD46     		mov	sp, r7
 150              		.cfi_def_cfa_register 13
 151              		@ sp needed
 152 0036 80BD     		pop	{r7, pc}
 153              		.cfi_endproc
 154              	.LFE2:
 155              		.size	SW_Tx_UART_1_PutString, .-SW_Tx_UART_1_PutString
 156              		.section	.text.SW_Tx_UART_1_PutArray,"ax",%progbits
 157              		.align	2
 158              		.global	SW_Tx_UART_1_PutArray
 159              		.thumb
 160              		.thumb_func
 161              		.type	SW_Tx_UART_1_PutArray, %function
 162              	SW_Tx_UART_1_PutArray:
 163              	.LFB3:
 154:Generated_Source\PSoC5/SW_Tx_UART_1.c **** 
 155:Generated_Source\PSoC5/SW_Tx_UART_1.c **** 
 156:Generated_Source\PSoC5/SW_Tx_UART_1.c **** /*******************************************************************************
 157:Generated_Source\PSoC5/SW_Tx_UART_1.c **** * Function Name: SW_Tx_UART_1_PutArray
 158:Generated_Source\PSoC5/SW_Tx_UART_1.c **** ********************************************************************************
 159:Generated_Source\PSoC5/SW_Tx_UART_1.c **** *
 160:Generated_Source\PSoC5/SW_Tx_UART_1.c **** * Summary:
 161:Generated_Source\PSoC5/SW_Tx_UART_1.c **** *  Sends byteCount bytes from a memory array via the Tx pin.
 162:Generated_Source\PSoC5/SW_Tx_UART_1.c **** *
 163:Generated_Source\PSoC5/SW_Tx_UART_1.c **** * Parameters:
 164:Generated_Source\PSoC5/SW_Tx_UART_1.c **** *  data: Pointer to the memory array
 165:Generated_Source\PSoC5/SW_Tx_UART_1.c **** *  byteCount: Number of bytes to be transmitted
 166:Generated_Source\PSoC5/SW_Tx_UART_1.c **** *
 167:Generated_Source\PSoC5/SW_Tx_UART_1.c **** * Return:
 168:Generated_Source\PSoC5/SW_Tx_UART_1.c **** *  None
 169:Generated_Source\PSoC5/SW_Tx_UART_1.c **** *
 170:Generated_Source\PSoC5/SW_Tx_UART_1.c **** *******************************************************************************/
 171:Generated_Source\PSoC5/SW_Tx_UART_1.c **** void SW_Tx_UART_1_PutArray(const uint8 array[], uint32 byteCount) 
 172:Generated_Source\PSoC5/SW_Tx_UART_1.c **** {
 164              		.loc 1 172 0
 165              		.cfi_startproc
 166              		@ args = 0, pretend = 0, frame = 16
 167              		@ frame_needed = 1, uses_anonymous_args = 0
 168 0000 80B5     		push	{r7, lr}
 169              		.cfi_def_cfa_offset 8
ARM GAS  C:\Users\LocalAdmin\AppData\Local\Temp\ccxmPewG.s 			page 7


 170              		.cfi_offset 7, -8
 171              		.cfi_offset 14, -4
 172 0002 84B0     		sub	sp, sp, #16
 173              		.cfi_def_cfa_offset 24
 174 0004 00AF     		add	r7, sp, #0
 175              		.cfi_def_cfa_register 7
 176 0006 7860     		str	r0, [r7, #4]
 177 0008 3960     		str	r1, [r7]
 173:Generated_Source\PSoC5/SW_Tx_UART_1.c ****     uint32 arrayIndex;
 174:Generated_Source\PSoC5/SW_Tx_UART_1.c **** 
 175:Generated_Source\PSoC5/SW_Tx_UART_1.c ****     for (arrayIndex = 0u; arrayIndex < byteCount; arrayIndex++)
 178              		.loc 1 175 0
 179 000a 0023     		movs	r3, #0
 180 000c FB60     		str	r3, [r7, #12]
 181 000e 09E0     		b	.L7
 182              	.L8:
 176:Generated_Source\PSoC5/SW_Tx_UART_1.c ****     {
 177:Generated_Source\PSoC5/SW_Tx_UART_1.c ****         SW_Tx_UART_1_PutChar(array[arrayIndex]);
 183              		.loc 1 177 0 discriminator 3
 184 0010 7A68     		ldr	r2, [r7, #4]
 185 0012 FB68     		ldr	r3, [r7, #12]
 186 0014 1344     		add	r3, r3, r2
 187 0016 1B78     		ldrb	r3, [r3]	@ zero_extendqisi2
 188 0018 1846     		mov	r0, r3
 189 001a FFF7FEFF 		bl	SW_Tx_UART_1_PutChar
 175:Generated_Source\PSoC5/SW_Tx_UART_1.c ****     {
 190              		.loc 1 175 0 discriminator 3
 191 001e FB68     		ldr	r3, [r7, #12]
 192 0020 0133     		adds	r3, r3, #1
 193 0022 FB60     		str	r3, [r7, #12]
 194              	.L7:
 175:Generated_Source\PSoC5/SW_Tx_UART_1.c ****     {
 195              		.loc 1 175 0 is_stmt 0 discriminator 1
 196 0024 FA68     		ldr	r2, [r7, #12]
 197 0026 3B68     		ldr	r3, [r7]
 198 0028 9A42     		cmp	r2, r3
 199 002a F1D3     		bcc	.L8
 178:Generated_Source\PSoC5/SW_Tx_UART_1.c ****     }
 179:Generated_Source\PSoC5/SW_Tx_UART_1.c **** }
 200              		.loc 1 179 0 is_stmt 1
 201 002c 1037     		adds	r7, r7, #16
 202              		.cfi_def_cfa_offset 8
 203 002e BD46     		mov	sp, r7
 204              		.cfi_def_cfa_register 13
 205              		@ sp needed
 206 0030 80BD     		pop	{r7, pc}
 207              		.cfi_endproc
 208              	.LFE3:
 209              		.size	SW_Tx_UART_1_PutArray, .-SW_Tx_UART_1_PutArray
 210 0032 00BF     		.section	.text.SW_Tx_UART_1_PutHexByte,"ax",%progbits
 211              		.align	2
 212              		.global	SW_Tx_UART_1_PutHexByte
 213              		.thumb
 214              		.thumb_func
 215              		.type	SW_Tx_UART_1_PutHexByte, %function
 216              	SW_Tx_UART_1_PutHexByte:
 217              	.LFB4:
ARM GAS  C:\Users\LocalAdmin\AppData\Local\Temp\ccxmPewG.s 			page 8


 180:Generated_Source\PSoC5/SW_Tx_UART_1.c **** 
 181:Generated_Source\PSoC5/SW_Tx_UART_1.c **** 
 182:Generated_Source\PSoC5/SW_Tx_UART_1.c **** /*******************************************************************************
 183:Generated_Source\PSoC5/SW_Tx_UART_1.c **** * Function Name: SW_Tx_UART_1_PutHexByte
 184:Generated_Source\PSoC5/SW_Tx_UART_1.c **** ********************************************************************************
 185:Generated_Source\PSoC5/SW_Tx_UART_1.c **** *
 186:Generated_Source\PSoC5/SW_Tx_UART_1.c **** * Summary:
 187:Generated_Source\PSoC5/SW_Tx_UART_1.c **** *  Sends a byte in Hex representation (two characters, uppercase for A-F) via
 188:Generated_Source\PSoC5/SW_Tx_UART_1.c **** *  the Tx pin.
 189:Generated_Source\PSoC5/SW_Tx_UART_1.c **** *
 190:Generated_Source\PSoC5/SW_Tx_UART_1.c **** * Parameters:
 191:Generated_Source\PSoC5/SW_Tx_UART_1.c **** *  TxHexByte: The byte to be converted to ASCII characters and
 192:Generated_Source\PSoC5/SW_Tx_UART_1.c **** *             sent via the Tx pin.
 193:Generated_Source\PSoC5/SW_Tx_UART_1.c **** *
 194:Generated_Source\PSoC5/SW_Tx_UART_1.c **** * Return:
 195:Generated_Source\PSoC5/SW_Tx_UART_1.c **** *  None
 196:Generated_Source\PSoC5/SW_Tx_UART_1.c **** *
 197:Generated_Source\PSoC5/SW_Tx_UART_1.c **** *******************************************************************************/
 198:Generated_Source\PSoC5/SW_Tx_UART_1.c **** void SW_Tx_UART_1_PutHexByte(uint8 txHexByte) 
 199:Generated_Source\PSoC5/SW_Tx_UART_1.c **** {
 218              		.loc 1 199 0
 219              		.cfi_startproc
 220              		@ args = 0, pretend = 0, frame = 8
 221              		@ frame_needed = 1, uses_anonymous_args = 0
 222 0000 80B5     		push	{r7, lr}
 223              		.cfi_def_cfa_offset 8
 224              		.cfi_offset 7, -8
 225              		.cfi_offset 14, -4
 226 0002 82B0     		sub	sp, sp, #8
 227              		.cfi_def_cfa_offset 16
 228 0004 00AF     		add	r7, sp, #0
 229              		.cfi_def_cfa_register 7
 230 0006 0346     		mov	r3, r0
 231 0008 FB71     		strb	r3, [r7, #7]
 200:Generated_Source\PSoC5/SW_Tx_UART_1.c ****     static char8 const CYCODE SW_Tx_UART_1_hex[] = "0123456789ABCDEF";
 201:Generated_Source\PSoC5/SW_Tx_UART_1.c **** 
 202:Generated_Source\PSoC5/SW_Tx_UART_1.c ****     SW_Tx_UART_1_PutChar((uint8) SW_Tx_UART_1_hex[txHexByte >> SW_Tx_UART_1_BYTE_UPPER_NIBBLE_SHIFT
 232              		.loc 1 202 0
 233 000a FB79     		ldrb	r3, [r7, #7]	@ zero_extendqisi2
 234 000c 1B09     		lsrs	r3, r3, #4
 235 000e DBB2     		uxtb	r3, r3
 236 0010 1A46     		mov	r2, r3
 237 0012 084B     		ldr	r3, .L10
 238 0014 9B5C     		ldrb	r3, [r3, r2]	@ zero_extendqisi2
 239 0016 1846     		mov	r0, r3
 240 0018 FFF7FEFF 		bl	SW_Tx_UART_1_PutChar
 203:Generated_Source\PSoC5/SW_Tx_UART_1.c ****     SW_Tx_UART_1_PutChar((uint8) SW_Tx_UART_1_hex[txHexByte & SW_Tx_UART_1_BYTE_LOWER_NIBBLE_MASK])
 241              		.loc 1 203 0
 242 001c FB79     		ldrb	r3, [r7, #7]	@ zero_extendqisi2
 243 001e 03F00F03 		and	r3, r3, #15
 244 0022 044A     		ldr	r2, .L10
 245 0024 D35C     		ldrb	r3, [r2, r3]	@ zero_extendqisi2
 246 0026 1846     		mov	r0, r3
 247 0028 FFF7FEFF 		bl	SW_Tx_UART_1_PutChar
 204:Generated_Source\PSoC5/SW_Tx_UART_1.c **** }
 248              		.loc 1 204 0
 249 002c 0837     		adds	r7, r7, #8
ARM GAS  C:\Users\LocalAdmin\AppData\Local\Temp\ccxmPewG.s 			page 9


 250              		.cfi_def_cfa_offset 8
 251 002e BD46     		mov	sp, r7
 252              		.cfi_def_cfa_register 13
 253              		@ sp needed
 254 0030 80BD     		pop	{r7, pc}
 255              	.L11:
 256 0032 00BF     		.align	2
 257              	.L10:
 258 0034 00000000 		.word	SW_Tx_UART_1_hex.4186
 259              		.cfi_endproc
 260              	.LFE4:
 261              		.size	SW_Tx_UART_1_PutHexByte, .-SW_Tx_UART_1_PutHexByte
 262              		.section	.text.SW_Tx_UART_1_PutHexInt,"ax",%progbits
 263              		.align	2
 264              		.global	SW_Tx_UART_1_PutHexInt
 265              		.thumb
 266              		.thumb_func
 267              		.type	SW_Tx_UART_1_PutHexInt, %function
 268              	SW_Tx_UART_1_PutHexInt:
 269              	.LFB5:
 205:Generated_Source\PSoC5/SW_Tx_UART_1.c **** 
 206:Generated_Source\PSoC5/SW_Tx_UART_1.c **** 
 207:Generated_Source\PSoC5/SW_Tx_UART_1.c **** /*******************************************************************************
 208:Generated_Source\PSoC5/SW_Tx_UART_1.c **** * Function Name: SW_Tx_UART_1_PutHexInt
 209:Generated_Source\PSoC5/SW_Tx_UART_1.c **** ********************************************************************************
 210:Generated_Source\PSoC5/SW_Tx_UART_1.c **** *
 211:Generated_Source\PSoC5/SW_Tx_UART_1.c **** * Summary:
 212:Generated_Source\PSoC5/SW_Tx_UART_1.c **** *  Sends a 16-bit unsigned integer in Hex representation (four characters,
 213:Generated_Source\PSoC5/SW_Tx_UART_1.c **** *  uppercase for A-F) via the Tx pin.
 214:Generated_Source\PSoC5/SW_Tx_UART_1.c **** *
 215:Generated_Source\PSoC5/SW_Tx_UART_1.c **** * Parameters:
 216:Generated_Source\PSoC5/SW_Tx_UART_1.c **** *  TxHexInt: The uint16 to be converted to ASCII characters and sent via
 217:Generated_Source\PSoC5/SW_Tx_UART_1.c **** *            the Tx pin.
 218:Generated_Source\PSoC5/SW_Tx_UART_1.c **** *
 219:Generated_Source\PSoC5/SW_Tx_UART_1.c **** * Return:
 220:Generated_Source\PSoC5/SW_Tx_UART_1.c **** *  None
 221:Generated_Source\PSoC5/SW_Tx_UART_1.c **** *
 222:Generated_Source\PSoC5/SW_Tx_UART_1.c **** *******************************************************************************/
 223:Generated_Source\PSoC5/SW_Tx_UART_1.c **** void SW_Tx_UART_1_PutHexInt(uint16 txHexInt) 
 224:Generated_Source\PSoC5/SW_Tx_UART_1.c **** {
 270              		.loc 1 224 0
 271              		.cfi_startproc
 272              		@ args = 0, pretend = 0, frame = 8
 273              		@ frame_needed = 1, uses_anonymous_args = 0
 274 0000 80B5     		push	{r7, lr}
 275              		.cfi_def_cfa_offset 8
 276              		.cfi_offset 7, -8
 277              		.cfi_offset 14, -4
 278 0002 82B0     		sub	sp, sp, #8
 279              		.cfi_def_cfa_offset 16
 280 0004 00AF     		add	r7, sp, #0
 281              		.cfi_def_cfa_register 7
 282 0006 0346     		mov	r3, r0
 283 0008 FB80     		strh	r3, [r7, #6]	@ movhi
 225:Generated_Source\PSoC5/SW_Tx_UART_1.c ****     SW_Tx_UART_1_PutHexByte((uint8)(txHexInt >> SW_Tx_UART_1_U16_UPPER_BYTE_SHIFT));
 284              		.loc 1 225 0
 285 000a FB88     		ldrh	r3, [r7, #6]
ARM GAS  C:\Users\LocalAdmin\AppData\Local\Temp\ccxmPewG.s 			page 10


 286 000c 1B0A     		lsrs	r3, r3, #8
 287 000e 9BB2     		uxth	r3, r3
 288 0010 DBB2     		uxtb	r3, r3
 289 0012 1846     		mov	r0, r3
 290 0014 FFF7FEFF 		bl	SW_Tx_UART_1_PutHexByte
 226:Generated_Source\PSoC5/SW_Tx_UART_1.c ****     SW_Tx_UART_1_PutHexByte((uint8)(txHexInt & SW_Tx_UART_1_U16_LOWER_BYTE_MASK));
 291              		.loc 1 226 0
 292 0018 FB88     		ldrh	r3, [r7, #6]	@ movhi
 293 001a DBB2     		uxtb	r3, r3
 294 001c 1846     		mov	r0, r3
 295 001e FFF7FEFF 		bl	SW_Tx_UART_1_PutHexByte
 227:Generated_Source\PSoC5/SW_Tx_UART_1.c **** }
 296              		.loc 1 227 0
 297 0022 0837     		adds	r7, r7, #8
 298              		.cfi_def_cfa_offset 8
 299 0024 BD46     		mov	sp, r7
 300              		.cfi_def_cfa_register 13
 301              		@ sp needed
 302 0026 80BD     		pop	{r7, pc}
 303              		.cfi_endproc
 304              	.LFE5:
 305              		.size	SW_Tx_UART_1_PutHexInt, .-SW_Tx_UART_1_PutHexInt
 306              		.section	.text.SW_Tx_UART_1_PutCRLF,"ax",%progbits
 307              		.align	2
 308              		.global	SW_Tx_UART_1_PutCRLF
 309              		.thumb
 310              		.thumb_func
 311              		.type	SW_Tx_UART_1_PutCRLF, %function
 312              	SW_Tx_UART_1_PutCRLF:
 313              	.LFB6:
 228:Generated_Source\PSoC5/SW_Tx_UART_1.c **** 
 229:Generated_Source\PSoC5/SW_Tx_UART_1.c **** 
 230:Generated_Source\PSoC5/SW_Tx_UART_1.c **** /*******************************************************************************
 231:Generated_Source\PSoC5/SW_Tx_UART_1.c **** * Function Name: SW_Tx_UART_1_PutCRLF
 232:Generated_Source\PSoC5/SW_Tx_UART_1.c **** ********************************************************************************
 233:Generated_Source\PSoC5/SW_Tx_UART_1.c **** *
 234:Generated_Source\PSoC5/SW_Tx_UART_1.c **** * Summary:
 235:Generated_Source\PSoC5/SW_Tx_UART_1.c **** *  Sends a carriage return (0x0D) and a line feed (0x0A) via the Tx pin.
 236:Generated_Source\PSoC5/SW_Tx_UART_1.c **** *
 237:Generated_Source\PSoC5/SW_Tx_UART_1.c **** * Parameters:
 238:Generated_Source\PSoC5/SW_Tx_UART_1.c **** *  None
 239:Generated_Source\PSoC5/SW_Tx_UART_1.c **** *
 240:Generated_Source\PSoC5/SW_Tx_UART_1.c **** * Return:
 241:Generated_Source\PSoC5/SW_Tx_UART_1.c **** *  None
 242:Generated_Source\PSoC5/SW_Tx_UART_1.c **** *
 243:Generated_Source\PSoC5/SW_Tx_UART_1.c **** *******************************************************************************/
 244:Generated_Source\PSoC5/SW_Tx_UART_1.c **** void SW_Tx_UART_1_PutCRLF(void) 
 245:Generated_Source\PSoC5/SW_Tx_UART_1.c **** {
 314              		.loc 1 245 0
 315              		.cfi_startproc
 316              		@ args = 0, pretend = 0, frame = 0
 317              		@ frame_needed = 1, uses_anonymous_args = 0
 318 0000 80B5     		push	{r7, lr}
 319              		.cfi_def_cfa_offset 8
 320              		.cfi_offset 7, -8
 321              		.cfi_offset 14, -4
 322 0002 00AF     		add	r7, sp, #0
ARM GAS  C:\Users\LocalAdmin\AppData\Local\Temp\ccxmPewG.s 			page 11


 323              		.cfi_def_cfa_register 7
 246:Generated_Source\PSoC5/SW_Tx_UART_1.c ****     SW_Tx_UART_1_PutChar(0x0Du);
 324              		.loc 1 246 0
 325 0004 0D20     		movs	r0, #13
 326 0006 FFF7FEFF 		bl	SW_Tx_UART_1_PutChar
 247:Generated_Source\PSoC5/SW_Tx_UART_1.c ****     SW_Tx_UART_1_PutChar(0x0Au);
 327              		.loc 1 247 0
 328 000a 0A20     		movs	r0, #10
 329 000c FFF7FEFF 		bl	SW_Tx_UART_1_PutChar
 248:Generated_Source\PSoC5/SW_Tx_UART_1.c **** }
 330              		.loc 1 248 0
 331 0010 80BD     		pop	{r7, pc}
 332              		.cfi_endproc
 333              	.LFE6:
 334              		.size	SW_Tx_UART_1_PutCRLF, .-SW_Tx_UART_1_PutCRLF
 335 0012 00BF     		.section	.rodata
 336              		.align	2
 337              		.type	SW_Tx_UART_1_hex.4186, %object
 338              		.size	SW_Tx_UART_1_hex.4186, 17
 339              	SW_Tx_UART_1_hex.4186:
 340 0000 30313233 		.ascii	"0123456789ABCDEF\000"
 340      34353637 
 340      38394142 
 340      43444546 
 340      00
 341 0011 000000   		.text
 342              	.Letext0:
 343              		.file 2 "Generated_Source\\PSoC5\\cytypes.h"